   1              		.syntax unified
   2              		.cpu cortex-m3
   3              		.fpu softvfp
   4              		.eabi_attribute 20, 1
   5              		.eabi_attribute 21, 1
   6              		.eabi_attribute 23, 3
   7              		.eabi_attribute 24, 1
   8              		.eabi_attribute 25, 1
   9              		.eabi_attribute 26, 1
  10              		.eabi_attribute 30, 4
  11              		.eabi_attribute 34, 1
  12              		.eabi_attribute 18, 4
  13              		.thumb
  14              		.syntax unified
  15              		.file	"duration.cpp"
  16              		.text
  17              	.Ltext0:
  18              		.cfi_sections	.debug_frame
  19              		.align	1
  20              		.global	_ZN3ros22normalizeSecNSecSignedERlS0_
  21              		.thumb
  22              		.thumb_func
  24              	_ZN3ros22normalizeSecNSecSignedERlS0_:
  25              		.fnstart
  26              	.LFB8:
  27              		.file 1 "lib/ros_lib/duration.cpp"
   1:lib/ros_lib/duration.cpp **** /*
   2:lib/ros_lib/duration.cpp ****  * Software License Agreement (BSD License)
   3:lib/ros_lib/duration.cpp ****  *
   4:lib/ros_lib/duration.cpp ****  * Copyright (c) 2011, Willow Garage, Inc.
   5:lib/ros_lib/duration.cpp ****  * All rights reserved.
   6:lib/ros_lib/duration.cpp ****  *
   7:lib/ros_lib/duration.cpp ****  * Redistribution and use in source and binary forms, with or without
   8:lib/ros_lib/duration.cpp ****  * modification, are permitted provided that the following conditions
   9:lib/ros_lib/duration.cpp ****  * are met:
  10:lib/ros_lib/duration.cpp ****  *
  11:lib/ros_lib/duration.cpp ****  *  * Redistributions of source code must retain the above copyright
  12:lib/ros_lib/duration.cpp ****  *    notice, this list of conditions and the following disclaimer.
  13:lib/ros_lib/duration.cpp ****  *  * Redistributions in binary form must reproduce the above
  14:lib/ros_lib/duration.cpp ****  *    copyright notice, this list of conditions and the following
  15:lib/ros_lib/duration.cpp ****  *    disclaimer in the documentation and/or other materials provided
  16:lib/ros_lib/duration.cpp ****  *    with the distribution.
  17:lib/ros_lib/duration.cpp ****  *  * Neither the name of Willow Garage, Inc. nor the names of its
  18:lib/ros_lib/duration.cpp ****  *    contributors may be used to endorse or promote prducts derived
  19:lib/ros_lib/duration.cpp ****  *    from this software without specific prior written permission.
  20:lib/ros_lib/duration.cpp ****  *
  21:lib/ros_lib/duration.cpp ****  * THIS SOFTWARE IS PROVIDED BY THE COPYRIGHT HOLDERS AND CONTRIBUTORS
  22:lib/ros_lib/duration.cpp ****  * "AS IS" AND ANY EXPRESS OR IMPLIED WARRANTIES, INCLUDING, BUT NOT
  23:lib/ros_lib/duration.cpp ****  * LIMITED TO, THE IMPLIED WARRANTIES OF MERCHANTABILITY AND FITNESS
  24:lib/ros_lib/duration.cpp ****  * FOR A PARTICULAR PURPOSE ARE DISCLAIMED. IN NO EVENT SHALL THE
  25:lib/ros_lib/duration.cpp ****  * COPYRIGHT OWNER OR CONTRIBUTORS BE LIABLE FOR ANY DIRECT, INDIRECT,
  26:lib/ros_lib/duration.cpp ****  * INCIDENTAL, SPECIAL, EXEMPLARY, OR CONSEQUENTIAL DAMAGES (INCLUDING,
  27:lib/ros_lib/duration.cpp ****  * BUT NOT LIMITED TO, PROCUREMENT OF SUBSTITUTE GOODS OR SERVICES;
  28:lib/ros_lib/duration.cpp ****  * LOSS OF USE, DATA, OR PROFITS; OR BUSINESS INTERRUPTION) HOWEVER
  29:lib/ros_lib/duration.cpp ****  * CAUSED AND ON ANY THEORY OF LIABILITY, WHETHER IN CONTRACT, STRICT
  30:lib/ros_lib/duration.cpp ****  * LIABILITY, OR TORT (INCLUDING NEGLIGENCE OR OTHERWISE) ARISING IN
  31:lib/ros_lib/duration.cpp ****  * ANY WAY OUT OF THE USE OF THIS SOFTWARE, EVEN IF ADVISED OF THE
  32:lib/ros_lib/duration.cpp ****  * POSSIBILITY OF SUCH DAMAGE.
  33:lib/ros_lib/duration.cpp ****  */
  34:lib/ros_lib/duration.cpp **** 
  35:lib/ros_lib/duration.cpp **** #include <math.h>
  36:lib/ros_lib/duration.cpp **** #include "ros/duration.h"
  37:lib/ros_lib/duration.cpp **** 
  38:lib/ros_lib/duration.cpp **** namespace ros
  39:lib/ros_lib/duration.cpp **** {
  40:lib/ros_lib/duration.cpp ****   void normalizeSecNSecSigned(int32_t &sec, int32_t &nsec)
  41:lib/ros_lib/duration.cpp ****   {
  28              		.loc 1 41 0
  29              		.cfi_startproc
  30              		@ args = 0, pretend = 0, frame = 0
  31              		@ frame_needed = 0, uses_anonymous_args = 0
  32              	.LVL0:
  33 0000 10B5     		push	{r4, lr}
  34              	.LCFI0:
  35              		.cfi_def_cfa_offset 8
  36              		.cfi_offset 4, -8
  37              		.cfi_offset 14, -4
  42:lib/ros_lib/duration.cpp ****     int32_t nsec_part = nsec;
  38              		.loc 1 42 0
  39 0002 0B68     		ldr	r3, [r1]
  40              	.LVL1:
  43:lib/ros_lib/duration.cpp ****     int32_t sec_part = sec;
  41              		.loc 1 43 0
  42 0004 0268     		ldr	r2, [r0]
  43              	.LVL2:
  44:lib/ros_lib/duration.cpp **** 
  45:lib/ros_lib/duration.cpp ****     while (nsec_part > 1000000000L)
  44              		.loc 1 45 0
  45 0006 0C4C     		ldr	r4, .L8
  46              	.L4:
  47 0008 A342     		cmp	r3, r4
  48 000a 07DD     		ble	.L3
  46:lib/ros_lib/duration.cpp ****     {
  47:lib/ros_lib/duration.cpp ****       nsec_part -= 1000000000L;
  49              		.loc 1 47 0
  50 000c 03F14443 		add	r3, r3, #-1006632960
  51              	.LVL3:
  52 0010 03F5CA03 		add	r3, r3, #6619136
  53              	.LVL4:
  54 0014 03F55853 		add	r3, r3, #13824
  55              	.LVL5:
  48:lib/ros_lib/duration.cpp ****       ++sec_part;
  56              		.loc 1 48 0
  57 0018 0132     		adds	r2, r2, #1
  58              	.LVL6:
  45:lib/ros_lib/duration.cpp ****     {
  59              		.loc 1 45 0
  60 001a F5E7     		b	.L4
  61              	.L3:
  49:lib/ros_lib/duration.cpp ****     }
  50:lib/ros_lib/duration.cpp ****     while (nsec_part < 0)
  62              		.loc 1 50 0
  63 001c 002B     		cmp	r3, #0
  64 001e 07DA     		bge	.L5
  51:lib/ros_lib/duration.cpp ****     {
  52:lib/ros_lib/duration.cpp ****       nsec_part += 1000000000L;
  65              		.loc 1 52 0
  66 0020 03F16E53 		add	r3, r3, #998244352
  67              	.LVL7:
  68 0024 03F5D613 		add	r3, r3, #1753088
  69              	.LVL8:
  70 0028 03F52063 		add	r3, r3, #2560
  71              	.LVL9:
  53:lib/ros_lib/duration.cpp ****       --sec_part;
  72              		.loc 1 53 0
  73 002c 013A     		subs	r2, r2, #1
  74              	.LVL10:
  50:lib/ros_lib/duration.cpp ****     {
  75              		.loc 1 50 0
  76 002e F5E7     		b	.L3
  77              	.L5:
  54:lib/ros_lib/duration.cpp ****     }
  55:lib/ros_lib/duration.cpp ****     sec = sec_part;
  78              		.loc 1 55 0
  79 0030 0260     		str	r2, [r0]
  56:lib/ros_lib/duration.cpp ****     nsec = nsec_part;
  80              		.loc 1 56 0
  81 0032 0B60     		str	r3, [r1]
  82 0034 10BD     		pop	{r4, pc}
  83              	.L9:
  84 0036 00BF     		.align	2
  85              	.L8:
  86 0038 00CA9A3B 		.word	1000000000
  87              		.cfi_endproc
  88              	.LFE8:
  89              		.cantunwind
  90              		.fnend
  92              		.align	1
  93              		.global	_ZN3ros8DurationpLERKS0_
  94              		.thumb
  95              		.thumb_func
  97              	_ZN3ros8DurationpLERKS0_:
  98              		.fnstart
  99              	.LFB9:
  57:lib/ros_lib/duration.cpp ****   }
  58:lib/ros_lib/duration.cpp **** 
  59:lib/ros_lib/duration.cpp ****   Duration& Duration::operator+=(const Duration &rhs)
  60:lib/ros_lib/duration.cpp ****   {
 100              		.loc 1 60 0
 101              		.cfi_startproc
 102              		@ args = 0, pretend = 0, frame = 0
 103              		@ frame_needed = 0, uses_anonymous_args = 0
 104              	.LVL11:
  61:lib/ros_lib/duration.cpp ****     sec += rhs.sec;
 105              		.loc 1 61 0
 106 003c 0268     		ldr	r2, [r0]
 107 003e 0B68     		ldr	r3, [r1]
  60:lib/ros_lib/duration.cpp ****     sec += rhs.sec;
 108              		.loc 1 60 0
 109 0040 10B5     		push	{r4, lr}
 110              	.LCFI1:
 111              		.cfi_def_cfa_offset 8
 112              		.cfi_offset 4, -8
 113              		.cfi_offset 14, -4
 114              		.loc 1 61 0
 115 0042 1344     		add	r3, r3, r2
 116 0044 0360     		str	r3, [r0]
  62:lib/ros_lib/duration.cpp ****     nsec += rhs.nsec;
 117              		.loc 1 62 0
 118 0046 4B68     		ldr	r3, [r1, #4]
 119 0048 0146     		mov	r1, r0
 120              	.LVL12:
 121 004a 4268     		ldr	r2, [r0, #4]
 122 004c 1344     		add	r3, r3, r2
 123 004e 41F8043F 		str	r3, [r1, #4]!
  63:lib/ros_lib/duration.cpp ****     normalizeSecNSecSigned(sec, nsec);
 124              		.loc 1 63 0
 125 0052 FFF7FEFF 		bl	_ZN3ros22normalizeSecNSecSignedERlS0_
 126              	.LVL13:
  64:lib/ros_lib/duration.cpp ****     return *this;
  65:lib/ros_lib/duration.cpp ****   }
 127              		.loc 1 65 0
 128 0056 10BD     		pop	{r4, pc}
 129              		.cfi_endproc
 130              	.LFE9:
 131              		.cantunwind
 132              		.fnend
 134              		.align	1
 135              		.global	_ZN3ros8DurationmIERKS0_
 136              		.thumb
 137              		.thumb_func
 139              	_ZN3ros8DurationmIERKS0_:
 140              		.fnstart
 141              	.LFB10:
  66:lib/ros_lib/duration.cpp **** 
  67:lib/ros_lib/duration.cpp ****   Duration& Duration::operator-=(const Duration &rhs){
 142              		.loc 1 67 0
 143              		.cfi_startproc
 144              		@ args = 0, pretend = 0, frame = 0
 145              		@ frame_needed = 0, uses_anonymous_args = 0
 146              	.LVL14:
  68:lib/ros_lib/duration.cpp ****     sec += -rhs.sec;
 147              		.loc 1 68 0
 148 0058 0368     		ldr	r3, [r0]
 149 005a 0A68     		ldr	r2, [r1]
  67:lib/ros_lib/duration.cpp ****     sec += -rhs.sec;
 150              		.loc 1 67 0
 151 005c 10B5     		push	{r4, lr}
 152              	.LCFI2:
 153              		.cfi_def_cfa_offset 8
 154              		.cfi_offset 4, -8
 155              		.cfi_offset 14, -4
 156              		.loc 1 68 0
 157 005e 9B1A     		subs	r3, r3, r2
  69:lib/ros_lib/duration.cpp ****     nsec += -rhs.nsec;
 158              		.loc 1 69 0
 159 0060 4A68     		ldr	r2, [r1, #4]
 160 0062 0146     		mov	r1, r0
 161              	.LVL15:
  68:lib/ros_lib/duration.cpp ****     sec += -rhs.sec;
 162              		.loc 1 68 0
 163 0064 0360     		str	r3, [r0]
 164              		.loc 1 69 0
 165 0066 4368     		ldr	r3, [r0, #4]
 166 0068 9B1A     		subs	r3, r3, r2
 167 006a 41F8043F 		str	r3, [r1, #4]!
  70:lib/ros_lib/duration.cpp ****     normalizeSecNSecSigned(sec, nsec);
 168              		.loc 1 70 0
 169 006e FFF7FEFF 		bl	_ZN3ros22normalizeSecNSecSignedERlS0_
 170              	.LVL16:
  71:lib/ros_lib/duration.cpp ****     return *this;
  72:lib/ros_lib/duration.cpp ****   }
 171              		.loc 1 72 0
 172 0072 10BD     		pop	{r4, pc}
 173              		.cfi_endproc
 174              	.LFE10:
 175              		.cantunwind
 176              		.fnend
 178              		.global	__aeabi_i2d
 179              		.global	__aeabi_dmul
 180              		.global	__aeabi_d2iz
 181              		.align	1
 182              		.global	_ZN3ros8DurationmLEd
 183              		.thumb
 184              		.thumb_func
 186              	_ZN3ros8DurationmLEd:
 187              		.fnstart
 188              	.LFB11:
  73:lib/ros_lib/duration.cpp **** 
  74:lib/ros_lib/duration.cpp ****   Duration& Duration::operator*=(double scale){
 189              		.loc 1 74 0
 190              		.cfi_startproc
 191              		@ args = 0, pretend = 0, frame = 0
 192              		@ frame_needed = 0, uses_anonymous_args = 0
 193              	.LVL17:
 194 0074 D0B5     		push	{r4, r6, r7, lr}
 195              	.LCFI3:
 196              		.cfi_def_cfa_offset 16
 197              		.cfi_offset 4, -16
 198              		.cfi_offset 6, -12
 199              		.cfi_offset 7, -8
 200              		.cfi_offset 14, -4
 201              		.loc 1 74 0
 202 0076 1646     		mov	r6, r2
 203 0078 1F46     		mov	r7, r3
 204 007a 0446     		mov	r4, r0
  75:lib/ros_lib/duration.cpp ****     sec *= scale;
 205              		.loc 1 75 0
 206 007c 0068     		ldr	r0, [r0]
 207              	.LVL18:
 208 007e FFF7FEFF 		bl	__aeabi_i2d
 209              	.LVL19:
 210 0082 3246     		mov	r2, r6
 211 0084 3B46     		mov	r3, r7
 212 0086 FFF7FEFF 		bl	__aeabi_dmul
 213              	.LVL20:
 214 008a FFF7FEFF 		bl	__aeabi_d2iz
 215              	.LVL21:
 216 008e 2060     		str	r0, [r4]
  76:lib/ros_lib/duration.cpp ****     nsec *= scale;
 217              		.loc 1 76 0
 218 0090 6068     		ldr	r0, [r4, #4]
 219 0092 FFF7FEFF 		bl	__aeabi_i2d
 220              	.LVL22:
 221 0096 3246     		mov	r2, r6
 222 0098 3B46     		mov	r3, r7
 223 009a FFF7FEFF 		bl	__aeabi_dmul
 224              	.LVL23:
 225 009e FFF7FEFF 		bl	__aeabi_d2iz
 226              	.LVL24:
 227 00a2 2146     		mov	r1, r4
 228 00a4 41F8040F 		str	r0, [r1, #4]!
  77:lib/ros_lib/duration.cpp ****     normalizeSecNSecSigned(sec, nsec);
 229              		.loc 1 77 0
 230 00a8 2046     		mov	r0, r4
 231 00aa FFF7FEFF 		bl	_ZN3ros22normalizeSecNSecSignedERlS0_
 232              	.LVL25:
  78:lib/ros_lib/duration.cpp ****     return *this;
  79:lib/ros_lib/duration.cpp ****   }
 233              		.loc 1 79 0
 234 00ae 2046     		mov	r0, r4
 235 00b0 D0BD     		pop	{r4, r6, r7, pc}
 236              		.cfi_endproc
 237              	.LFE11:
 238              		.cantunwind
 239              		.fnend
 241              	.Letext0:
 242              		.file 2 "/media/emil/opt/gcc-arm-none-eabi-5_2-2015q4/arm-none-eabi/include/machine/_default_types
 243              		.file 3 "/media/emil/opt/gcc-arm-none-eabi-5_2-2015q4/arm-none-eabi/include/sys/_stdint.h"
 244              		.file 4 "lib/ros_lib/ros/duration.h"