   1              		.syntax unified
   2              		.cpu cortex-m3
   3              		.fpu softvfp
   4              		.eabi_attribute 20, 1
   5              		.eabi_attribute 21, 1
   6              		.eabi_attribute 23, 3
   7              		.eabi_attribute 24, 1
   8              		.eabi_attribute 25, 1
   9              		.eabi_attribute 26, 1
  10              		.eabi_attribute 30, 4
  11              		.eabi_attribute 34, 1
  12              		.eabi_attribute 18, 4
  13              		.thumb
  14              		.syntax unified
  15              		.file	"stm32f10x_fsmc.c"
  16              		.text
  17              	.Ltext0:
  18              		.cfi_sections	.debug_frame
  19              		.align	1
  20              		.global	FSMC_NORSRAMDeInit
  21              		.thumb
  22              		.thumb_func
  24              	FSMC_NORSRAMDeInit:
  25              	.LFB29:
  26              		.file 1 "lib/STM32F10x_StdPeriph_Driver/src/stm32f10x_fsmc.c"
   1:lib/STM32F10x_StdPeriph_Driver/src/stm32f10x_fsmc.c **** /**
   2:lib/STM32F10x_StdPeriph_Driver/src/stm32f10x_fsmc.c ****   ******************************************************************************
   3:lib/STM32F10x_StdPeriph_Driver/src/stm32f10x_fsmc.c ****   * @file    stm32f10x_fsmc.c
   4:lib/STM32F10x_StdPeriph_Driver/src/stm32f10x_fsmc.c ****   * @author  MCD Application Team
   5:lib/STM32F10x_StdPeriph_Driver/src/stm32f10x_fsmc.c ****   * @version V3.5.0
   6:lib/STM32F10x_StdPeriph_Driver/src/stm32f10x_fsmc.c ****   * @date    11-March-2011
   7:lib/STM32F10x_StdPeriph_Driver/src/stm32f10x_fsmc.c ****   * @brief   This file provides all the FSMC firmware functions.
   8:lib/STM32F10x_StdPeriph_Driver/src/stm32f10x_fsmc.c ****   ******************************************************************************
   9:lib/STM32F10x_StdPeriph_Driver/src/stm32f10x_fsmc.c ****   * @attention
  10:lib/STM32F10x_StdPeriph_Driver/src/stm32f10x_fsmc.c ****   *
  11:lib/STM32F10x_StdPeriph_Driver/src/stm32f10x_fsmc.c ****   * THE PRESENT FIRMWARE WHICH IS FOR GUIDANCE ONLY AIMS AT PROVIDING CUSTOMERS
  12:lib/STM32F10x_StdPeriph_Driver/src/stm32f10x_fsmc.c ****   * WITH CODING INFORMATION REGARDING THEIR PRODUCTS IN ORDER FOR THEM TO SAVE
  13:lib/STM32F10x_StdPeriph_Driver/src/stm32f10x_fsmc.c ****   * TIME. AS A RESULT, STMICROELECTRONICS SHALL NOT BE HELD LIABLE FOR ANY
  14:lib/STM32F10x_StdPeriph_Driver/src/stm32f10x_fsmc.c ****   * DIRECT, INDIRECT OR CONSEQUENTIAL DAMAGES WITH RESPECT TO ANY CLAIMS ARISING
  15:lib/STM32F10x_StdPeriph_Driver/src/stm32f10x_fsmc.c ****   * FROM THE CONTENT OF SUCH FIRMWARE AND/OR THE USE MADE BY CUSTOMERS OF THE
  16:lib/STM32F10x_StdPeriph_Driver/src/stm32f10x_fsmc.c ****   * CODING INFORMATION CONTAINED HEREIN IN CONNECTION WITH THEIR PRODUCTS.
  17:lib/STM32F10x_StdPeriph_Driver/src/stm32f10x_fsmc.c ****   *
  18:lib/STM32F10x_StdPeriph_Driver/src/stm32f10x_fsmc.c ****   * <h2><center>&copy; COPYRIGHT 2011 STMicroelectronics</center></h2>
  19:lib/STM32F10x_StdPeriph_Driver/src/stm32f10x_fsmc.c ****   ******************************************************************************
  20:lib/STM32F10x_StdPeriph_Driver/src/stm32f10x_fsmc.c ****   */
  21:lib/STM32F10x_StdPeriph_Driver/src/stm32f10x_fsmc.c **** 
  22:lib/STM32F10x_StdPeriph_Driver/src/stm32f10x_fsmc.c **** /* Includes ------------------------------------------------------------------*/
  23:lib/STM32F10x_StdPeriph_Driver/src/stm32f10x_fsmc.c **** #include "stm32f10x_fsmc.h"
  24:lib/STM32F10x_StdPeriph_Driver/src/stm32f10x_fsmc.c **** #include "stm32f10x_rcc.h"
  25:lib/STM32F10x_StdPeriph_Driver/src/stm32f10x_fsmc.c **** 
  26:lib/STM32F10x_StdPeriph_Driver/src/stm32f10x_fsmc.c **** /** @addtogroup STM32F10x_StdPeriph_Driver
  27:lib/STM32F10x_StdPeriph_Driver/src/stm32f10x_fsmc.c ****   * @{
  28:lib/STM32F10x_StdPeriph_Driver/src/stm32f10x_fsmc.c ****   */
  29:lib/STM32F10x_StdPeriph_Driver/src/stm32f10x_fsmc.c **** 
  30:lib/STM32F10x_StdPeriph_Driver/src/stm32f10x_fsmc.c **** /** @defgroup FSMC 
  31:lib/STM32F10x_StdPeriph_Driver/src/stm32f10x_fsmc.c ****   * @brief FSMC driver modules
  32:lib/STM32F10x_StdPeriph_Driver/src/stm32f10x_fsmc.c ****   * @{
  33:lib/STM32F10x_StdPeriph_Driver/src/stm32f10x_fsmc.c ****   */ 
  34:lib/STM32F10x_StdPeriph_Driver/src/stm32f10x_fsmc.c **** 
  35:lib/STM32F10x_StdPeriph_Driver/src/stm32f10x_fsmc.c **** /** @defgroup FSMC_Private_TypesDefinitions
  36:lib/STM32F10x_StdPeriph_Driver/src/stm32f10x_fsmc.c ****   * @{
  37:lib/STM32F10x_StdPeriph_Driver/src/stm32f10x_fsmc.c ****   */ 
  38:lib/STM32F10x_StdPeriph_Driver/src/stm32f10x_fsmc.c **** /**
  39:lib/STM32F10x_StdPeriph_Driver/src/stm32f10x_fsmc.c ****   * @}
  40:lib/STM32F10x_StdPeriph_Driver/src/stm32f10x_fsmc.c ****   */
  41:lib/STM32F10x_StdPeriph_Driver/src/stm32f10x_fsmc.c **** 
  42:lib/STM32F10x_StdPeriph_Driver/src/stm32f10x_fsmc.c **** /** @defgroup FSMC_Private_Defines
  43:lib/STM32F10x_StdPeriph_Driver/src/stm32f10x_fsmc.c ****   * @{
  44:lib/STM32F10x_StdPeriph_Driver/src/stm32f10x_fsmc.c ****   */
  45:lib/STM32F10x_StdPeriph_Driver/src/stm32f10x_fsmc.c **** 
  46:lib/STM32F10x_StdPeriph_Driver/src/stm32f10x_fsmc.c **** /* --------------------- FSMC registers bit mask ---------------------------- */
  47:lib/STM32F10x_StdPeriph_Driver/src/stm32f10x_fsmc.c **** 
  48:lib/STM32F10x_StdPeriph_Driver/src/stm32f10x_fsmc.c **** /* FSMC BCRx Mask */
  49:lib/STM32F10x_StdPeriph_Driver/src/stm32f10x_fsmc.c **** #define BCR_MBKEN_Set                       ((uint32_t)0x00000001)
  50:lib/STM32F10x_StdPeriph_Driver/src/stm32f10x_fsmc.c **** #define BCR_MBKEN_Reset                     ((uint32_t)0x000FFFFE)
  51:lib/STM32F10x_StdPeriph_Driver/src/stm32f10x_fsmc.c **** #define BCR_FACCEN_Set                      ((uint32_t)0x00000040)
  52:lib/STM32F10x_StdPeriph_Driver/src/stm32f10x_fsmc.c **** 
  53:lib/STM32F10x_StdPeriph_Driver/src/stm32f10x_fsmc.c **** /* FSMC PCRx Mask */
  54:lib/STM32F10x_StdPeriph_Driver/src/stm32f10x_fsmc.c **** #define PCR_PBKEN_Set                       ((uint32_t)0x00000004)
  55:lib/STM32F10x_StdPeriph_Driver/src/stm32f10x_fsmc.c **** #define PCR_PBKEN_Reset                     ((uint32_t)0x000FFFFB)
  56:lib/STM32F10x_StdPeriph_Driver/src/stm32f10x_fsmc.c **** #define PCR_ECCEN_Set                       ((uint32_t)0x00000040)
  57:lib/STM32F10x_StdPeriph_Driver/src/stm32f10x_fsmc.c **** #define PCR_ECCEN_Reset                     ((uint32_t)0x000FFFBF)
  58:lib/STM32F10x_StdPeriph_Driver/src/stm32f10x_fsmc.c **** #define PCR_MemoryType_NAND                 ((uint32_t)0x00000008)
  59:lib/STM32F10x_StdPeriph_Driver/src/stm32f10x_fsmc.c **** /**
  60:lib/STM32F10x_StdPeriph_Driver/src/stm32f10x_fsmc.c ****   * @}
  61:lib/STM32F10x_StdPeriph_Driver/src/stm32f10x_fsmc.c ****   */
  62:lib/STM32F10x_StdPeriph_Driver/src/stm32f10x_fsmc.c **** 
  63:lib/STM32F10x_StdPeriph_Driver/src/stm32f10x_fsmc.c **** /** @defgroup FSMC_Private_Macros
  64:lib/STM32F10x_StdPeriph_Driver/src/stm32f10x_fsmc.c ****   * @{
  65:lib/STM32F10x_StdPeriph_Driver/src/stm32f10x_fsmc.c ****   */
  66:lib/STM32F10x_StdPeriph_Driver/src/stm32f10x_fsmc.c **** 
  67:lib/STM32F10x_StdPeriph_Driver/src/stm32f10x_fsmc.c **** /**
  68:lib/STM32F10x_StdPeriph_Driver/src/stm32f10x_fsmc.c ****   * @}
  69:lib/STM32F10x_StdPeriph_Driver/src/stm32f10x_fsmc.c ****   */
  70:lib/STM32F10x_StdPeriph_Driver/src/stm32f10x_fsmc.c **** 
  71:lib/STM32F10x_StdPeriph_Driver/src/stm32f10x_fsmc.c **** /** @defgroup FSMC_Private_Variables
  72:lib/STM32F10x_StdPeriph_Driver/src/stm32f10x_fsmc.c ****   * @{
  73:lib/STM32F10x_StdPeriph_Driver/src/stm32f10x_fsmc.c ****   */
  74:lib/STM32F10x_StdPeriph_Driver/src/stm32f10x_fsmc.c **** 
  75:lib/STM32F10x_StdPeriph_Driver/src/stm32f10x_fsmc.c **** /**
  76:lib/STM32F10x_StdPeriph_Driver/src/stm32f10x_fsmc.c ****   * @}
  77:lib/STM32F10x_StdPeriph_Driver/src/stm32f10x_fsmc.c ****   */
  78:lib/STM32F10x_StdPeriph_Driver/src/stm32f10x_fsmc.c **** 
  79:lib/STM32F10x_StdPeriph_Driver/src/stm32f10x_fsmc.c **** /** @defgroup FSMC_Private_FunctionPrototypes
  80:lib/STM32F10x_StdPeriph_Driver/src/stm32f10x_fsmc.c ****   * @{
  81:lib/STM32F10x_StdPeriph_Driver/src/stm32f10x_fsmc.c ****   */
  82:lib/STM32F10x_StdPeriph_Driver/src/stm32f10x_fsmc.c **** 
  83:lib/STM32F10x_StdPeriph_Driver/src/stm32f10x_fsmc.c **** /**
  84:lib/STM32F10x_StdPeriph_Driver/src/stm32f10x_fsmc.c ****   * @}
  85:lib/STM32F10x_StdPeriph_Driver/src/stm32f10x_fsmc.c ****   */
  86:lib/STM32F10x_StdPeriph_Driver/src/stm32f10x_fsmc.c **** 
  87:lib/STM32F10x_StdPeriph_Driver/src/stm32f10x_fsmc.c **** /** @defgroup FSMC_Private_Functions
  88:lib/STM32F10x_StdPeriph_Driver/src/stm32f10x_fsmc.c ****   * @{
  89:lib/STM32F10x_StdPeriph_Driver/src/stm32f10x_fsmc.c ****   */
  90:lib/STM32F10x_StdPeriph_Driver/src/stm32f10x_fsmc.c **** 
  91:lib/STM32F10x_StdPeriph_Driver/src/stm32f10x_fsmc.c **** /**
  92:lib/STM32F10x_StdPeriph_Driver/src/stm32f10x_fsmc.c ****   * @brief  Deinitializes the FSMC NOR/SRAM Banks registers to their default 
  93:lib/STM32F10x_StdPeriph_Driver/src/stm32f10x_fsmc.c ****   *         reset values.
  94:lib/STM32F10x_StdPeriph_Driver/src/stm32f10x_fsmc.c ****   * @param  FSMC_Bank: specifies the FSMC Bank to be used
  95:lib/STM32F10x_StdPeriph_Driver/src/stm32f10x_fsmc.c ****   *   This parameter can be one of the following values:
  96:lib/STM32F10x_StdPeriph_Driver/src/stm32f10x_fsmc.c ****   *     @arg FSMC_Bank1_NORSRAM1: FSMC Bank1 NOR/SRAM1  
  97:lib/STM32F10x_StdPeriph_Driver/src/stm32f10x_fsmc.c ****   *     @arg FSMC_Bank1_NORSRAM2: FSMC Bank1 NOR/SRAM2 
  98:lib/STM32F10x_StdPeriph_Driver/src/stm32f10x_fsmc.c ****   *     @arg FSMC_Bank1_NORSRAM3: FSMC Bank1 NOR/SRAM3 
  99:lib/STM32F10x_StdPeriph_Driver/src/stm32f10x_fsmc.c ****   *     @arg FSMC_Bank1_NORSRAM4: FSMC Bank1 NOR/SRAM4 
 100:lib/STM32F10x_StdPeriph_Driver/src/stm32f10x_fsmc.c ****   * @retval None
 101:lib/STM32F10x_StdPeriph_Driver/src/stm32f10x_fsmc.c ****   */
 102:lib/STM32F10x_StdPeriph_Driver/src/stm32f10x_fsmc.c **** void FSMC_NORSRAMDeInit(uint32_t FSMC_Bank)
 103:lib/STM32F10x_StdPeriph_Driver/src/stm32f10x_fsmc.c **** {
  27              		.loc 1 103 0
  28              		.cfi_startproc
  29              		@ args = 0, pretend = 0, frame = 0
  30              		@ frame_needed = 0, uses_anonymous_args = 0
  31              		@ link register save eliminated.
  32              	.LVL0:
  33 0000 4FF02043 		mov	r3, #-1610612736
 104:lib/STM32F10x_StdPeriph_Driver/src/stm32f10x_fsmc.c ****   /* Check the parameter */
 105:lib/STM32F10x_StdPeriph_Driver/src/stm32f10x_fsmc.c ****   assert_param(IS_FSMC_NORSRAM_BANK(FSMC_Bank));
 106:lib/STM32F10x_StdPeriph_Driver/src/stm32f10x_fsmc.c ****   
 107:lib/STM32F10x_StdPeriph_Driver/src/stm32f10x_fsmc.c ****   /* FSMC_Bank1_NORSRAM1 */
 108:lib/STM32F10x_StdPeriph_Driver/src/stm32f10x_fsmc.c ****   if(FSMC_Bank == FSMC_Bank1_NORSRAM1)
  34              		.loc 1 108 0
  35 0004 18B9     		cbnz	r0, .L2
 109:lib/STM32F10x_StdPeriph_Driver/src/stm32f10x_fsmc.c ****   {
 110:lib/STM32F10x_StdPeriph_Driver/src/stm32f10x_fsmc.c ****     FSMC_Bank1->BTCR[FSMC_Bank] = 0x000030DB;    
  36              		.loc 1 110 0
  37 0006 43F2DB02 		movw	r2, #12507
  38 000a 1A60     		str	r2, [r3]
  39 000c 03E0     		b	.L3
  40              	.L2:
 111:lib/STM32F10x_StdPeriph_Driver/src/stm32f10x_fsmc.c ****   }
 112:lib/STM32F10x_StdPeriph_Driver/src/stm32f10x_fsmc.c ****   /* FSMC_Bank1_NORSRAM2,  FSMC_Bank1_NORSRAM3 or FSMC_Bank1_NORSRAM4 */
 113:lib/STM32F10x_StdPeriph_Driver/src/stm32f10x_fsmc.c ****   else
 114:lib/STM32F10x_StdPeriph_Driver/src/stm32f10x_fsmc.c ****   {   
 115:lib/STM32F10x_StdPeriph_Driver/src/stm32f10x_fsmc.c ****     FSMC_Bank1->BTCR[FSMC_Bank] = 0x000030D2; 
  41              		.loc 1 115 0
  42 000e 43F2D202 		movw	r2, #12498
  43 0012 43F82020 		str	r2, [r3, r0, lsl #2]
  44              	.L3:
  45 0016 8000     		lsls	r0, r0, #2
  46              	.LVL1:
  47 0018 00F12040 		add	r0, r0, #-1610612736
 116:lib/STM32F10x_StdPeriph_Driver/src/stm32f10x_fsmc.c ****   }
 117:lib/STM32F10x_StdPeriph_Driver/src/stm32f10x_fsmc.c ****   FSMC_Bank1->BTCR[FSMC_Bank + 1] = 0x0FFFFFFF;
  48              		.loc 1 117 0
  49 001c 6FF07043 		mvn	r3, #-268435456
  50 0020 4360     		str	r3, [r0, #4]
 118:lib/STM32F10x_StdPeriph_Driver/src/stm32f10x_fsmc.c ****   FSMC_Bank1E->BWTR[FSMC_Bank] = 0x0FFFFFFF;  
  51              		.loc 1 118 0
  52 0022 C0F80431 		str	r3, [r0, #260]
  53 0026 7047     		bx	lr
  54              		.cfi_endproc
  55              	.LFE29:
  57              		.align	1
  58              		.global	FSMC_NANDDeInit
  59              		.thumb
  60              		.thumb_func
  62              	FSMC_NANDDeInit:
  63              	.LFB30:
 119:lib/STM32F10x_StdPeriph_Driver/src/stm32f10x_fsmc.c **** }
 120:lib/STM32F10x_StdPeriph_Driver/src/stm32f10x_fsmc.c **** 
 121:lib/STM32F10x_StdPeriph_Driver/src/stm32f10x_fsmc.c **** /**
 122:lib/STM32F10x_StdPeriph_Driver/src/stm32f10x_fsmc.c ****   * @brief  Deinitializes the FSMC NAND Banks registers to their default reset values.
 123:lib/STM32F10x_StdPeriph_Driver/src/stm32f10x_fsmc.c ****   * @param  FSMC_Bank: specifies the FSMC Bank to be used
 124:lib/STM32F10x_StdPeriph_Driver/src/stm32f10x_fsmc.c ****   *   This parameter can be one of the following values:
 125:lib/STM32F10x_StdPeriph_Driver/src/stm32f10x_fsmc.c ****   *     @arg FSMC_Bank2_NAND: FSMC Bank2 NAND 
 126:lib/STM32F10x_StdPeriph_Driver/src/stm32f10x_fsmc.c ****   *     @arg FSMC_Bank3_NAND: FSMC Bank3 NAND 
 127:lib/STM32F10x_StdPeriph_Driver/src/stm32f10x_fsmc.c ****   * @retval None
 128:lib/STM32F10x_StdPeriph_Driver/src/stm32f10x_fsmc.c ****   */
 129:lib/STM32F10x_StdPeriph_Driver/src/stm32f10x_fsmc.c **** void FSMC_NANDDeInit(uint32_t FSMC_Bank)
 130:lib/STM32F10x_StdPeriph_Driver/src/stm32f10x_fsmc.c **** {
  64              		.loc 1 130 0
  65              		.cfi_startproc
  66              		@ args = 0, pretend = 0, frame = 0
  67              		@ frame_needed = 0, uses_anonymous_args = 0
  68              		@ link register save eliminated.
  69              	.LVL2:
 131:lib/STM32F10x_StdPeriph_Driver/src/stm32f10x_fsmc.c ****   /* Check the parameter */
 132:lib/STM32F10x_StdPeriph_Driver/src/stm32f10x_fsmc.c ****   assert_param(IS_FSMC_NAND_BANK(FSMC_Bank));
 133:lib/STM32F10x_StdPeriph_Driver/src/stm32f10x_fsmc.c ****   
 134:lib/STM32F10x_StdPeriph_Driver/src/stm32f10x_fsmc.c ****   if(FSMC_Bank == FSMC_Bank2_NAND)
  70              		.loc 1 134 0
  71 0028 1028     		cmp	r0, #16
 135:lib/STM32F10x_StdPeriph_Driver/src/stm32f10x_fsmc.c ****   {
 136:lib/STM32F10x_StdPeriph_Driver/src/stm32f10x_fsmc.c ****     /* Set the FSMC_Bank2 registers to their reset values */
 137:lib/STM32F10x_StdPeriph_Driver/src/stm32f10x_fsmc.c ****     FSMC_Bank2->PCR2 = 0x00000018;
  72              		.loc 1 137 0
  73 002a 0CBF     		ite	eq
  74 002c 054B     		ldreq	r3, .L9
 138:lib/STM32F10x_StdPeriph_Driver/src/stm32f10x_fsmc.c ****     FSMC_Bank2->SR2 = 0x00000040;
 139:lib/STM32F10x_StdPeriph_Driver/src/stm32f10x_fsmc.c ****     FSMC_Bank2->PMEM2 = 0xFCFCFCFC;
 140:lib/STM32F10x_StdPeriph_Driver/src/stm32f10x_fsmc.c ****     FSMC_Bank2->PATT2 = 0xFCFCFCFC;  
 141:lib/STM32F10x_StdPeriph_Driver/src/stm32f10x_fsmc.c ****   }
 142:lib/STM32F10x_StdPeriph_Driver/src/stm32f10x_fsmc.c ****   /* FSMC_Bank3_NAND */  
 143:lib/STM32F10x_StdPeriph_Driver/src/stm32f10x_fsmc.c ****   else
 144:lib/STM32F10x_StdPeriph_Driver/src/stm32f10x_fsmc.c ****   {
 145:lib/STM32F10x_StdPeriph_Driver/src/stm32f10x_fsmc.c ****     /* Set the FSMC_Bank3 registers to their reset values */
 146:lib/STM32F10x_StdPeriph_Driver/src/stm32f10x_fsmc.c ****     FSMC_Bank3->PCR3 = 0x00000018;
  75              		.loc 1 146 0
  76 002e 064B     		ldrne	r3, .L9+4
  77 0030 4022     		movs	r2, #64
  78 0032 1821     		movs	r1, #24
  79 0034 1960     		str	r1, [r3]
 147:lib/STM32F10x_StdPeriph_Driver/src/stm32f10x_fsmc.c ****     FSMC_Bank3->SR3 = 0x00000040;
  80              		.loc 1 147 0
  81 0036 5A60     		str	r2, [r3, #4]
 148:lib/STM32F10x_StdPeriph_Driver/src/stm32f10x_fsmc.c ****     FSMC_Bank3->PMEM3 = 0xFCFCFCFC;
  82              		.loc 1 148 0
  83 0038 4FF0FC32 		mov	r2, #-50529028
  84 003c 9A60     		str	r2, [r3, #8]
 149:lib/STM32F10x_StdPeriph_Driver/src/stm32f10x_fsmc.c ****     FSMC_Bank3->PATT3 = 0xFCFCFCFC; 
  85              		.loc 1 149 0
  86 003e DA60     		str	r2, [r3, #12]
  87 0040 7047     		bx	lr
  88              	.L10:
  89 0042 00BF     		.align	2
  90              	.L9:
  91 0044 600000A0 		.word	-1610612640
  92 0048 800000A0 		.word	-1610612608
  93              		.cfi_endproc
  94              	.LFE30:
  96              		.align	1
  97              		.global	FSMC_PCCARDDeInit
  98              		.thumb
  99              		.thumb_func
 101              	FSMC_PCCARDDeInit:
 102              	.LFB31:
 150:lib/STM32F10x_StdPeriph_Driver/src/stm32f10x_fsmc.c ****   }  
 151:lib/STM32F10x_StdPeriph_Driver/src/stm32f10x_fsmc.c **** }
 152:lib/STM32F10x_StdPeriph_Driver/src/stm32f10x_fsmc.c **** 
 153:lib/STM32F10x_StdPeriph_Driver/src/stm32f10x_fsmc.c **** /**
 154:lib/STM32F10x_StdPeriph_Driver/src/stm32f10x_fsmc.c ****   * @brief  Deinitializes the FSMC PCCARD Bank registers to their default reset values.
 155:lib/STM32F10x_StdPeriph_Driver/src/stm32f10x_fsmc.c ****   * @param  None                       
 156:lib/STM32F10x_StdPeriph_Driver/src/stm32f10x_fsmc.c ****   * @retval None
 157:lib/STM32F10x_StdPeriph_Driver/src/stm32f10x_fsmc.c ****   */
 158:lib/STM32F10x_StdPeriph_Driver/src/stm32f10x_fsmc.c **** void FSMC_PCCARDDeInit(void)
 159:lib/STM32F10x_StdPeriph_Driver/src/stm32f10x_fsmc.c **** {
 103              		.loc 1 159 0
 104              		.cfi_startproc
 105              		@ args = 0, pretend = 0, frame = 0
 106              		@ frame_needed = 0, uses_anonymous_args = 0
 107              		@ link register save eliminated.
 160:lib/STM32F10x_StdPeriph_Driver/src/stm32f10x_fsmc.c ****   /* Set the FSMC_Bank4 registers to their reset values */
 161:lib/STM32F10x_StdPeriph_Driver/src/stm32f10x_fsmc.c ****   FSMC_Bank4->PCR4 = 0x00000018; 
 108              		.loc 1 161 0
 109 004c 054B     		ldr	r3, .L12
 110 004e 1822     		movs	r2, #24
 111 0050 1A60     		str	r2, [r3]
 162:lib/STM32F10x_StdPeriph_Driver/src/stm32f10x_fsmc.c ****   FSMC_Bank4->SR4 = 0x00000000;	
 112              		.loc 1 162 0
 113 0052 0022     		movs	r2, #0
 114 0054 5A60     		str	r2, [r3, #4]
 163:lib/STM32F10x_StdPeriph_Driver/src/stm32f10x_fsmc.c ****   FSMC_Bank4->PMEM4 = 0xFCFCFCFC;
 115              		.loc 1 163 0
 116 0056 4FF0FC32 		mov	r2, #-50529028
 117 005a 9A60     		str	r2, [r3, #8]
 164:lib/STM32F10x_StdPeriph_Driver/src/stm32f10x_fsmc.c ****   FSMC_Bank4->PATT4 = 0xFCFCFCFC;
 118              		.loc 1 164 0
 119 005c DA60     		str	r2, [r3, #12]
 165:lib/STM32F10x_StdPeriph_Driver/src/stm32f10x_fsmc.c ****   FSMC_Bank4->PIO4 = 0xFCFCFCFC;
 120              		.loc 1 165 0
 121 005e 1A61     		str	r2, [r3, #16]
 122 0060 7047     		bx	lr
 123              	.L13:
 124 0062 00BF     		.align	2
 125              	.L12:
 126 0064 A00000A0 		.word	-1610612576
 127              		.cfi_endproc
 128              	.LFE31:
 130              		.align	1
 131              		.global	FSMC_NORSRAMInit
 132              		.thumb
 133              		.thumb_func
 135              	FSMC_NORSRAMInit:
 136              	.LFB32:
 166:lib/STM32F10x_StdPeriph_Driver/src/stm32f10x_fsmc.c **** }
 167:lib/STM32F10x_StdPeriph_Driver/src/stm32f10x_fsmc.c **** 
 168:lib/STM32F10x_StdPeriph_Driver/src/stm32f10x_fsmc.c **** /**
 169:lib/STM32F10x_StdPeriph_Driver/src/stm32f10x_fsmc.c ****   * @brief  Initializes the FSMC NOR/SRAM Banks according to the specified
 170:lib/STM32F10x_StdPeriph_Driver/src/stm32f10x_fsmc.c ****   *         parameters in the FSMC_NORSRAMInitStruct.
 171:lib/STM32F10x_StdPeriph_Driver/src/stm32f10x_fsmc.c ****   * @param  FSMC_NORSRAMInitStruct : pointer to a FSMC_NORSRAMInitTypeDef
 172:lib/STM32F10x_StdPeriph_Driver/src/stm32f10x_fsmc.c ****   *         structure that contains the configuration information for 
 173:lib/STM32F10x_StdPeriph_Driver/src/stm32f10x_fsmc.c ****   *        the FSMC NOR/SRAM specified Banks.                       
 174:lib/STM32F10x_StdPeriph_Driver/src/stm32f10x_fsmc.c ****   * @retval None
 175:lib/STM32F10x_StdPeriph_Driver/src/stm32f10x_fsmc.c ****   */
 176:lib/STM32F10x_StdPeriph_Driver/src/stm32f10x_fsmc.c **** void FSMC_NORSRAMInit(FSMC_NORSRAMInitTypeDef* FSMC_NORSRAMInitStruct)
 177:lib/STM32F10x_StdPeriph_Driver/src/stm32f10x_fsmc.c **** { 
 137              		.loc 1 177 0
 138              		.cfi_startproc
 139              		@ args = 0, pretend = 0, frame = 0
 140              		@ frame_needed = 0, uses_anonymous_args = 0
 141              	.LVL3:
 178:lib/STM32F10x_StdPeriph_Driver/src/stm32f10x_fsmc.c ****   /* Check the parameters */
 179:lib/STM32F10x_StdPeriph_Driver/src/stm32f10x_fsmc.c ****   assert_param(IS_FSMC_NORSRAM_BANK(FSMC_NORSRAMInitStruct->FSMC_Bank));
 180:lib/STM32F10x_StdPeriph_Driver/src/stm32f10x_fsmc.c ****   assert_param(IS_FSMC_MUX(FSMC_NORSRAMInitStruct->FSMC_DataAddressMux));
 181:lib/STM32F10x_StdPeriph_Driver/src/stm32f10x_fsmc.c ****   assert_param(IS_FSMC_MEMORY(FSMC_NORSRAMInitStruct->FSMC_MemoryType));
 182:lib/STM32F10x_StdPeriph_Driver/src/stm32f10x_fsmc.c ****   assert_param(IS_FSMC_MEMORY_WIDTH(FSMC_NORSRAMInitStruct->FSMC_MemoryDataWidth));
 183:lib/STM32F10x_StdPeriph_Driver/src/stm32f10x_fsmc.c ****   assert_param(IS_FSMC_BURSTMODE(FSMC_NORSRAMInitStruct->FSMC_BurstAccessMode));
 184:lib/STM32F10x_StdPeriph_Driver/src/stm32f10x_fsmc.c ****   assert_param(IS_FSMC_ASYNWAIT(FSMC_NORSRAMInitStruct->FSMC_AsynchronousWait));
 185:lib/STM32F10x_StdPeriph_Driver/src/stm32f10x_fsmc.c ****   assert_param(IS_FSMC_WAIT_POLARITY(FSMC_NORSRAMInitStruct->FSMC_WaitSignalPolarity));
 186:lib/STM32F10x_StdPeriph_Driver/src/stm32f10x_fsmc.c ****   assert_param(IS_FSMC_WRAP_MODE(FSMC_NORSRAMInitStruct->FSMC_WrapMode));
 187:lib/STM32F10x_StdPeriph_Driver/src/stm32f10x_fsmc.c ****   assert_param(IS_FSMC_WAIT_SIGNAL_ACTIVE(FSMC_NORSRAMInitStruct->FSMC_WaitSignalActive));
 188:lib/STM32F10x_StdPeriph_Driver/src/stm32f10x_fsmc.c ****   assert_param(IS_FSMC_WRITE_OPERATION(FSMC_NORSRAMInitStruct->FSMC_WriteOperation));
 189:lib/STM32F10x_StdPeriph_Driver/src/stm32f10x_fsmc.c ****   assert_param(IS_FSMC_WAITE_SIGNAL(FSMC_NORSRAMInitStruct->FSMC_WaitSignal));
 190:lib/STM32F10x_StdPeriph_Driver/src/stm32f10x_fsmc.c ****   assert_param(IS_FSMC_EXTENDED_MODE(FSMC_NORSRAMInitStruct->FSMC_ExtendedMode));
 191:lib/STM32F10x_StdPeriph_Driver/src/stm32f10x_fsmc.c ****   assert_param(IS_FSMC_WRITE_BURST(FSMC_NORSRAMInitStruct->FSMC_WriteBurst));  
 192:lib/STM32F10x_StdPeriph_Driver/src/stm32f10x_fsmc.c ****   assert_param(IS_FSMC_ADDRESS_SETUP_TIME(FSMC_NORSRAMInitStruct->FSMC_ReadWriteTimingStruct->FSMC_
 193:lib/STM32F10x_StdPeriph_Driver/src/stm32f10x_fsmc.c ****   assert_param(IS_FSMC_ADDRESS_HOLD_TIME(FSMC_NORSRAMInitStruct->FSMC_ReadWriteTimingStruct->FSMC_A
 194:lib/STM32F10x_StdPeriph_Driver/src/stm32f10x_fsmc.c ****   assert_param(IS_FSMC_DATASETUP_TIME(FSMC_NORSRAMInitStruct->FSMC_ReadWriteTimingStruct->FSMC_Data
 195:lib/STM32F10x_StdPeriph_Driver/src/stm32f10x_fsmc.c ****   assert_param(IS_FSMC_TURNAROUND_TIME(FSMC_NORSRAMInitStruct->FSMC_ReadWriteTimingStruct->FSMC_Bus
 196:lib/STM32F10x_StdPeriph_Driver/src/stm32f10x_fsmc.c ****   assert_param(IS_FSMC_CLK_DIV(FSMC_NORSRAMInitStruct->FSMC_ReadWriteTimingStruct->FSMC_CLKDivision
 197:lib/STM32F10x_StdPeriph_Driver/src/stm32f10x_fsmc.c ****   assert_param(IS_FSMC_DATA_LATENCY(FSMC_NORSRAMInitStruct->FSMC_ReadWriteTimingStruct->FSMC_DataLa
 198:lib/STM32F10x_StdPeriph_Driver/src/stm32f10x_fsmc.c ****   assert_param(IS_FSMC_ACCESS_MODE(FSMC_NORSRAMInitStruct->FSMC_ReadWriteTimingStruct->FSMC_AccessM
 199:lib/STM32F10x_StdPeriph_Driver/src/stm32f10x_fsmc.c ****   
 200:lib/STM32F10x_StdPeriph_Driver/src/stm32f10x_fsmc.c ****   /* Bank1 NOR/SRAM control register configuration */ 
 201:lib/STM32F10x_StdPeriph_Driver/src/stm32f10x_fsmc.c ****   FSMC_Bank1->BTCR[FSMC_NORSRAMInitStruct->FSMC_Bank] = 
 202:lib/STM32F10x_StdPeriph_Driver/src/stm32f10x_fsmc.c ****             (uint32_t)FSMC_NORSRAMInitStruct->FSMC_DataAddressMux |
 203:lib/STM32F10x_StdPeriph_Driver/src/stm32f10x_fsmc.c ****             FSMC_NORSRAMInitStruct->FSMC_MemoryType |
 142              		.loc 1 203 0
 143 0068 8168     		ldr	r1, [r0, #8]
 204:lib/STM32F10x_StdPeriph_Driver/src/stm32f10x_fsmc.c ****             FSMC_NORSRAMInitStruct->FSMC_MemoryDataWidth |
 205:lib/STM32F10x_StdPeriph_Driver/src/stm32f10x_fsmc.c ****             FSMC_NORSRAMInitStruct->FSMC_BurstAccessMode |
 206:lib/STM32F10x_StdPeriph_Driver/src/stm32f10x_fsmc.c ****             FSMC_NORSRAMInitStruct->FSMC_AsynchronousWait |
 207:lib/STM32F10x_StdPeriph_Driver/src/stm32f10x_fsmc.c ****             FSMC_NORSRAMInitStruct->FSMC_WaitSignalPolarity |
 208:lib/STM32F10x_StdPeriph_Driver/src/stm32f10x_fsmc.c ****             FSMC_NORSRAMInitStruct->FSMC_WrapMode |
 209:lib/STM32F10x_StdPeriph_Driver/src/stm32f10x_fsmc.c ****             FSMC_NORSRAMInitStruct->FSMC_WaitSignalActive |
 210:lib/STM32F10x_StdPeriph_Driver/src/stm32f10x_fsmc.c ****             FSMC_NORSRAMInitStruct->FSMC_WriteOperation |
 211:lib/STM32F10x_StdPeriph_Driver/src/stm32f10x_fsmc.c ****             FSMC_NORSRAMInitStruct->FSMC_WaitSignal |
 212:lib/STM32F10x_StdPeriph_Driver/src/stm32f10x_fsmc.c ****             FSMC_NORSRAMInitStruct->FSMC_ExtendedMode |
 144              		.loc 1 212 0
 145 006a 4368     		ldr	r3, [r0, #4]
 177:lib/STM32F10x_StdPeriph_Driver/src/stm32f10x_fsmc.c ****   /* Check the parameters */
 146              		.loc 1 177 0
 147 006c 30B5     		push	{r4, r5, lr}
 148              	.LCFI0:
 149              		.cfi_def_cfa_offset 12
 150              		.cfi_offset 4, -12
 151              		.cfi_offset 5, -8
 152              		.cfi_offset 14, -4
 153              		.loc 1 212 0
 154 006e 41EA0302 		orr	r2, r1, r3
 155 0072 C368     		ldr	r3, [r0, #12]
 156 0074 C46A     		ldr	r4, [r0, #44]
 157 0076 1A43     		orrs	r2, r2, r3
 158 0078 0369     		ldr	r3, [r0, #16]
 213:lib/STM32F10x_StdPeriph_Driver/src/stm32f10x_fsmc.c ****             FSMC_NORSRAMInitStruct->FSMC_WriteBurst;
 214:lib/STM32F10x_StdPeriph_Driver/src/stm32f10x_fsmc.c **** 
 215:lib/STM32F10x_StdPeriph_Driver/src/stm32f10x_fsmc.c ****   if(FSMC_NORSRAMInitStruct->FSMC_MemoryType == FSMC_MemoryType_NOR)
 159              		.loc 1 215 0
 160 007a 0829     		cmp	r1, #8
 212:lib/STM32F10x_StdPeriph_Driver/src/stm32f10x_fsmc.c ****             FSMC_NORSRAMInitStruct->FSMC_WriteBurst;
 161              		.loc 1 212 0
 162 007c 42EA0302 		orr	r2, r2, r3
 163 0080 4369     		ldr	r3, [r0, #20]
 216:lib/STM32F10x_StdPeriph_Driver/src/stm32f10x_fsmc.c ****   {
 217:lib/STM32F10x_StdPeriph_Driver/src/stm32f10x_fsmc.c ****     FSMC_Bank1->BTCR[FSMC_NORSRAMInitStruct->FSMC_Bank] |= (uint32_t)BCR_FACCEN_Set;
 218:lib/STM32F10x_StdPeriph_Driver/src/stm32f10x_fsmc.c ****   }
 219:lib/STM32F10x_StdPeriph_Driver/src/stm32f10x_fsmc.c ****   
 220:lib/STM32F10x_StdPeriph_Driver/src/stm32f10x_fsmc.c ****   /* Bank1 NOR/SRAM timing register configuration */
 221:lib/STM32F10x_StdPeriph_Driver/src/stm32f10x_fsmc.c ****   FSMC_Bank1->BTCR[FSMC_NORSRAMInitStruct->FSMC_Bank+1] = 
 222:lib/STM32F10x_StdPeriph_Driver/src/stm32f10x_fsmc.c ****             (uint32_t)FSMC_NORSRAMInitStruct->FSMC_ReadWriteTimingStruct->FSMC_AddressSetupTime |
 164              		.loc 1 222 0
 165 0082 416B     		ldr	r1, [r0, #52]
 212:lib/STM32F10x_StdPeriph_Driver/src/stm32f10x_fsmc.c ****             FSMC_NORSRAMInitStruct->FSMC_WriteBurst;
 166              		.loc 1 212 0
 167 0084 42EA0302 		orr	r2, r2, r3
 168 0088 8369     		ldr	r3, [r0, #24]
 223:lib/STM32F10x_StdPeriph_Driver/src/stm32f10x_fsmc.c ****             (FSMC_NORSRAMInitStruct->FSMC_ReadWriteTimingStruct->FSMC_AddressHoldTime << 4) |
 224:lib/STM32F10x_StdPeriph_Driver/src/stm32f10x_fsmc.c ****             (FSMC_NORSRAMInitStruct->FSMC_ReadWriteTimingStruct->FSMC_DataSetupTime << 8) |
 225:lib/STM32F10x_StdPeriph_Driver/src/stm32f10x_fsmc.c ****             (FSMC_NORSRAMInitStruct->FSMC_ReadWriteTimingStruct->FSMC_BusTurnAroundDuration << 16) 
 226:lib/STM32F10x_StdPeriph_Driver/src/stm32f10x_fsmc.c ****             (FSMC_NORSRAMInitStruct->FSMC_ReadWriteTimingStruct->FSMC_CLKDivision << 20) |
 227:lib/STM32F10x_StdPeriph_Driver/src/stm32f10x_fsmc.c ****             (FSMC_NORSRAMInitStruct->FSMC_ReadWriteTimingStruct->FSMC_DataLatency << 24) |
 169              		.loc 1 227 0
 170 008a 0D68     		ldr	r5, [r1]
 212:lib/STM32F10x_StdPeriph_Driver/src/stm32f10x_fsmc.c ****             FSMC_NORSRAMInitStruct->FSMC_WriteBurst;
 171              		.loc 1 212 0
 172 008c 42EA0302 		orr	r2, r2, r3
 173 0090 C369     		ldr	r3, [r0, #28]
 174 0092 42EA0302 		orr	r2, r2, r3
 175 0096 036A     		ldr	r3, [r0, #32]
 176 0098 42EA0302 		orr	r2, r2, r3
 177 009c 436A     		ldr	r3, [r0, #36]
 178 009e 42EA0302 		orr	r2, r2, r3
 179 00a2 836A     		ldr	r3, [r0, #40]
 180 00a4 43EA0203 		orr	r3, r3, r2
 181 00a8 026B     		ldr	r2, [r0, #48]
 182 00aa 43EA0403 		orr	r3, r3, r4
 183 00ae 43EA0203 		orr	r3, r3, r2
 184 00b2 0268     		ldr	r2, [r0]
 185 00b4 4FEA8202 		lsl	r2, r2, #2
 186 00b8 02F12042 		add	r2, r2, #-1610612736
 201:lib/STM32F10x_StdPeriph_Driver/src/stm32f10x_fsmc.c ****             (uint32_t)FSMC_NORSRAMInitStruct->FSMC_DataAddressMux |
 187              		.loc 1 201 0
 188 00bc 1360     		str	r3, [r2]
 217:lib/STM32F10x_StdPeriph_Driver/src/stm32f10x_fsmc.c ****   }
 189              		.loc 1 217 0
 190 00be 02BF     		ittt	eq
 191 00c0 1368     		ldreq	r3, [r2]
 192 00c2 43F04003 		orreq	r3, r3, #64
 193 00c6 1360     		streq	r3, [r2]
 194              		.loc 1 227 0
 195 00c8 8B69     		ldr	r3, [r1, #24]
 228:lib/STM32F10x_StdPeriph_Driver/src/stm32f10x_fsmc.c ****              FSMC_NORSRAMInitStruct->FSMC_ReadWriteTimingStruct->FSMC_AccessMode;
 229:lib/STM32F10x_StdPeriph_Driver/src/stm32f10x_fsmc.c ****             
 230:lib/STM32F10x_StdPeriph_Driver/src/stm32f10x_fsmc.c ****     
 231:lib/STM32F10x_StdPeriph_Driver/src/stm32f10x_fsmc.c ****   /* Bank1 NOR/SRAM timing register for write configuration, if extended mode is used */
 232:lib/STM32F10x_StdPeriph_Driver/src/stm32f10x_fsmc.c ****   if(FSMC_NORSRAMInitStruct->FSMC_ExtendedMode == FSMC_ExtendedMode_Enable)
 196              		.loc 1 232 0
 197 00ca B4F5804F 		cmp	r4, #16384
 227:lib/STM32F10x_StdPeriph_Driver/src/stm32f10x_fsmc.c ****              FSMC_NORSRAMInitStruct->FSMC_ReadWriteTimingStruct->FSMC_AccessMode;
 198              		.loc 1 227 0
 199 00ce 43EA0503 		orr	r3, r3, r5
 200 00d2 4D68     		ldr	r5, [r1, #4]
 201 00d4 43EA0513 		orr	r3, r3, r5, lsl #4
 202 00d8 8D68     		ldr	r5, [r1, #8]
 203 00da 43EA0523 		orr	r3, r3, r5, lsl #8
 204 00de CD68     		ldr	r5, [r1, #12]
 205 00e0 43EA0543 		orr	r3, r3, r5, lsl #16
 206 00e4 0D69     		ldr	r5, [r1, #16]
 207 00e6 4969     		ldr	r1, [r1, #20]
 208 00e8 43EA0553 		orr	r3, r3, r5, lsl #20
 209 00ec 43EA0163 		orr	r3, r3, r1, lsl #24
 221:lib/STM32F10x_StdPeriph_Driver/src/stm32f10x_fsmc.c ****             (uint32_t)FSMC_NORSRAMInitStruct->FSMC_ReadWriteTimingStruct->FSMC_AddressSetupTime |
 210              		.loc 1 221 0
 211 00f0 5360     		str	r3, [r2, #4]
 212              		.loc 1 232 0
 213 00f2 10D1     		bne	.L16
 233:lib/STM32F10x_StdPeriph_Driver/src/stm32f10x_fsmc.c ****   {
 234:lib/STM32F10x_StdPeriph_Driver/src/stm32f10x_fsmc.c ****     assert_param(IS_FSMC_ADDRESS_SETUP_TIME(FSMC_NORSRAMInitStruct->FSMC_WriteTimingStruct->FSMC_Ad
 235:lib/STM32F10x_StdPeriph_Driver/src/stm32f10x_fsmc.c ****     assert_param(IS_FSMC_ADDRESS_HOLD_TIME(FSMC_NORSRAMInitStruct->FSMC_WriteTimingStruct->FSMC_Add
 236:lib/STM32F10x_StdPeriph_Driver/src/stm32f10x_fsmc.c ****     assert_param(IS_FSMC_DATASETUP_TIME(FSMC_NORSRAMInitStruct->FSMC_WriteTimingStruct->FSMC_DataSe
 237:lib/STM32F10x_StdPeriph_Driver/src/stm32f10x_fsmc.c ****     assert_param(IS_FSMC_CLK_DIV(FSMC_NORSRAMInitStruct->FSMC_WriteTimingStruct->FSMC_CLKDivision))
 238:lib/STM32F10x_StdPeriph_Driver/src/stm32f10x_fsmc.c ****     assert_param(IS_FSMC_DATA_LATENCY(FSMC_NORSRAMInitStruct->FSMC_WriteTimingStruct->FSMC_DataLate
 239:lib/STM32F10x_StdPeriph_Driver/src/stm32f10x_fsmc.c ****     assert_param(IS_FSMC_ACCESS_MODE(FSMC_NORSRAMInitStruct->FSMC_WriteTimingStruct->FSMC_AccessMod
 240:lib/STM32F10x_StdPeriph_Driver/src/stm32f10x_fsmc.c ****     FSMC_Bank1E->BWTR[FSMC_NORSRAMInitStruct->FSMC_Bank] = 
 241:lib/STM32F10x_StdPeriph_Driver/src/stm32f10x_fsmc.c ****               (uint32_t)FSMC_NORSRAMInitStruct->FSMC_WriteTimingStruct->FSMC_AddressSetupTime |
 214              		.loc 1 241 0
 215 00f4 816B     		ldr	r1, [r0, #56]
 242:lib/STM32F10x_StdPeriph_Driver/src/stm32f10x_fsmc.c ****               (FSMC_NORSRAMInitStruct->FSMC_WriteTimingStruct->FSMC_AddressHoldTime << 4 )|
 243:lib/STM32F10x_StdPeriph_Driver/src/stm32f10x_fsmc.c ****               (FSMC_NORSRAMInitStruct->FSMC_WriteTimingStruct->FSMC_DataSetupTime << 8) |
 244:lib/STM32F10x_StdPeriph_Driver/src/stm32f10x_fsmc.c ****               (FSMC_NORSRAMInitStruct->FSMC_WriteTimingStruct->FSMC_CLKDivision << 20) |
 245:lib/STM32F10x_StdPeriph_Driver/src/stm32f10x_fsmc.c ****               (FSMC_NORSRAMInitStruct->FSMC_WriteTimingStruct->FSMC_DataLatency << 24) |
 216              		.loc 1 245 0
 217 00f6 0868     		ldr	r0, [r1]
 218              	.LVL4:
 219 00f8 8B69     		ldr	r3, [r1, #24]
 220 00fa 0343     		orrs	r3, r3, r0
 221 00fc 4868     		ldr	r0, [r1, #4]
 222 00fe 43EA0013 		orr	r3, r3, r0, lsl #4
 223 0102 8868     		ldr	r0, [r1, #8]
 224 0104 43EA0023 		orr	r3, r3, r0, lsl #8
 225 0108 0869     		ldr	r0, [r1, #16]
 226 010a 4969     		ldr	r1, [r1, #20]
 227 010c 43EA0053 		orr	r3, r3, r0, lsl #20
 228 0110 43EA0163 		orr	r3, r3, r1, lsl #24
 229 0114 01E0     		b	.L18
 230              	.LVL5:
 231              	.L16:
 246:lib/STM32F10x_StdPeriph_Driver/src/stm32f10x_fsmc.c ****                FSMC_NORSRAMInitStruct->FSMC_WriteTimingStruct->FSMC_AccessMode;
 247:lib/STM32F10x_StdPeriph_Driver/src/stm32f10x_fsmc.c ****   }
 248:lib/STM32F10x_StdPeriph_Driver/src/stm32f10x_fsmc.c ****   else
 249:lib/STM32F10x_StdPeriph_Driver/src/stm32f10x_fsmc.c ****   {
 250:lib/STM32F10x_StdPeriph_Driver/src/stm32f10x_fsmc.c ****     FSMC_Bank1E->BWTR[FSMC_NORSRAMInitStruct->FSMC_Bank] = 0x0FFFFFFF;
 232              		.loc 1 250 0
 233 0116 6FF07043 		mvn	r3, #-268435456
 234              	.LVL6:
 235              	.L18:
 236 011a C2F80431 		str	r3, [r2, #260]
 237 011e 30BD     		pop	{r4, r5, pc}
 238              		.cfi_endproc
 239              	.LFE32:
 241              		.align	1
 242              		.global	FSMC_NANDInit
 243              		.thumb
 244              		.thumb_func
 246              	FSMC_NANDInit:
 247              	.LFB33:
 251:lib/STM32F10x_StdPeriph_Driver/src/stm32f10x_fsmc.c ****   }
 252:lib/STM32F10x_StdPeriph_Driver/src/stm32f10x_fsmc.c **** }
 253:lib/STM32F10x_StdPeriph_Driver/src/stm32f10x_fsmc.c **** 
 254:lib/STM32F10x_StdPeriph_Driver/src/stm32f10x_fsmc.c **** /**
 255:lib/STM32F10x_StdPeriph_Driver/src/stm32f10x_fsmc.c ****   * @brief  Initializes the FSMC NAND Banks according to the specified 
 256:lib/STM32F10x_StdPeriph_Driver/src/stm32f10x_fsmc.c ****   *         parameters in the FSMC_NANDInitStruct.
 257:lib/STM32F10x_StdPeriph_Driver/src/stm32f10x_fsmc.c ****   * @param  FSMC_NANDInitStruct : pointer to a FSMC_NANDInitTypeDef 
 258:lib/STM32F10x_StdPeriph_Driver/src/stm32f10x_fsmc.c ****   *         structure that contains the configuration information for the FSMC 
 259:lib/STM32F10x_StdPeriph_Driver/src/stm32f10x_fsmc.c ****   *         NAND specified Banks.                       
 260:lib/STM32F10x_StdPeriph_Driver/src/stm32f10x_fsmc.c ****   * @retval None
 261:lib/STM32F10x_StdPeriph_Driver/src/stm32f10x_fsmc.c ****   */
 262:lib/STM32F10x_StdPeriph_Driver/src/stm32f10x_fsmc.c **** void FSMC_NANDInit(FSMC_NANDInitTypeDef* FSMC_NANDInitStruct)
 263:lib/STM32F10x_StdPeriph_Driver/src/stm32f10x_fsmc.c **** {
 248              		.loc 1 263 0
 249              		.cfi_startproc
 250              		@ args = 0, pretend = 0, frame = 0
 251              		@ frame_needed = 0, uses_anonymous_args = 0
 252              	.LVL7:
 264:lib/STM32F10x_StdPeriph_Driver/src/stm32f10x_fsmc.c ****   uint32_t tmppcr = 0x00000000, tmppmem = 0x00000000, tmppatt = 0x00000000; 
 265:lib/STM32F10x_StdPeriph_Driver/src/stm32f10x_fsmc.c ****     
 266:lib/STM32F10x_StdPeriph_Driver/src/stm32f10x_fsmc.c ****   /* Check the parameters */
 267:lib/STM32F10x_StdPeriph_Driver/src/stm32f10x_fsmc.c ****   assert_param( IS_FSMC_NAND_BANK(FSMC_NANDInitStruct->FSMC_Bank));
 268:lib/STM32F10x_StdPeriph_Driver/src/stm32f10x_fsmc.c ****   assert_param( IS_FSMC_WAIT_FEATURE(FSMC_NANDInitStruct->FSMC_Waitfeature));
 269:lib/STM32F10x_StdPeriph_Driver/src/stm32f10x_fsmc.c ****   assert_param( IS_FSMC_MEMORY_WIDTH(FSMC_NANDInitStruct->FSMC_MemoryDataWidth));
 270:lib/STM32F10x_StdPeriph_Driver/src/stm32f10x_fsmc.c ****   assert_param( IS_FSMC_ECC_STATE(FSMC_NANDInitStruct->FSMC_ECC));
 271:lib/STM32F10x_StdPeriph_Driver/src/stm32f10x_fsmc.c ****   assert_param( IS_FSMC_ECCPAGE_SIZE(FSMC_NANDInitStruct->FSMC_ECCPageSize));
 272:lib/STM32F10x_StdPeriph_Driver/src/stm32f10x_fsmc.c ****   assert_param( IS_FSMC_TCLR_TIME(FSMC_NANDInitStruct->FSMC_TCLRSetupTime));
 273:lib/STM32F10x_StdPeriph_Driver/src/stm32f10x_fsmc.c ****   assert_param( IS_FSMC_TAR_TIME(FSMC_NANDInitStruct->FSMC_TARSetupTime));
 274:lib/STM32F10x_StdPeriph_Driver/src/stm32f10x_fsmc.c ****   assert_param(IS_FSMC_SETUP_TIME(FSMC_NANDInitStruct->FSMC_CommonSpaceTimingStruct->FSMC_SetupTime
 275:lib/STM32F10x_StdPeriph_Driver/src/stm32f10x_fsmc.c ****   assert_param(IS_FSMC_WAIT_TIME(FSMC_NANDInitStruct->FSMC_CommonSpaceTimingStruct->FSMC_WaitSetupT
 276:lib/STM32F10x_StdPeriph_Driver/src/stm32f10x_fsmc.c ****   assert_param(IS_FSMC_HOLD_TIME(FSMC_NANDInitStruct->FSMC_CommonSpaceTimingStruct->FSMC_HoldSetupT
 277:lib/STM32F10x_StdPeriph_Driver/src/stm32f10x_fsmc.c ****   assert_param(IS_FSMC_HIZ_TIME(FSMC_NANDInitStruct->FSMC_CommonSpaceTimingStruct->FSMC_HiZSetupTim
 278:lib/STM32F10x_StdPeriph_Driver/src/stm32f10x_fsmc.c ****   assert_param(IS_FSMC_SETUP_TIME(FSMC_NANDInitStruct->FSMC_AttributeSpaceTimingStruct->FSMC_SetupT
 279:lib/STM32F10x_StdPeriph_Driver/src/stm32f10x_fsmc.c ****   assert_param(IS_FSMC_WAIT_TIME(FSMC_NANDInitStruct->FSMC_AttributeSpaceTimingStruct->FSMC_WaitSet
 280:lib/STM32F10x_StdPeriph_Driver/src/stm32f10x_fsmc.c ****   assert_param(IS_FSMC_HOLD_TIME(FSMC_NANDInitStruct->FSMC_AttributeSpaceTimingStruct->FSMC_HoldSet
 281:lib/STM32F10x_StdPeriph_Driver/src/stm32f10x_fsmc.c ****   assert_param(IS_FSMC_HIZ_TIME(FSMC_NANDInitStruct->FSMC_AttributeSpaceTimingStruct->FSMC_HiZSetup
 282:lib/STM32F10x_StdPeriph_Driver/src/stm32f10x_fsmc.c ****   
 283:lib/STM32F10x_StdPeriph_Driver/src/stm32f10x_fsmc.c ****   /* Set the tmppcr value according to FSMC_NANDInitStruct parameters */
 284:lib/STM32F10x_StdPeriph_Driver/src/stm32f10x_fsmc.c ****   tmppcr = (uint32_t)FSMC_NANDInitStruct->FSMC_Waitfeature |
 253              		.loc 1 284 0
 254 0120 4268     		ldr	r2, [r0, #4]
 255 0122 8368     		ldr	r3, [r0, #8]
 263:lib/STM32F10x_StdPeriph_Driver/src/stm32f10x_fsmc.c ****   uint32_t tmppcr = 0x00000000, tmppmem = 0x00000000, tmppatt = 0x00000000; 
 256              		.loc 1 263 0
 257 0124 30B5     		push	{r4, r5, lr}
 258              	.LCFI1:
 259              		.cfi_def_cfa_offset 12
 260              		.cfi_offset 4, -12
 261              		.cfi_offset 5, -8
 262              		.cfi_offset 14, -4
 263              		.loc 1 284 0
 264 0126 1343     		orrs	r3, r3, r2
 265 0128 C268     		ldr	r2, [r0, #12]
 266 012a 43F00803 		orr	r3, r3, #8
 267 012e 1A43     		orrs	r2, r2, r3
 268 0130 0369     		ldr	r3, [r0, #16]
 285:lib/STM32F10x_StdPeriph_Driver/src/stm32f10x_fsmc.c ****             PCR_MemoryType_NAND |
 286:lib/STM32F10x_StdPeriph_Driver/src/stm32f10x_fsmc.c ****             FSMC_NANDInitStruct->FSMC_MemoryDataWidth |
 287:lib/STM32F10x_StdPeriph_Driver/src/stm32f10x_fsmc.c ****             FSMC_NANDInitStruct->FSMC_ECC |
 288:lib/STM32F10x_StdPeriph_Driver/src/stm32f10x_fsmc.c ****             FSMC_NANDInitStruct->FSMC_ECCPageSize |
 289:lib/STM32F10x_StdPeriph_Driver/src/stm32f10x_fsmc.c ****             (FSMC_NANDInitStruct->FSMC_TCLRSetupTime << 9 )|
 290:lib/STM32F10x_StdPeriph_Driver/src/stm32f10x_fsmc.c ****             (FSMC_NANDInitStruct->FSMC_TARSetupTime << 13);
 291:lib/STM32F10x_StdPeriph_Driver/src/stm32f10x_fsmc.c ****             
 292:lib/STM32F10x_StdPeriph_Driver/src/stm32f10x_fsmc.c ****   /* Set tmppmem value according to FSMC_CommonSpaceTimingStructure parameters */
 293:lib/STM32F10x_StdPeriph_Driver/src/stm32f10x_fsmc.c ****   tmppmem = (uint32_t)FSMC_NANDInitStruct->FSMC_CommonSpaceTimingStruct->FSMC_SetupTime |
 269              		.loc 1 293 0
 270 0132 C469     		ldr	r4, [r0, #28]
 284:lib/STM32F10x_StdPeriph_Driver/src/stm32f10x_fsmc.c ****             PCR_MemoryType_NAND |
 271              		.loc 1 284 0
 272 0134 1343     		orrs	r3, r3, r2
 273 0136 4269     		ldr	r2, [r0, #20]
 274              		.loc 1 293 0
 275 0138 6168     		ldr	r1, [r4, #4]
 284:lib/STM32F10x_StdPeriph_Driver/src/stm32f10x_fsmc.c ****             PCR_MemoryType_NAND |
 276              		.loc 1 284 0
 277 013a 43EA4223 		orr	r3, r3, r2, lsl #9
 278 013e 8269     		ldr	r2, [r0, #24]
 294:lib/STM32F10x_StdPeriph_Driver/src/stm32f10x_fsmc.c ****             (FSMC_NANDInitStruct->FSMC_CommonSpaceTimingStruct->FSMC_WaitSetupTime << 8) |
 295:lib/STM32F10x_StdPeriph_Driver/src/stm32f10x_fsmc.c ****             (FSMC_NANDInitStruct->FSMC_CommonSpaceTimingStruct->FSMC_HoldSetupTime << 16)|
 296:lib/STM32F10x_StdPeriph_Driver/src/stm32f10x_fsmc.c ****             (FSMC_NANDInitStruct->FSMC_CommonSpaceTimingStruct->FSMC_HiZSetupTime << 24); 
 297:lib/STM32F10x_StdPeriph_Driver/src/stm32f10x_fsmc.c ****             
 298:lib/STM32F10x_StdPeriph_Driver/src/stm32f10x_fsmc.c ****   /* Set tmppatt value according to FSMC_AttributeSpaceTimingStructure parameters */
 299:lib/STM32F10x_StdPeriph_Driver/src/stm32f10x_fsmc.c ****   tmppatt = (uint32_t)FSMC_NANDInitStruct->FSMC_AttributeSpaceTimingStruct->FSMC_SetupTime |
 279              		.loc 1 299 0
 280 0140 056A     		ldr	r5, [r0, #32]
 284:lib/STM32F10x_StdPeriph_Driver/src/stm32f10x_fsmc.c ****             PCR_MemoryType_NAND |
 281              		.loc 1 284 0
 282 0142 43EA4233 		orr	r3, r3, r2, lsl #13
 283              	.LVL8:
 293:lib/STM32F10x_StdPeriph_Driver/src/stm32f10x_fsmc.c ****             (FSMC_NANDInitStruct->FSMC_CommonSpaceTimingStruct->FSMC_WaitSetupTime << 8) |
 284              		.loc 1 293 0
 285 0146 A268     		ldr	r2, [r4, #8]
 300:lib/STM32F10x_StdPeriph_Driver/src/stm32f10x_fsmc.c ****             (FSMC_NANDInitStruct->FSMC_AttributeSpaceTimingStruct->FSMC_WaitSetupTime << 8) |
 301:lib/STM32F10x_StdPeriph_Driver/src/stm32f10x_fsmc.c ****             (FSMC_NANDInitStruct->FSMC_AttributeSpaceTimingStruct->FSMC_HoldSetupTime << 16)|
 302:lib/STM32F10x_StdPeriph_Driver/src/stm32f10x_fsmc.c ****             (FSMC_NANDInitStruct->FSMC_AttributeSpaceTimingStruct->FSMC_HiZSetupTime << 24);
 303:lib/STM32F10x_StdPeriph_Driver/src/stm32f10x_fsmc.c ****   
 304:lib/STM32F10x_StdPeriph_Driver/src/stm32f10x_fsmc.c ****   if(FSMC_NANDInitStruct->FSMC_Bank == FSMC_Bank2_NAND)
 286              		.loc 1 304 0
 287 0148 0068     		ldr	r0, [r0]
 288              	.LVL9:
 293:lib/STM32F10x_StdPeriph_Driver/src/stm32f10x_fsmc.c ****             (FSMC_NANDInitStruct->FSMC_CommonSpaceTimingStruct->FSMC_WaitSetupTime << 8) |
 289              		.loc 1 293 0
 290 014a 1204     		lsls	r2, r2, #16
 291 014c 42EA0122 		orr	r2, r2, r1, lsl #8
 292 0150 2168     		ldr	r1, [r4]
 293              		.loc 1 304 0
 294 0152 1028     		cmp	r0, #16
 293:lib/STM32F10x_StdPeriph_Driver/src/stm32f10x_fsmc.c ****             (FSMC_NANDInitStruct->FSMC_CommonSpaceTimingStruct->FSMC_WaitSetupTime << 8) |
 295              		.loc 1 293 0
 296 0154 42EA0102 		orr	r2, r2, r1
 297 0158 E168     		ldr	r1, [r4, #12]
 299:lib/STM32F10x_StdPeriph_Driver/src/stm32f10x_fsmc.c ****             (FSMC_NANDInitStruct->FSMC_AttributeSpaceTimingStruct->FSMC_WaitSetupTime << 8) |
 298              		.loc 1 299 0
 299 015a AC68     		ldr	r4, [r5, #8]
 293:lib/STM32F10x_StdPeriph_Driver/src/stm32f10x_fsmc.c ****             (FSMC_NANDInitStruct->FSMC_CommonSpaceTimingStruct->FSMC_WaitSetupTime << 8) |
 300              		.loc 1 293 0
 301 015c 42EA0161 		orr	r1, r2, r1, lsl #24
 302              	.LVL10:
 299:lib/STM32F10x_StdPeriph_Driver/src/stm32f10x_fsmc.c ****             (FSMC_NANDInitStruct->FSMC_AttributeSpaceTimingStruct->FSMC_WaitSetupTime << 8) |
 303              		.loc 1 299 0
 304 0160 6A68     		ldr	r2, [r5, #4]
 305 0162 4FEA0444 		lsl	r4, r4, #16
 306 0166 44EA0224 		orr	r4, r4, r2, lsl #8
 307 016a 2A68     		ldr	r2, [r5]
 305:lib/STM32F10x_StdPeriph_Driver/src/stm32f10x_fsmc.c ****   {
 306:lib/STM32F10x_StdPeriph_Driver/src/stm32f10x_fsmc.c ****     /* FSMC_Bank2_NAND registers configuration */
 307:lib/STM32F10x_StdPeriph_Driver/src/stm32f10x_fsmc.c ****     FSMC_Bank2->PCR2 = tmppcr;
 308              		.loc 1 307 0
 309 016c 08BF     		it	eq
 310 016e 0648     		ldreq	r0, .L23
 299:lib/STM32F10x_StdPeriph_Driver/src/stm32f10x_fsmc.c ****             (FSMC_NANDInitStruct->FSMC_AttributeSpaceTimingStruct->FSMC_WaitSetupTime << 8) |
 311              		.loc 1 299 0
 312 0170 42EA0402 		orr	r2, r2, r4
 313 0174 EC68     		ldr	r4, [r5, #12]
 308:lib/STM32F10x_StdPeriph_Driver/src/stm32f10x_fsmc.c ****     FSMC_Bank2->PMEM2 = tmppmem;
 309:lib/STM32F10x_StdPeriph_Driver/src/stm32f10x_fsmc.c ****     FSMC_Bank2->PATT2 = tmppatt;
 310:lib/STM32F10x_StdPeriph_Driver/src/stm32f10x_fsmc.c ****   }
 311:lib/STM32F10x_StdPeriph_Driver/src/stm32f10x_fsmc.c ****   else
 312:lib/STM32F10x_StdPeriph_Driver/src/stm32f10x_fsmc.c ****   {
 313:lib/STM32F10x_StdPeriph_Driver/src/stm32f10x_fsmc.c ****     /* FSMC_Bank3_NAND registers configuration */
 314:lib/STM32F10x_StdPeriph_Driver/src/stm32f10x_fsmc.c ****     FSMC_Bank3->PCR3 = tmppcr;
 314              		.loc 1 314 0
 315 0176 18BF     		it	ne
 316 0178 0448     		ldrne	r0, .L23+4
 299:lib/STM32F10x_StdPeriph_Driver/src/stm32f10x_fsmc.c ****             (FSMC_NANDInitStruct->FSMC_AttributeSpaceTimingStruct->FSMC_WaitSetupTime << 8) |
 317              		.loc 1 299 0
 318 017a 42EA0462 		orr	r2, r2, r4, lsl #24
 319              	.LVL11:
 320              		.loc 1 314 0
 321 017e 0360     		str	r3, [r0]
 315:lib/STM32F10x_StdPeriph_Driver/src/stm32f10x_fsmc.c ****     FSMC_Bank3->PMEM3 = tmppmem;
 322              		.loc 1 315 0
 323 0180 8160     		str	r1, [r0, #8]
 316:lib/STM32F10x_StdPeriph_Driver/src/stm32f10x_fsmc.c ****     FSMC_Bank3->PATT3 = tmppatt;
 324              		.loc 1 316 0
 325 0182 C260     		str	r2, [r0, #12]
 326 0184 30BD     		pop	{r4, r5, pc}
 327              	.L24:
 328 0186 00BF     		.align	2
 329              	.L23:
 330 0188 600000A0 		.word	-1610612640
 331 018c 800000A0 		.word	-1610612608
 332              		.cfi_endproc
 333              	.LFE33:
 335              		.align	1
 336              		.global	FSMC_PCCARDInit
 337              		.thumb
 338              		.thumb_func
 340              	FSMC_PCCARDInit:
 341              	.LFB34:
 317:lib/STM32F10x_StdPeriph_Driver/src/stm32f10x_fsmc.c ****   }
 318:lib/STM32F10x_StdPeriph_Driver/src/stm32f10x_fsmc.c **** }
 319:lib/STM32F10x_StdPeriph_Driver/src/stm32f10x_fsmc.c **** 
 320:lib/STM32F10x_StdPeriph_Driver/src/stm32f10x_fsmc.c **** /**
 321:lib/STM32F10x_StdPeriph_Driver/src/stm32f10x_fsmc.c ****   * @brief  Initializes the FSMC PCCARD Bank according to the specified 
 322:lib/STM32F10x_StdPeriph_Driver/src/stm32f10x_fsmc.c ****   *         parameters in the FSMC_PCCARDInitStruct.
 323:lib/STM32F10x_StdPeriph_Driver/src/stm32f10x_fsmc.c ****   * @param  FSMC_PCCARDInitStruct : pointer to a FSMC_PCCARDInitTypeDef
 324:lib/STM32F10x_StdPeriph_Driver/src/stm32f10x_fsmc.c ****   *         structure that contains the configuration information for the FSMC 
 325:lib/STM32F10x_StdPeriph_Driver/src/stm32f10x_fsmc.c ****   *         PCCARD Bank.                       
 326:lib/STM32F10x_StdPeriph_Driver/src/stm32f10x_fsmc.c ****   * @retval None
 327:lib/STM32F10x_StdPeriph_Driver/src/stm32f10x_fsmc.c ****   */
 328:lib/STM32F10x_StdPeriph_Driver/src/stm32f10x_fsmc.c **** void FSMC_PCCARDInit(FSMC_PCCARDInitTypeDef* FSMC_PCCARDInitStruct)
 329:lib/STM32F10x_StdPeriph_Driver/src/stm32f10x_fsmc.c **** {
 342              		.loc 1 329 0
 343              		.cfi_startproc
 344              		@ args = 0, pretend = 0, frame = 0
 345              		@ frame_needed = 0, uses_anonymous_args = 0
 346              	.LVL12:
 330:lib/STM32F10x_StdPeriph_Driver/src/stm32f10x_fsmc.c ****   /* Check the parameters */
 331:lib/STM32F10x_StdPeriph_Driver/src/stm32f10x_fsmc.c ****   assert_param(IS_FSMC_WAIT_FEATURE(FSMC_PCCARDInitStruct->FSMC_Waitfeature));
 332:lib/STM32F10x_StdPeriph_Driver/src/stm32f10x_fsmc.c ****   assert_param(IS_FSMC_TCLR_TIME(FSMC_PCCARDInitStruct->FSMC_TCLRSetupTime));
 333:lib/STM32F10x_StdPeriph_Driver/src/stm32f10x_fsmc.c ****   assert_param(IS_FSMC_TAR_TIME(FSMC_PCCARDInitStruct->FSMC_TARSetupTime));
 334:lib/STM32F10x_StdPeriph_Driver/src/stm32f10x_fsmc.c ****  
 335:lib/STM32F10x_StdPeriph_Driver/src/stm32f10x_fsmc.c ****   assert_param(IS_FSMC_SETUP_TIME(FSMC_PCCARDInitStruct->FSMC_CommonSpaceTimingStruct->FSMC_SetupTi
 336:lib/STM32F10x_StdPeriph_Driver/src/stm32f10x_fsmc.c ****   assert_param(IS_FSMC_WAIT_TIME(FSMC_PCCARDInitStruct->FSMC_CommonSpaceTimingStruct->FSMC_WaitSetu
 337:lib/STM32F10x_StdPeriph_Driver/src/stm32f10x_fsmc.c ****   assert_param(IS_FSMC_HOLD_TIME(FSMC_PCCARDInitStruct->FSMC_CommonSpaceTimingStruct->FSMC_HoldSetu
 338:lib/STM32F10x_StdPeriph_Driver/src/stm32f10x_fsmc.c ****   assert_param(IS_FSMC_HIZ_TIME(FSMC_PCCARDInitStruct->FSMC_CommonSpaceTimingStruct->FSMC_HiZSetupT
 339:lib/STM32F10x_StdPeriph_Driver/src/stm32f10x_fsmc.c ****   
 340:lib/STM32F10x_StdPeriph_Driver/src/stm32f10x_fsmc.c ****   assert_param(IS_FSMC_SETUP_TIME(FSMC_PCCARDInitStruct->FSMC_AttributeSpaceTimingStruct->FSMC_Setu
 341:lib/STM32F10x_StdPeriph_Driver/src/stm32f10x_fsmc.c ****   assert_param(IS_FSMC_WAIT_TIME(FSMC_PCCARDInitStruct->FSMC_AttributeSpaceTimingStruct->FSMC_WaitS
 342:lib/STM32F10x_StdPeriph_Driver/src/stm32f10x_fsmc.c ****   assert_param(IS_FSMC_HOLD_TIME(FSMC_PCCARDInitStruct->FSMC_AttributeSpaceTimingStruct->FSMC_HoldS
 343:lib/STM32F10x_StdPeriph_Driver/src/stm32f10x_fsmc.c ****   assert_param(IS_FSMC_HIZ_TIME(FSMC_PCCARDInitStruct->FSMC_AttributeSpaceTimingStruct->FSMC_HiZSet
 344:lib/STM32F10x_StdPeriph_Driver/src/stm32f10x_fsmc.c ****   assert_param(IS_FSMC_SETUP_TIME(FSMC_PCCARDInitStruct->FSMC_IOSpaceTimingStruct->FSMC_SetupTime))
 345:lib/STM32F10x_StdPeriph_Driver/src/stm32f10x_fsmc.c ****   assert_param(IS_FSMC_WAIT_TIME(FSMC_PCCARDInitStruct->FSMC_IOSpaceTimingStruct->FSMC_WaitSetupTim
 346:lib/STM32F10x_StdPeriph_Driver/src/stm32f10x_fsmc.c ****   assert_param(IS_FSMC_HOLD_TIME(FSMC_PCCARDInitStruct->FSMC_IOSpaceTimingStruct->FSMC_HoldSetupTim
 347:lib/STM32F10x_StdPeriph_Driver/src/stm32f10x_fsmc.c ****   assert_param(IS_FSMC_HIZ_TIME(FSMC_PCCARDInitStruct->FSMC_IOSpaceTimingStruct->FSMC_HiZSetupTime)
 348:lib/STM32F10x_StdPeriph_Driver/src/stm32f10x_fsmc.c ****   
 349:lib/STM32F10x_StdPeriph_Driver/src/stm32f10x_fsmc.c ****   /* Set the PCR4 register value according to FSMC_PCCARDInitStruct parameters */
 350:lib/STM32F10x_StdPeriph_Driver/src/stm32f10x_fsmc.c ****   FSMC_Bank4->PCR4 = (uint32_t)FSMC_PCCARDInitStruct->FSMC_Waitfeature |
 351:lib/STM32F10x_StdPeriph_Driver/src/stm32f10x_fsmc.c ****                      FSMC_MemoryDataWidth_16b |  
 352:lib/STM32F10x_StdPeriph_Driver/src/stm32f10x_fsmc.c ****                      (FSMC_PCCARDInitStruct->FSMC_TCLRSetupTime << 9) |
 347              		.loc 1 352 0
 348 0190 0368     		ldr	r3, [r0]
 349 0192 4268     		ldr	r2, [r0, #4]
 350 0194 43F01003 		orr	r3, r3, #16
 351 0198 43EA4223 		orr	r3, r3, r2, lsl #9
 352 019c 8268     		ldr	r2, [r0, #8]
 350:lib/STM32F10x_StdPeriph_Driver/src/stm32f10x_fsmc.c ****                      FSMC_MemoryDataWidth_16b |  
 353              		.loc 1 350 0
 354 019e 1549     		ldr	r1, .L26
 329:lib/STM32F10x_StdPeriph_Driver/src/stm32f10x_fsmc.c ****   /* Check the parameters */
 355              		.loc 1 329 0
 356 01a0 10B5     		push	{r4, lr}
 357              	.LCFI2:
 358              		.cfi_def_cfa_offset 8
 359              		.cfi_offset 4, -8
 360              		.cfi_offset 14, -4
 361              		.loc 1 352 0
 362 01a2 43EA4233 		orr	r3, r3, r2, lsl #13
 353:lib/STM32F10x_StdPeriph_Driver/src/stm32f10x_fsmc.c ****                      (FSMC_PCCARDInitStruct->FSMC_TARSetupTime << 13);
 354:lib/STM32F10x_StdPeriph_Driver/src/stm32f10x_fsmc.c ****             
 355:lib/STM32F10x_StdPeriph_Driver/src/stm32f10x_fsmc.c ****   /* Set PMEM4 register value according to FSMC_CommonSpaceTimingStructure parameters */
 356:lib/STM32F10x_StdPeriph_Driver/src/stm32f10x_fsmc.c ****   FSMC_Bank4->PMEM4 = (uint32_t)FSMC_PCCARDInitStruct->FSMC_CommonSpaceTimingStruct->FSMC_SetupTime
 363              		.loc 1 356 0
 364 01a6 C468     		ldr	r4, [r0, #12]
 350:lib/STM32F10x_StdPeriph_Driver/src/stm32f10x_fsmc.c ****                      FSMC_MemoryDataWidth_16b |  
 365              		.loc 1 350 0
 366 01a8 0B60     		str	r3, [r1]
 357:lib/STM32F10x_StdPeriph_Driver/src/stm32f10x_fsmc.c ****                       (FSMC_PCCARDInitStruct->FSMC_CommonSpaceTimingStruct->FSMC_WaitSetupTime << 8
 358:lib/STM32F10x_StdPeriph_Driver/src/stm32f10x_fsmc.c ****                       (FSMC_PCCARDInitStruct->FSMC_CommonSpaceTimingStruct->FSMC_HoldSetupTime << 1
 367              		.loc 1 358 0
 368 01aa A268     		ldr	r2, [r4, #8]
 369 01ac 6368     		ldr	r3, [r4, #4]
 370 01ae 1204     		lsls	r2, r2, #16
 371 01b0 42EA0322 		orr	r2, r2, r3, lsl #8
 372 01b4 2368     		ldr	r3, [r4]
 373 01b6 1343     		orrs	r3, r3, r2
 374 01b8 E268     		ldr	r2, [r4, #12]
 359:lib/STM32F10x_StdPeriph_Driver/src/stm32f10x_fsmc.c ****                       (FSMC_PCCARDInitStruct->FSMC_CommonSpaceTimingStruct->FSMC_HiZSetupTime << 24
 360:lib/STM32F10x_StdPeriph_Driver/src/stm32f10x_fsmc.c ****             
 361:lib/STM32F10x_StdPeriph_Driver/src/stm32f10x_fsmc.c ****   /* Set PATT4 register value according to FSMC_AttributeSpaceTimingStructure parameters */
 362:lib/STM32F10x_StdPeriph_Driver/src/stm32f10x_fsmc.c ****   FSMC_Bank4->PATT4 = (uint32_t)FSMC_PCCARDInitStruct->FSMC_AttributeSpaceTimingStruct->FSMC_SetupT
 375              		.loc 1 362 0
 376 01ba 0469     		ldr	r4, [r0, #16]
 358:lib/STM32F10x_StdPeriph_Driver/src/stm32f10x_fsmc.c ****                       (FSMC_PCCARDInitStruct->FSMC_CommonSpaceTimingStruct->FSMC_HiZSetupTime << 24
 377              		.loc 1 358 0
 378 01bc 43EA0263 		orr	r3, r3, r2, lsl #24
 356:lib/STM32F10x_StdPeriph_Driver/src/stm32f10x_fsmc.c ****                       (FSMC_PCCARDInitStruct->FSMC_CommonSpaceTimingStruct->FSMC_WaitSetupTime << 8
 379              		.loc 1 356 0
 380 01c0 8B60     		str	r3, [r1, #8]
 363:lib/STM32F10x_StdPeriph_Driver/src/stm32f10x_fsmc.c ****                       (FSMC_PCCARDInitStruct->FSMC_AttributeSpaceTimingStruct->FSMC_WaitSetupTime <
 364:lib/STM32F10x_StdPeriph_Driver/src/stm32f10x_fsmc.c ****                       (FSMC_PCCARDInitStruct->FSMC_AttributeSpaceTimingStruct->FSMC_HoldSetupTime <
 381              		.loc 1 364 0
 382 01c2 A268     		ldr	r2, [r4, #8]
 383 01c4 6368     		ldr	r3, [r4, #4]
 384 01c6 1204     		lsls	r2, r2, #16
 385 01c8 42EA0322 		orr	r2, r2, r3, lsl #8
 386 01cc 2368     		ldr	r3, [r4]
 365:lib/STM32F10x_StdPeriph_Driver/src/stm32f10x_fsmc.c ****                       (FSMC_PCCARDInitStruct->FSMC_AttributeSpaceTimingStruct->FSMC_HiZSetupTime <<
 366:lib/STM32F10x_StdPeriph_Driver/src/stm32f10x_fsmc.c ****             
 367:lib/STM32F10x_StdPeriph_Driver/src/stm32f10x_fsmc.c ****   /* Set PIO4 register value according to FSMC_IOSpaceTimingStructure parameters */
 368:lib/STM32F10x_StdPeriph_Driver/src/stm32f10x_fsmc.c ****   FSMC_Bank4->PIO4 = (uint32_t)FSMC_PCCARDInitStruct->FSMC_IOSpaceTimingStruct->FSMC_SetupTime |
 387              		.loc 1 368 0
 388 01ce 4069     		ldr	r0, [r0, #20]
 389              	.LVL13:
 364:lib/STM32F10x_StdPeriph_Driver/src/stm32f10x_fsmc.c ****                       (FSMC_PCCARDInitStruct->FSMC_AttributeSpaceTimingStruct->FSMC_HiZSetupTime <<
 390              		.loc 1 364 0
 391 01d0 1343     		orrs	r3, r3, r2
 392 01d2 E268     		ldr	r2, [r4, #12]
 393 01d4 43EA0263 		orr	r3, r3, r2, lsl #24
 362:lib/STM32F10x_StdPeriph_Driver/src/stm32f10x_fsmc.c ****                       (FSMC_PCCARDInitStruct->FSMC_AttributeSpaceTimingStruct->FSMC_WaitSetupTime <
 394              		.loc 1 362 0
 395 01d8 CB60     		str	r3, [r1, #12]
 369:lib/STM32F10x_StdPeriph_Driver/src/stm32f10x_fsmc.c ****                      (FSMC_PCCARDInitStruct->FSMC_IOSpaceTimingStruct->FSMC_WaitSetupTime << 8) |
 370:lib/STM32F10x_StdPeriph_Driver/src/stm32f10x_fsmc.c ****                      (FSMC_PCCARDInitStruct->FSMC_IOSpaceTimingStruct->FSMC_HoldSetupTime << 16)|
 396              		.loc 1 370 0
 397 01da 8268     		ldr	r2, [r0, #8]
 398 01dc 4368     		ldr	r3, [r0, #4]
 399 01de 1204     		lsls	r2, r2, #16
 400 01e0 42EA0322 		orr	r2, r2, r3, lsl #8
 401 01e4 0368     		ldr	r3, [r0]
 402 01e6 1343     		orrs	r3, r3, r2
 403 01e8 C268     		ldr	r2, [r0, #12]
 404 01ea 43EA0263 		orr	r3, r3, r2, lsl #24
 368:lib/STM32F10x_StdPeriph_Driver/src/stm32f10x_fsmc.c ****                      (FSMC_PCCARDInitStruct->FSMC_IOSpaceTimingStruct->FSMC_WaitSetupTime << 8) |
 405              		.loc 1 368 0
 406 01ee 0B61     		str	r3, [r1, #16]
 407 01f0 10BD     		pop	{r4, pc}
 408              	.L27:
 409 01f2 00BF     		.align	2
 410              	.L26:
 411 01f4 A00000A0 		.word	-1610612576
 412              		.cfi_endproc
 413              	.LFE34:
 415              		.align	1
 416              		.global	FSMC_NORSRAMStructInit
 417              		.thumb
 418              		.thumb_func
 420              	FSMC_NORSRAMStructInit:
 421              	.LFB35:
 371:lib/STM32F10x_StdPeriph_Driver/src/stm32f10x_fsmc.c ****                      (FSMC_PCCARDInitStruct->FSMC_IOSpaceTimingStruct->FSMC_HiZSetupTime << 24);   
 372:lib/STM32F10x_StdPeriph_Driver/src/stm32f10x_fsmc.c **** }
 373:lib/STM32F10x_StdPeriph_Driver/src/stm32f10x_fsmc.c **** 
 374:lib/STM32F10x_StdPeriph_Driver/src/stm32f10x_fsmc.c **** /**
 375:lib/STM32F10x_StdPeriph_Driver/src/stm32f10x_fsmc.c ****   * @brief  Fills each FSMC_NORSRAMInitStruct member with its default value.
 376:lib/STM32F10x_StdPeriph_Driver/src/stm32f10x_fsmc.c ****   * @param  FSMC_NORSRAMInitStruct: pointer to a FSMC_NORSRAMInitTypeDef 
 377:lib/STM32F10x_StdPeriph_Driver/src/stm32f10x_fsmc.c ****   *         structure which will be initialized.
 378:lib/STM32F10x_StdPeriph_Driver/src/stm32f10x_fsmc.c ****   * @retval None
 379:lib/STM32F10x_StdPeriph_Driver/src/stm32f10x_fsmc.c ****   */
 380:lib/STM32F10x_StdPeriph_Driver/src/stm32f10x_fsmc.c **** void FSMC_NORSRAMStructInit(FSMC_NORSRAMInitTypeDef* FSMC_NORSRAMInitStruct)
 381:lib/STM32F10x_StdPeriph_Driver/src/stm32f10x_fsmc.c **** {  
 422              		.loc 1 381 0
 423              		.cfi_startproc
 424              		@ args = 0, pretend = 0, frame = 0
 425              		@ frame_needed = 0, uses_anonymous_args = 0
 426              	.LVL14:
 382:lib/STM32F10x_StdPeriph_Driver/src/stm32f10x_fsmc.c ****   /* Reset NOR/SRAM Init structure parameters values */
 383:lib/STM32F10x_StdPeriph_Driver/src/stm32f10x_fsmc.c ****   FSMC_NORSRAMInitStruct->FSMC_Bank = FSMC_Bank1_NORSRAM1;
 384:lib/STM32F10x_StdPeriph_Driver/src/stm32f10x_fsmc.c ****   FSMC_NORSRAMInitStruct->FSMC_DataAddressMux = FSMC_DataAddressMux_Enable;
 427              		.loc 1 384 0
 428 01f8 0222     		movs	r2, #2
 381:lib/STM32F10x_StdPeriph_Driver/src/stm32f10x_fsmc.c ****   /* Reset NOR/SRAM Init structure parameters values */
 429              		.loc 1 381 0
 430 01fa 10B5     		push	{r4, lr}
 431              	.LCFI3:
 432              		.cfi_def_cfa_offset 8
 433              		.cfi_offset 4, -8
 434              		.cfi_offset 14, -4
 435              		.loc 1 384 0
 436 01fc 4260     		str	r2, [r0, #4]
 385:lib/STM32F10x_StdPeriph_Driver/src/stm32f10x_fsmc.c ****   FSMC_NORSRAMInitStruct->FSMC_MemoryType = FSMC_MemoryType_SRAM;
 386:lib/STM32F10x_StdPeriph_Driver/src/stm32f10x_fsmc.c ****   FSMC_NORSRAMInitStruct->FSMC_MemoryDataWidth = FSMC_MemoryDataWidth_8b;
 387:lib/STM32F10x_StdPeriph_Driver/src/stm32f10x_fsmc.c ****   FSMC_NORSRAMInitStruct->FSMC_BurstAccessMode = FSMC_BurstAccessMode_Disable;
 388:lib/STM32F10x_StdPeriph_Driver/src/stm32f10x_fsmc.c ****   FSMC_NORSRAMInitStruct->FSMC_AsynchronousWait = FSMC_AsynchronousWait_Disable;
 389:lib/STM32F10x_StdPeriph_Driver/src/stm32f10x_fsmc.c ****   FSMC_NORSRAMInitStruct->FSMC_WaitSignalPolarity = FSMC_WaitSignalPolarity_Low;
 390:lib/STM32F10x_StdPeriph_Driver/src/stm32f10x_fsmc.c ****   FSMC_NORSRAMInitStruct->FSMC_WrapMode = FSMC_WrapMode_Disable;
 391:lib/STM32F10x_StdPeriph_Driver/src/stm32f10x_fsmc.c ****   FSMC_NORSRAMInitStruct->FSMC_WaitSignalActive = FSMC_WaitSignalActive_BeforeWaitState;
 392:lib/STM32F10x_StdPeriph_Driver/src/stm32f10x_fsmc.c ****   FSMC_NORSRAMInitStruct->FSMC_WriteOperation = FSMC_WriteOperation_Enable;
 437              		.loc 1 392 0
 438 01fe 4FF48052 		mov	r2, #4096
 439 0202 4262     		str	r2, [r0, #36]
 393:lib/STM32F10x_StdPeriph_Driver/src/stm32f10x_fsmc.c ****   FSMC_NORSRAMInitStruct->FSMC_WaitSignal = FSMC_WaitSignal_Enable;
 394:lib/STM32F10x_StdPeriph_Driver/src/stm32f10x_fsmc.c ****   FSMC_NORSRAMInitStruct->FSMC_ExtendedMode = FSMC_ExtendedMode_Disable;
 395:lib/STM32F10x_StdPeriph_Driver/src/stm32f10x_fsmc.c ****   FSMC_NORSRAMInitStruct->FSMC_WriteBurst = FSMC_WriteBurst_Disable;
 396:lib/STM32F10x_StdPeriph_Driver/src/stm32f10x_fsmc.c ****   FSMC_NORSRAMInitStruct->FSMC_ReadWriteTimingStruct->FSMC_AddressSetupTime = 0xF;
 440              		.loc 1 396 0
 441 0204 416B     		ldr	r1, [r0, #52]
 393:lib/STM32F10x_StdPeriph_Driver/src/stm32f10x_fsmc.c ****   FSMC_NORSRAMInitStruct->FSMC_WaitSignal = FSMC_WaitSignal_Enable;
 442              		.loc 1 393 0
 443 0206 4FF40052 		mov	r2, #8192
 444 020a 8262     		str	r2, [r0, #40]
 383:lib/STM32F10x_StdPeriph_Driver/src/stm32f10x_fsmc.c ****   FSMC_NORSRAMInitStruct->FSMC_DataAddressMux = FSMC_DataAddressMux_Enable;
 445              		.loc 1 383 0
 446 020c 0023     		movs	r3, #0
 447              		.loc 1 396 0
 448 020e 0F22     		movs	r2, #15
 397:lib/STM32F10x_StdPeriph_Driver/src/stm32f10x_fsmc.c ****   FSMC_NORSRAMInitStruct->FSMC_ReadWriteTimingStruct->FSMC_AddressHoldTime = 0xF;
 398:lib/STM32F10x_StdPeriph_Driver/src/stm32f10x_fsmc.c ****   FSMC_NORSRAMInitStruct->FSMC_ReadWriteTimingStruct->FSMC_DataSetupTime = 0xFF;
 449              		.loc 1 398 0
 450 0210 FF24     		movs	r4, #255
 383:lib/STM32F10x_StdPeriph_Driver/src/stm32f10x_fsmc.c ****   FSMC_NORSRAMInitStruct->FSMC_DataAddressMux = FSMC_DataAddressMux_Enable;
 451              		.loc 1 383 0
 452 0212 0360     		str	r3, [r0]
 385:lib/STM32F10x_StdPeriph_Driver/src/stm32f10x_fsmc.c ****   FSMC_NORSRAMInitStruct->FSMC_MemoryDataWidth = FSMC_MemoryDataWidth_8b;
 453              		.loc 1 385 0
 454 0214 8360     		str	r3, [r0, #8]
 386:lib/STM32F10x_StdPeriph_Driver/src/stm32f10x_fsmc.c ****   FSMC_NORSRAMInitStruct->FSMC_BurstAccessMode = FSMC_BurstAccessMode_Disable;
 455              		.loc 1 386 0
 456 0216 C360     		str	r3, [r0, #12]
 387:lib/STM32F10x_StdPeriph_Driver/src/stm32f10x_fsmc.c ****   FSMC_NORSRAMInitStruct->FSMC_AsynchronousWait = FSMC_AsynchronousWait_Disable;
 457              		.loc 1 387 0
 458 0218 0361     		str	r3, [r0, #16]
 388:lib/STM32F10x_StdPeriph_Driver/src/stm32f10x_fsmc.c ****   FSMC_NORSRAMInitStruct->FSMC_WaitSignalPolarity = FSMC_WaitSignalPolarity_Low;
 459              		.loc 1 388 0
 460 021a 4361     		str	r3, [r0, #20]
 389:lib/STM32F10x_StdPeriph_Driver/src/stm32f10x_fsmc.c ****   FSMC_NORSRAMInitStruct->FSMC_WrapMode = FSMC_WrapMode_Disable;
 461              		.loc 1 389 0
 462 021c 8361     		str	r3, [r0, #24]
 390:lib/STM32F10x_StdPeriph_Driver/src/stm32f10x_fsmc.c ****   FSMC_NORSRAMInitStruct->FSMC_WaitSignalActive = FSMC_WaitSignalActive_BeforeWaitState;
 463              		.loc 1 390 0
 464 021e C361     		str	r3, [r0, #28]
 391:lib/STM32F10x_StdPeriph_Driver/src/stm32f10x_fsmc.c ****   FSMC_NORSRAMInitStruct->FSMC_WriteOperation = FSMC_WriteOperation_Enable;
 465              		.loc 1 391 0
 466 0220 0362     		str	r3, [r0, #32]
 394:lib/STM32F10x_StdPeriph_Driver/src/stm32f10x_fsmc.c ****   FSMC_NORSRAMInitStruct->FSMC_WriteBurst = FSMC_WriteBurst_Disable;
 467              		.loc 1 394 0
 468 0222 C362     		str	r3, [r0, #44]
 395:lib/STM32F10x_StdPeriph_Driver/src/stm32f10x_fsmc.c ****   FSMC_NORSRAMInitStruct->FSMC_ReadWriteTimingStruct->FSMC_AddressSetupTime = 0xF;
 469              		.loc 1 395 0
 470 0224 0363     		str	r3, [r0, #48]
 396:lib/STM32F10x_StdPeriph_Driver/src/stm32f10x_fsmc.c ****   FSMC_NORSRAMInitStruct->FSMC_ReadWriteTimingStruct->FSMC_AddressHoldTime = 0xF;
 471              		.loc 1 396 0
 472 0226 0A60     		str	r2, [r1]
 397:lib/STM32F10x_StdPeriph_Driver/src/stm32f10x_fsmc.c ****   FSMC_NORSRAMInitStruct->FSMC_ReadWriteTimingStruct->FSMC_DataSetupTime = 0xFF;
 473              		.loc 1 397 0
 474 0228 4A60     		str	r2, [r1, #4]
 475              		.loc 1 398 0
 476 022a 8C60     		str	r4, [r1, #8]
 399:lib/STM32F10x_StdPeriph_Driver/src/stm32f10x_fsmc.c ****   FSMC_NORSRAMInitStruct->FSMC_ReadWriteTimingStruct->FSMC_BusTurnAroundDuration = 0xF;
 477              		.loc 1 399 0
 478 022c CA60     		str	r2, [r1, #12]
 400:lib/STM32F10x_StdPeriph_Driver/src/stm32f10x_fsmc.c ****   FSMC_NORSRAMInitStruct->FSMC_ReadWriteTimingStruct->FSMC_CLKDivision = 0xF;
 479              		.loc 1 400 0
 480 022e 0A61     		str	r2, [r1, #16]
 401:lib/STM32F10x_StdPeriph_Driver/src/stm32f10x_fsmc.c ****   FSMC_NORSRAMInitStruct->FSMC_ReadWriteTimingStruct->FSMC_DataLatency = 0xF;
 481              		.loc 1 401 0
 482 0230 4A61     		str	r2, [r1, #20]
 402:lib/STM32F10x_StdPeriph_Driver/src/stm32f10x_fsmc.c ****   FSMC_NORSRAMInitStruct->FSMC_ReadWriteTimingStruct->FSMC_AccessMode = FSMC_AccessMode_A; 
 483              		.loc 1 402 0
 484 0232 8B61     		str	r3, [r1, #24]
 403:lib/STM32F10x_StdPeriph_Driver/src/stm32f10x_fsmc.c ****   FSMC_NORSRAMInitStruct->FSMC_WriteTimingStruct->FSMC_AddressSetupTime = 0xF;
 485              		.loc 1 403 0
 486 0234 816B     		ldr	r1, [r0, #56]
 487 0236 0A60     		str	r2, [r1]
 404:lib/STM32F10x_StdPeriph_Driver/src/stm32f10x_fsmc.c ****   FSMC_NORSRAMInitStruct->FSMC_WriteTimingStruct->FSMC_AddressHoldTime = 0xF;
 488              		.loc 1 404 0
 489 0238 4A60     		str	r2, [r1, #4]
 405:lib/STM32F10x_StdPeriph_Driver/src/stm32f10x_fsmc.c ****   FSMC_NORSRAMInitStruct->FSMC_WriteTimingStruct->FSMC_DataSetupTime = 0xFF;
 490              		.loc 1 405 0
 491 023a 8C60     		str	r4, [r1, #8]
 406:lib/STM32F10x_StdPeriph_Driver/src/stm32f10x_fsmc.c ****   FSMC_NORSRAMInitStruct->FSMC_WriteTimingStruct->FSMC_BusTurnAroundDuration = 0xF;
 492              		.loc 1 406 0
 493 023c CA60     		str	r2, [r1, #12]
 407:lib/STM32F10x_StdPeriph_Driver/src/stm32f10x_fsmc.c ****   FSMC_NORSRAMInitStruct->FSMC_WriteTimingStruct->FSMC_CLKDivision = 0xF;
 494              		.loc 1 407 0
 495 023e 0A61     		str	r2, [r1, #16]
 408:lib/STM32F10x_StdPeriph_Driver/src/stm32f10x_fsmc.c ****   FSMC_NORSRAMInitStruct->FSMC_WriteTimingStruct->FSMC_DataLatency = 0xF;
 496              		.loc 1 408 0
 497 0240 4A61     		str	r2, [r1, #20]
 409:lib/STM32F10x_StdPeriph_Driver/src/stm32f10x_fsmc.c ****   FSMC_NORSRAMInitStruct->FSMC_WriteTimingStruct->FSMC_AccessMode = FSMC_AccessMode_A;
 498              		.loc 1 409 0
 499 0242 8B61     		str	r3, [r1, #24]
 500 0244 10BD     		pop	{r4, pc}
 501              		.cfi_endproc
 502              	.LFE35:
 504              		.align	1
 505              		.global	FSMC_NANDStructInit
 506              		.thumb
 507              		.thumb_func
 509              	FSMC_NANDStructInit:
 510              	.LFB36:
 410:lib/STM32F10x_StdPeriph_Driver/src/stm32f10x_fsmc.c **** }
 411:lib/STM32F10x_StdPeriph_Driver/src/stm32f10x_fsmc.c **** 
 412:lib/STM32F10x_StdPeriph_Driver/src/stm32f10x_fsmc.c **** /**
 413:lib/STM32F10x_StdPeriph_Driver/src/stm32f10x_fsmc.c ****   * @brief  Fills each FSMC_NANDInitStruct member with its default value.
 414:lib/STM32F10x_StdPeriph_Driver/src/stm32f10x_fsmc.c ****   * @param  FSMC_NANDInitStruct: pointer to a FSMC_NANDInitTypeDef 
 415:lib/STM32F10x_StdPeriph_Driver/src/stm32f10x_fsmc.c ****   *         structure which will be initialized.
 416:lib/STM32F10x_StdPeriph_Driver/src/stm32f10x_fsmc.c ****   * @retval None
 417:lib/STM32F10x_StdPeriph_Driver/src/stm32f10x_fsmc.c ****   */
 418:lib/STM32F10x_StdPeriph_Driver/src/stm32f10x_fsmc.c **** void FSMC_NANDStructInit(FSMC_NANDInitTypeDef* FSMC_NANDInitStruct)
 419:lib/STM32F10x_StdPeriph_Driver/src/stm32f10x_fsmc.c **** { 
 511              		.loc 1 419 0
 512              		.cfi_startproc
 513              		@ args = 0, pretend = 0, frame = 0
 514              		@ frame_needed = 0, uses_anonymous_args = 0
 515              		@ link register save eliminated.
 516              	.LVL15:
 420:lib/STM32F10x_StdPeriph_Driver/src/stm32f10x_fsmc.c ****   /* Reset NAND Init structure parameters values */
 421:lib/STM32F10x_StdPeriph_Driver/src/stm32f10x_fsmc.c ****   FSMC_NANDInitStruct->FSMC_Bank = FSMC_Bank2_NAND;
 517              		.loc 1 421 0
 518 0246 1023     		movs	r3, #16
 519 0248 0360     		str	r3, [r0]
 422:lib/STM32F10x_StdPeriph_Driver/src/stm32f10x_fsmc.c ****   FSMC_NANDInitStruct->FSMC_Waitfeature = FSMC_Waitfeature_Disable;
 423:lib/STM32F10x_StdPeriph_Driver/src/stm32f10x_fsmc.c ****   FSMC_NANDInitStruct->FSMC_MemoryDataWidth = FSMC_MemoryDataWidth_8b;
 424:lib/STM32F10x_StdPeriph_Driver/src/stm32f10x_fsmc.c ****   FSMC_NANDInitStruct->FSMC_ECC = FSMC_ECC_Disable;
 425:lib/STM32F10x_StdPeriph_Driver/src/stm32f10x_fsmc.c ****   FSMC_NANDInitStruct->FSMC_ECCPageSize = FSMC_ECCPageSize_256Bytes;
 426:lib/STM32F10x_StdPeriph_Driver/src/stm32f10x_fsmc.c ****   FSMC_NANDInitStruct->FSMC_TCLRSetupTime = 0x0;
 427:lib/STM32F10x_StdPeriph_Driver/src/stm32f10x_fsmc.c ****   FSMC_NANDInitStruct->FSMC_TARSetupTime = 0x0;
 428:lib/STM32F10x_StdPeriph_Driver/src/stm32f10x_fsmc.c ****   FSMC_NANDInitStruct->FSMC_CommonSpaceTimingStruct->FSMC_SetupTime = 0xFC;
 520              		.loc 1 428 0
 521 024a C269     		ldr	r2, [r0, #28]
 422:lib/STM32F10x_StdPeriph_Driver/src/stm32f10x_fsmc.c ****   FSMC_NANDInitStruct->FSMC_Waitfeature = FSMC_Waitfeature_Disable;
 522              		.loc 1 422 0
 523 024c 0023     		movs	r3, #0
 524 024e 4360     		str	r3, [r0, #4]
 423:lib/STM32F10x_StdPeriph_Driver/src/stm32f10x_fsmc.c ****   FSMC_NANDInitStruct->FSMC_ECC = FSMC_ECC_Disable;
 525              		.loc 1 423 0
 526 0250 8360     		str	r3, [r0, #8]
 424:lib/STM32F10x_StdPeriph_Driver/src/stm32f10x_fsmc.c ****   FSMC_NANDInitStruct->FSMC_ECCPageSize = FSMC_ECCPageSize_256Bytes;
 527              		.loc 1 424 0
 528 0252 C360     		str	r3, [r0, #12]
 425:lib/STM32F10x_StdPeriph_Driver/src/stm32f10x_fsmc.c ****   FSMC_NANDInitStruct->FSMC_TCLRSetupTime = 0x0;
 529              		.loc 1 425 0
 530 0254 0361     		str	r3, [r0, #16]
 426:lib/STM32F10x_StdPeriph_Driver/src/stm32f10x_fsmc.c ****   FSMC_NANDInitStruct->FSMC_TARSetupTime = 0x0;
 531              		.loc 1 426 0
 532 0256 4361     		str	r3, [r0, #20]
 427:lib/STM32F10x_StdPeriph_Driver/src/stm32f10x_fsmc.c ****   FSMC_NANDInitStruct->FSMC_CommonSpaceTimingStruct->FSMC_SetupTime = 0xFC;
 533              		.loc 1 427 0
 534 0258 8361     		str	r3, [r0, #24]
 535              		.loc 1 428 0
 536 025a FC23     		movs	r3, #252
 537 025c 1360     		str	r3, [r2]
 429:lib/STM32F10x_StdPeriph_Driver/src/stm32f10x_fsmc.c ****   FSMC_NANDInitStruct->FSMC_CommonSpaceTimingStruct->FSMC_WaitSetupTime = 0xFC;
 538              		.loc 1 429 0
 539 025e 5360     		str	r3, [r2, #4]
 430:lib/STM32F10x_StdPeriph_Driver/src/stm32f10x_fsmc.c ****   FSMC_NANDInitStruct->FSMC_CommonSpaceTimingStruct->FSMC_HoldSetupTime = 0xFC;
 540              		.loc 1 430 0
 541 0260 9360     		str	r3, [r2, #8]
 431:lib/STM32F10x_StdPeriph_Driver/src/stm32f10x_fsmc.c ****   FSMC_NANDInitStruct->FSMC_CommonSpaceTimingStruct->FSMC_HiZSetupTime = 0xFC;
 542              		.loc 1 431 0
 543 0262 D360     		str	r3, [r2, #12]
 432:lib/STM32F10x_StdPeriph_Driver/src/stm32f10x_fsmc.c ****   FSMC_NANDInitStruct->FSMC_AttributeSpaceTimingStruct->FSMC_SetupTime = 0xFC;
 544              		.loc 1 432 0
 545 0264 026A     		ldr	r2, [r0, #32]
 546 0266 1360     		str	r3, [r2]
 433:lib/STM32F10x_StdPeriph_Driver/src/stm32f10x_fsmc.c ****   FSMC_NANDInitStruct->FSMC_AttributeSpaceTimingStruct->FSMC_WaitSetupTime = 0xFC;
 547              		.loc 1 433 0
 548 0268 5360     		str	r3, [r2, #4]
 434:lib/STM32F10x_StdPeriph_Driver/src/stm32f10x_fsmc.c ****   FSMC_NANDInitStruct->FSMC_AttributeSpaceTimingStruct->FSMC_HoldSetupTime = 0xFC;
 549              		.loc 1 434 0
 550 026a 9360     		str	r3, [r2, #8]
 435:lib/STM32F10x_StdPeriph_Driver/src/stm32f10x_fsmc.c ****   FSMC_NANDInitStruct->FSMC_AttributeSpaceTimingStruct->FSMC_HiZSetupTime = 0xFC;	  
 551              		.loc 1 435 0
 552 026c D360     		str	r3, [r2, #12]
 553 026e 7047     		bx	lr
 554              		.cfi_endproc
 555              	.LFE36:
 557              		.align	1
 558              		.global	FSMC_PCCARDStructInit
 559              		.thumb
 560              		.thumb_func
 562              	FSMC_PCCARDStructInit:
 563              	.LFB37:
 436:lib/STM32F10x_StdPeriph_Driver/src/stm32f10x_fsmc.c **** }
 437:lib/STM32F10x_StdPeriph_Driver/src/stm32f10x_fsmc.c **** 
 438:lib/STM32F10x_StdPeriph_Driver/src/stm32f10x_fsmc.c **** /**
 439:lib/STM32F10x_StdPeriph_Driver/src/stm32f10x_fsmc.c ****   * @brief  Fills each FSMC_PCCARDInitStruct member with its default value.
 440:lib/STM32F10x_StdPeriph_Driver/src/stm32f10x_fsmc.c ****   * @param  FSMC_PCCARDInitStruct: pointer to a FSMC_PCCARDInitTypeDef 
 441:lib/STM32F10x_StdPeriph_Driver/src/stm32f10x_fsmc.c ****   *         structure which will be initialized.
 442:lib/STM32F10x_StdPeriph_Driver/src/stm32f10x_fsmc.c ****   * @retval None
 443:lib/STM32F10x_StdPeriph_Driver/src/stm32f10x_fsmc.c ****   */
 444:lib/STM32F10x_StdPeriph_Driver/src/stm32f10x_fsmc.c **** void FSMC_PCCARDStructInit(FSMC_PCCARDInitTypeDef* FSMC_PCCARDInitStruct)
 445:lib/STM32F10x_StdPeriph_Driver/src/stm32f10x_fsmc.c **** {
 564              		.loc 1 445 0
 565              		.cfi_startproc
 566              		@ args = 0, pretend = 0, frame = 0
 567              		@ frame_needed = 0, uses_anonymous_args = 0
 568              		@ link register save eliminated.
 569              	.LVL16:
 446:lib/STM32F10x_StdPeriph_Driver/src/stm32f10x_fsmc.c ****   /* Reset PCCARD Init structure parameters values */
 447:lib/STM32F10x_StdPeriph_Driver/src/stm32f10x_fsmc.c ****   FSMC_PCCARDInitStruct->FSMC_Waitfeature = FSMC_Waitfeature_Disable;
 448:lib/STM32F10x_StdPeriph_Driver/src/stm32f10x_fsmc.c ****   FSMC_PCCARDInitStruct->FSMC_TCLRSetupTime = 0x0;
 449:lib/STM32F10x_StdPeriph_Driver/src/stm32f10x_fsmc.c ****   FSMC_PCCARDInitStruct->FSMC_TARSetupTime = 0x0;
 450:lib/STM32F10x_StdPeriph_Driver/src/stm32f10x_fsmc.c ****   FSMC_PCCARDInitStruct->FSMC_CommonSpaceTimingStruct->FSMC_SetupTime = 0xFC;
 570              		.loc 1 450 0
 571 0270 C268     		ldr	r2, [r0, #12]
 447:lib/STM32F10x_StdPeriph_Driver/src/stm32f10x_fsmc.c ****   FSMC_PCCARDInitStruct->FSMC_TCLRSetupTime = 0x0;
 572              		.loc 1 447 0
 573 0272 0023     		movs	r3, #0
 574 0274 0360     		str	r3, [r0]
 448:lib/STM32F10x_StdPeriph_Driver/src/stm32f10x_fsmc.c ****   FSMC_PCCARDInitStruct->FSMC_TARSetupTime = 0x0;
 575              		.loc 1 448 0
 576 0276 4360     		str	r3, [r0, #4]
 449:lib/STM32F10x_StdPeriph_Driver/src/stm32f10x_fsmc.c ****   FSMC_PCCARDInitStruct->FSMC_CommonSpaceTimingStruct->FSMC_SetupTime = 0xFC;
 577              		.loc 1 449 0
 578 0278 8360     		str	r3, [r0, #8]
 579              		.loc 1 450 0
 580 027a FC23     		movs	r3, #252
 581 027c 1360     		str	r3, [r2]
 451:lib/STM32F10x_StdPeriph_Driver/src/stm32f10x_fsmc.c ****   FSMC_PCCARDInitStruct->FSMC_CommonSpaceTimingStruct->FSMC_WaitSetupTime = 0xFC;
 582              		.loc 1 451 0
 583 027e 5360     		str	r3, [r2, #4]
 452:lib/STM32F10x_StdPeriph_Driver/src/stm32f10x_fsmc.c ****   FSMC_PCCARDInitStruct->FSMC_CommonSpaceTimingStruct->FSMC_HoldSetupTime = 0xFC;
 584              		.loc 1 452 0
 585 0280 9360     		str	r3, [r2, #8]
 453:lib/STM32F10x_StdPeriph_Driver/src/stm32f10x_fsmc.c ****   FSMC_PCCARDInitStruct->FSMC_CommonSpaceTimingStruct->FSMC_HiZSetupTime = 0xFC;
 586              		.loc 1 453 0
 587 0282 D360     		str	r3, [r2, #12]
 454:lib/STM32F10x_StdPeriph_Driver/src/stm32f10x_fsmc.c ****   FSMC_PCCARDInitStruct->FSMC_AttributeSpaceTimingStruct->FSMC_SetupTime = 0xFC;
 588              		.loc 1 454 0
 589 0284 0269     		ldr	r2, [r0, #16]
 590 0286 1360     		str	r3, [r2]
 455:lib/STM32F10x_StdPeriph_Driver/src/stm32f10x_fsmc.c ****   FSMC_PCCARDInitStruct->FSMC_AttributeSpaceTimingStruct->FSMC_WaitSetupTime = 0xFC;
 591              		.loc 1 455 0
 592 0288 5360     		str	r3, [r2, #4]
 456:lib/STM32F10x_StdPeriph_Driver/src/stm32f10x_fsmc.c ****   FSMC_PCCARDInitStruct->FSMC_AttributeSpaceTimingStruct->FSMC_HoldSetupTime = 0xFC;
 593              		.loc 1 456 0
 594 028a 9360     		str	r3, [r2, #8]
 457:lib/STM32F10x_StdPeriph_Driver/src/stm32f10x_fsmc.c ****   FSMC_PCCARDInitStruct->FSMC_AttributeSpaceTimingStruct->FSMC_HiZSetupTime = 0xFC;	
 595              		.loc 1 457 0
 596 028c D360     		str	r3, [r2, #12]
 458:lib/STM32F10x_StdPeriph_Driver/src/stm32f10x_fsmc.c ****   FSMC_PCCARDInitStruct->FSMC_IOSpaceTimingStruct->FSMC_SetupTime = 0xFC;
 597              		.loc 1 458 0
 598 028e 4269     		ldr	r2, [r0, #20]
 599 0290 1360     		str	r3, [r2]
 459:lib/STM32F10x_StdPeriph_Driver/src/stm32f10x_fsmc.c ****   FSMC_PCCARDInitStruct->FSMC_IOSpaceTimingStruct->FSMC_WaitSetupTime = 0xFC;
 600              		.loc 1 459 0
 601 0292 5360     		str	r3, [r2, #4]
 460:lib/STM32F10x_StdPeriph_Driver/src/stm32f10x_fsmc.c ****   FSMC_PCCARDInitStruct->FSMC_IOSpaceTimingStruct->FSMC_HoldSetupTime = 0xFC;
 602              		.loc 1 460 0
 603 0294 9360     		str	r3, [r2, #8]
 461:lib/STM32F10x_StdPeriph_Driver/src/stm32f10x_fsmc.c ****   FSMC_PCCARDInitStruct->FSMC_IOSpaceTimingStruct->FSMC_HiZSetupTime = 0xFC;
 604              		.loc 1 461 0
 605 0296 D360     		str	r3, [r2, #12]
 606 0298 7047     		bx	lr
 607              		.cfi_endproc
 608              	.LFE37:
 610              		.align	1
 611              		.global	FSMC_NORSRAMCmd
 612              		.thumb
 613              		.thumb_func
 615              	FSMC_NORSRAMCmd:
 616              	.LFB38:
 462:lib/STM32F10x_StdPeriph_Driver/src/stm32f10x_fsmc.c **** }
 463:lib/STM32F10x_StdPeriph_Driver/src/stm32f10x_fsmc.c **** 
 464:lib/STM32F10x_StdPeriph_Driver/src/stm32f10x_fsmc.c **** /**
 465:lib/STM32F10x_StdPeriph_Driver/src/stm32f10x_fsmc.c ****   * @brief  Enables or disables the specified NOR/SRAM Memory Bank.
 466:lib/STM32F10x_StdPeriph_Driver/src/stm32f10x_fsmc.c ****   * @param  FSMC_Bank: specifies the FSMC Bank to be used
 467:lib/STM32F10x_StdPeriph_Driver/src/stm32f10x_fsmc.c ****   *   This parameter can be one of the following values:
 468:lib/STM32F10x_StdPeriph_Driver/src/stm32f10x_fsmc.c ****   *     @arg FSMC_Bank1_NORSRAM1: FSMC Bank1 NOR/SRAM1  
 469:lib/STM32F10x_StdPeriph_Driver/src/stm32f10x_fsmc.c ****   *     @arg FSMC_Bank1_NORSRAM2: FSMC Bank1 NOR/SRAM2 
 470:lib/STM32F10x_StdPeriph_Driver/src/stm32f10x_fsmc.c ****   *     @arg FSMC_Bank1_NORSRAM3: FSMC Bank1 NOR/SRAM3 
 471:lib/STM32F10x_StdPeriph_Driver/src/stm32f10x_fsmc.c ****   *     @arg FSMC_Bank1_NORSRAM4: FSMC Bank1 NOR/SRAM4 
 472:lib/STM32F10x_StdPeriph_Driver/src/stm32f10x_fsmc.c ****   * @param  NewState: new state of the FSMC_Bank. This parameter can be: ENABLE or DISABLE.
 473:lib/STM32F10x_StdPeriph_Driver/src/stm32f10x_fsmc.c ****   * @retval None
 474:lib/STM32F10x_StdPeriph_Driver/src/stm32f10x_fsmc.c ****   */
 475:lib/STM32F10x_StdPeriph_Driver/src/stm32f10x_fsmc.c **** void FSMC_NORSRAMCmd(uint32_t FSMC_Bank, FunctionalState NewState)
 476:lib/STM32F10x_StdPeriph_Driver/src/stm32f10x_fsmc.c **** {
 617              		.loc 1 476 0
 618              		.cfi_startproc
 619              		@ args = 0, pretend = 0, frame = 0
 620              		@ frame_needed = 0, uses_anonymous_args = 0
 621              		@ link register save eliminated.
 622              	.LVL17:
 623 029a 8000     		lsls	r0, r0, #2
 624              	.LVL18:
 625 029c 00F12040 		add	r0, r0, #-1610612736
 477:lib/STM32F10x_StdPeriph_Driver/src/stm32f10x_fsmc.c ****   assert_param(IS_FSMC_NORSRAM_BANK(FSMC_Bank));
 478:lib/STM32F10x_StdPeriph_Driver/src/stm32f10x_fsmc.c ****   assert_param(IS_FUNCTIONAL_STATE(NewState));
 479:lib/STM32F10x_StdPeriph_Driver/src/stm32f10x_fsmc.c ****   
 480:lib/STM32F10x_StdPeriph_Driver/src/stm32f10x_fsmc.c ****   if (NewState != DISABLE)
 626              		.loc 1 480 0
 627 02a0 19B1     		cbz	r1, .L32
 481:lib/STM32F10x_StdPeriph_Driver/src/stm32f10x_fsmc.c ****   {
 482:lib/STM32F10x_StdPeriph_Driver/src/stm32f10x_fsmc.c ****     /* Enable the selected NOR/SRAM Bank by setting the PBKEN bit in the BCRx register */
 483:lib/STM32F10x_StdPeriph_Driver/src/stm32f10x_fsmc.c ****     FSMC_Bank1->BTCR[FSMC_Bank] |= BCR_MBKEN_Set;
 628              		.loc 1 483 0
 629 02a2 0368     		ldr	r3, [r0]
 630 02a4 43F00103 		orr	r3, r3, #1
 631 02a8 02E0     		b	.L34
 632              	.L32:
 484:lib/STM32F10x_StdPeriph_Driver/src/stm32f10x_fsmc.c ****   }
 485:lib/STM32F10x_StdPeriph_Driver/src/stm32f10x_fsmc.c ****   else
 486:lib/STM32F10x_StdPeriph_Driver/src/stm32f10x_fsmc.c ****   {
 487:lib/STM32F10x_StdPeriph_Driver/src/stm32f10x_fsmc.c ****     /* Disable the selected NOR/SRAM Bank by clearing the PBKEN bit in the BCRx register */
 488:lib/STM32F10x_StdPeriph_Driver/src/stm32f10x_fsmc.c ****     FSMC_Bank1->BTCR[FSMC_Bank] &= BCR_MBKEN_Reset;
 633              		.loc 1 488 0
 634 02aa 0268     		ldr	r2, [r0]
 635 02ac 014B     		ldr	r3, .L35
 636 02ae 1340     		ands	r3, r3, r2
 637              	.L34:
 638 02b0 0360     		str	r3, [r0]
 639 02b2 7047     		bx	lr
 640              	.L36:
 641              		.align	2
 642              	.L35:
 643 02b4 FEFF0F00 		.word	1048574
 644              		.cfi_endproc
 645              	.LFE38:
 647              		.align	1
 648              		.global	FSMC_NANDCmd
 649              		.thumb
 650              		.thumb_func
 652              	FSMC_NANDCmd:
 653              	.LFB39:
 489:lib/STM32F10x_StdPeriph_Driver/src/stm32f10x_fsmc.c ****   }
 490:lib/STM32F10x_StdPeriph_Driver/src/stm32f10x_fsmc.c **** }
 491:lib/STM32F10x_StdPeriph_Driver/src/stm32f10x_fsmc.c **** 
 492:lib/STM32F10x_StdPeriph_Driver/src/stm32f10x_fsmc.c **** /**
 493:lib/STM32F10x_StdPeriph_Driver/src/stm32f10x_fsmc.c ****   * @brief  Enables or disables the specified NAND Memory Bank.
 494:lib/STM32F10x_StdPeriph_Driver/src/stm32f10x_fsmc.c ****   * @param  FSMC_Bank: specifies the FSMC Bank to be used
 495:lib/STM32F10x_StdPeriph_Driver/src/stm32f10x_fsmc.c ****   *   This parameter can be one of the following values:
 496:lib/STM32F10x_StdPeriph_Driver/src/stm32f10x_fsmc.c ****   *     @arg FSMC_Bank2_NAND: FSMC Bank2 NAND 
 497:lib/STM32F10x_StdPeriph_Driver/src/stm32f10x_fsmc.c ****   *     @arg FSMC_Bank3_NAND: FSMC Bank3 NAND
 498:lib/STM32F10x_StdPeriph_Driver/src/stm32f10x_fsmc.c ****   * @param  NewState: new state of the FSMC_Bank. This parameter can be: ENABLE or DISABLE.
 499:lib/STM32F10x_StdPeriph_Driver/src/stm32f10x_fsmc.c ****   * @retval None
 500:lib/STM32F10x_StdPeriph_Driver/src/stm32f10x_fsmc.c ****   */
 501:lib/STM32F10x_StdPeriph_Driver/src/stm32f10x_fsmc.c **** void FSMC_NANDCmd(uint32_t FSMC_Bank, FunctionalState NewState)
 502:lib/STM32F10x_StdPeriph_Driver/src/stm32f10x_fsmc.c **** {
 654              		.loc 1 502 0
 655              		.cfi_startproc
 656              		@ args = 0, pretend = 0, frame = 0
 657              		@ frame_needed = 0, uses_anonymous_args = 0
 658              		@ link register save eliminated.
 659              	.LVL19:
 503:lib/STM32F10x_StdPeriph_Driver/src/stm32f10x_fsmc.c ****   assert_param(IS_FSMC_NAND_BANK(FSMC_Bank));
 504:lib/STM32F10x_StdPeriph_Driver/src/stm32f10x_fsmc.c ****   assert_param(IS_FUNCTIONAL_STATE(NewState));
 505:lib/STM32F10x_StdPeriph_Driver/src/stm32f10x_fsmc.c ****   
 506:lib/STM32F10x_StdPeriph_Driver/src/stm32f10x_fsmc.c ****   if (NewState != DISABLE)
 660              		.loc 1 506 0
 661 02b8 39B1     		cbz	r1, .L38
 507:lib/STM32F10x_StdPeriph_Driver/src/stm32f10x_fsmc.c ****   {
 508:lib/STM32F10x_StdPeriph_Driver/src/stm32f10x_fsmc.c ****     /* Enable the selected NAND Bank by setting the PBKEN bit in the PCRx register */
 509:lib/STM32F10x_StdPeriph_Driver/src/stm32f10x_fsmc.c ****     if(FSMC_Bank == FSMC_Bank2_NAND)
 662              		.loc 1 509 0
 663 02ba 1028     		cmp	r0, #16
 510:lib/STM32F10x_StdPeriph_Driver/src/stm32f10x_fsmc.c ****     {
 511:lib/STM32F10x_StdPeriph_Driver/src/stm32f10x_fsmc.c ****       FSMC_Bank2->PCR2 |= PCR_PBKEN_Set;
 664              		.loc 1 511 0
 665 02bc 0CBF     		ite	eq
 666 02be 074A     		ldreq	r2, .L45
 512:lib/STM32F10x_StdPeriph_Driver/src/stm32f10x_fsmc.c ****     }
 513:lib/STM32F10x_StdPeriph_Driver/src/stm32f10x_fsmc.c ****     else
 514:lib/STM32F10x_StdPeriph_Driver/src/stm32f10x_fsmc.c ****     {
 515:lib/STM32F10x_StdPeriph_Driver/src/stm32f10x_fsmc.c ****       FSMC_Bank3->PCR3 |= PCR_PBKEN_Set;
 667              		.loc 1 515 0
 668 02c0 074A     		ldrne	r2, .L45+4
 669 02c2 1368     		ldr	r3, [r2]
 670 02c4 43F00403 		orr	r3, r3, #4
 671 02c8 06E0     		b	.L42
 672              	.L38:
 516:lib/STM32F10x_StdPeriph_Driver/src/stm32f10x_fsmc.c ****     }
 517:lib/STM32F10x_StdPeriph_Driver/src/stm32f10x_fsmc.c ****   }
 518:lib/STM32F10x_StdPeriph_Driver/src/stm32f10x_fsmc.c ****   else
 519:lib/STM32F10x_StdPeriph_Driver/src/stm32f10x_fsmc.c ****   {
 520:lib/STM32F10x_StdPeriph_Driver/src/stm32f10x_fsmc.c ****     /* Disable the selected NAND Bank by clearing the PBKEN bit in the PCRx register */
 521:lib/STM32F10x_StdPeriph_Driver/src/stm32f10x_fsmc.c ****     if(FSMC_Bank == FSMC_Bank2_NAND)
 673              		.loc 1 521 0
 674 02ca 1028     		cmp	r0, #16
 522:lib/STM32F10x_StdPeriph_Driver/src/stm32f10x_fsmc.c ****     {
 523:lib/STM32F10x_StdPeriph_Driver/src/stm32f10x_fsmc.c ****       FSMC_Bank2->PCR2 &= PCR_PBKEN_Reset;
 675              		.loc 1 523 0
 676 02cc 0CBF     		ite	eq
 677 02ce 034A     		ldreq	r2, .L45
 524:lib/STM32F10x_StdPeriph_Driver/src/stm32f10x_fsmc.c ****     }
 525:lib/STM32F10x_StdPeriph_Driver/src/stm32f10x_fsmc.c ****     else
 526:lib/STM32F10x_StdPeriph_Driver/src/stm32f10x_fsmc.c ****     {
 527:lib/STM32F10x_StdPeriph_Driver/src/stm32f10x_fsmc.c ****       FSMC_Bank3->PCR3 &= PCR_PBKEN_Reset;
 678              		.loc 1 527 0
 679 02d0 034A     		ldrne	r2, .L45+4
 680 02d2 044B     		ldr	r3, .L45+8
 681 02d4 1168     		ldr	r1, [r2]
 682              	.LVL20:
 683 02d6 0B40     		ands	r3, r3, r1
 684              	.L42:
 685 02d8 1360     		str	r3, [r2]
 686 02da 7047     		bx	lr
 687              	.L46:
 688              		.align	2
 689              	.L45:
 690 02dc 600000A0 		.word	-1610612640
 691 02e0 800000A0 		.word	-1610612608
 692 02e4 FBFF0F00 		.word	1048571
 693              		.cfi_endproc
 694              	.LFE39:
 696              		.align	1
 697              		.global	FSMC_PCCARDCmd
 698              		.thumb
 699              		.thumb_func
 701              	FSMC_PCCARDCmd:
 702              	.LFB40:
 528:lib/STM32F10x_StdPeriph_Driver/src/stm32f10x_fsmc.c ****     }
 529:lib/STM32F10x_StdPeriph_Driver/src/stm32f10x_fsmc.c ****   }
 530:lib/STM32F10x_StdPeriph_Driver/src/stm32f10x_fsmc.c **** }
 531:lib/STM32F10x_StdPeriph_Driver/src/stm32f10x_fsmc.c **** 
 532:lib/STM32F10x_StdPeriph_Driver/src/stm32f10x_fsmc.c **** /**
 533:lib/STM32F10x_StdPeriph_Driver/src/stm32f10x_fsmc.c ****   * @brief  Enables or disables the PCCARD Memory Bank.
 534:lib/STM32F10x_StdPeriph_Driver/src/stm32f10x_fsmc.c ****   * @param  NewState: new state of the PCCARD Memory Bank.  
 535:lib/STM32F10x_StdPeriph_Driver/src/stm32f10x_fsmc.c ****   *   This parameter can be: ENABLE or DISABLE.
 536:lib/STM32F10x_StdPeriph_Driver/src/stm32f10x_fsmc.c ****   * @retval None
 537:lib/STM32F10x_StdPeriph_Driver/src/stm32f10x_fsmc.c ****   */
 538:lib/STM32F10x_StdPeriph_Driver/src/stm32f10x_fsmc.c **** void FSMC_PCCARDCmd(FunctionalState NewState)
 539:lib/STM32F10x_StdPeriph_Driver/src/stm32f10x_fsmc.c **** {
 703              		.loc 1 539 0
 704              		.cfi_startproc
 705              		@ args = 0, pretend = 0, frame = 0
 706              		@ frame_needed = 0, uses_anonymous_args = 0
 707              		@ link register save eliminated.
 708              	.LVL21:
 709 02e8 054B     		ldr	r3, .L51
 540:lib/STM32F10x_StdPeriph_Driver/src/stm32f10x_fsmc.c ****   assert_param(IS_FUNCTIONAL_STATE(NewState));
 541:lib/STM32F10x_StdPeriph_Driver/src/stm32f10x_fsmc.c ****   
 542:lib/STM32F10x_StdPeriph_Driver/src/stm32f10x_fsmc.c ****   if (NewState != DISABLE)
 710              		.loc 1 542 0
 711 02ea 18B1     		cbz	r0, .L48
 543:lib/STM32F10x_StdPeriph_Driver/src/stm32f10x_fsmc.c ****   {
 544:lib/STM32F10x_StdPeriph_Driver/src/stm32f10x_fsmc.c ****     /* Enable the PCCARD Bank by setting the PBKEN bit in the PCR4 register */
 545:lib/STM32F10x_StdPeriph_Driver/src/stm32f10x_fsmc.c ****     FSMC_Bank4->PCR4 |= PCR_PBKEN_Set;
 712              		.loc 1 545 0
 713 02ec 1A68     		ldr	r2, [r3]
 714 02ee 42F00402 		orr	r2, r2, #4
 715 02f2 02E0     		b	.L50
 716              	.L48:
 546:lib/STM32F10x_StdPeriph_Driver/src/stm32f10x_fsmc.c ****   }
 547:lib/STM32F10x_StdPeriph_Driver/src/stm32f10x_fsmc.c ****   else
 548:lib/STM32F10x_StdPeriph_Driver/src/stm32f10x_fsmc.c ****   {
 549:lib/STM32F10x_StdPeriph_Driver/src/stm32f10x_fsmc.c ****     /* Disable the PCCARD Bank by clearing the PBKEN bit in the PCR4 register */
 550:lib/STM32F10x_StdPeriph_Driver/src/stm32f10x_fsmc.c ****     FSMC_Bank4->PCR4 &= PCR_PBKEN_Reset;
 717              		.loc 1 550 0
 718 02f4 1968     		ldr	r1, [r3]
 719 02f6 034A     		ldr	r2, .L51+4
 720 02f8 0A40     		ands	r2, r2, r1
 721              	.L50:
 722 02fa 1A60     		str	r2, [r3]
 723 02fc 7047     		bx	lr
 724              	.L52:
 725 02fe 00BF     		.align	2
 726              	.L51:
 727 0300 A00000A0 		.word	-1610612576
 728 0304 FBFF0F00 		.word	1048571
 729              		.cfi_endproc
 730              	.LFE40:
 732              		.align	1
 733              		.global	FSMC_NANDECCCmd
 734              		.thumb
 735              		.thumb_func
 737              	FSMC_NANDECCCmd:
 738              	.LFB41:
 551:lib/STM32F10x_StdPeriph_Driver/src/stm32f10x_fsmc.c ****   }
 552:lib/STM32F10x_StdPeriph_Driver/src/stm32f10x_fsmc.c **** }
 553:lib/STM32F10x_StdPeriph_Driver/src/stm32f10x_fsmc.c **** 
 554:lib/STM32F10x_StdPeriph_Driver/src/stm32f10x_fsmc.c **** /**
 555:lib/STM32F10x_StdPeriph_Driver/src/stm32f10x_fsmc.c ****   * @brief  Enables or disables the FSMC NAND ECC feature.
 556:lib/STM32F10x_StdPeriph_Driver/src/stm32f10x_fsmc.c ****   * @param  FSMC_Bank: specifies the FSMC Bank to be used
 557:lib/STM32F10x_StdPeriph_Driver/src/stm32f10x_fsmc.c ****   *   This parameter can be one of the following values:
 558:lib/STM32F10x_StdPeriph_Driver/src/stm32f10x_fsmc.c ****   *     @arg FSMC_Bank2_NAND: FSMC Bank2 NAND 
 559:lib/STM32F10x_StdPeriph_Driver/src/stm32f10x_fsmc.c ****   *     @arg FSMC_Bank3_NAND: FSMC Bank3 NAND
 560:lib/STM32F10x_StdPeriph_Driver/src/stm32f10x_fsmc.c ****   * @param  NewState: new state of the FSMC NAND ECC feature.  
 561:lib/STM32F10x_StdPeriph_Driver/src/stm32f10x_fsmc.c ****   *   This parameter can be: ENABLE or DISABLE.
 562:lib/STM32F10x_StdPeriph_Driver/src/stm32f10x_fsmc.c ****   * @retval None
 563:lib/STM32F10x_StdPeriph_Driver/src/stm32f10x_fsmc.c ****   */
 564:lib/STM32F10x_StdPeriph_Driver/src/stm32f10x_fsmc.c **** void FSMC_NANDECCCmd(uint32_t FSMC_Bank, FunctionalState NewState)
 565:lib/STM32F10x_StdPeriph_Driver/src/stm32f10x_fsmc.c **** {
 739              		.loc 1 565 0
 740              		.cfi_startproc
 741              		@ args = 0, pretend = 0, frame = 0
 742              		@ frame_needed = 0, uses_anonymous_args = 0
 743              		@ link register save eliminated.
 744              	.LVL22:
 566:lib/STM32F10x_StdPeriph_Driver/src/stm32f10x_fsmc.c ****   assert_param(IS_FSMC_NAND_BANK(FSMC_Bank));
 567:lib/STM32F10x_StdPeriph_Driver/src/stm32f10x_fsmc.c ****   assert_param(IS_FUNCTIONAL_STATE(NewState));
 568:lib/STM32F10x_StdPeriph_Driver/src/stm32f10x_fsmc.c ****   
 569:lib/STM32F10x_StdPeriph_Driver/src/stm32f10x_fsmc.c ****   if (NewState != DISABLE)
 745              		.loc 1 569 0
 746 0308 39B1     		cbz	r1, .L54
 570:lib/STM32F10x_StdPeriph_Driver/src/stm32f10x_fsmc.c ****   {
 571:lib/STM32F10x_StdPeriph_Driver/src/stm32f10x_fsmc.c ****     /* Enable the selected NAND Bank ECC function by setting the ECCEN bit in the PCRx register */
 572:lib/STM32F10x_StdPeriph_Driver/src/stm32f10x_fsmc.c ****     if(FSMC_Bank == FSMC_Bank2_NAND)
 747              		.loc 1 572 0
 748 030a 1028     		cmp	r0, #16
 573:lib/STM32F10x_StdPeriph_Driver/src/stm32f10x_fsmc.c ****     {
 574:lib/STM32F10x_StdPeriph_Driver/src/stm32f10x_fsmc.c ****       FSMC_Bank2->PCR2 |= PCR_ECCEN_Set;
 749              		.loc 1 574 0
 750 030c 0CBF     		ite	eq
 751 030e 074A     		ldreq	r2, .L61
 575:lib/STM32F10x_StdPeriph_Driver/src/stm32f10x_fsmc.c ****     }
 576:lib/STM32F10x_StdPeriph_Driver/src/stm32f10x_fsmc.c ****     else
 577:lib/STM32F10x_StdPeriph_Driver/src/stm32f10x_fsmc.c ****     {
 578:lib/STM32F10x_StdPeriph_Driver/src/stm32f10x_fsmc.c ****       FSMC_Bank3->PCR3 |= PCR_ECCEN_Set;
 752              		.loc 1 578 0
 753 0310 074A     		ldrne	r2, .L61+4
 754 0312 1368     		ldr	r3, [r2]
 755 0314 43F04003 		orr	r3, r3, #64
 756 0318 06E0     		b	.L58
 757              	.L54:
 579:lib/STM32F10x_StdPeriph_Driver/src/stm32f10x_fsmc.c ****     }
 580:lib/STM32F10x_StdPeriph_Driver/src/stm32f10x_fsmc.c ****   }
 581:lib/STM32F10x_StdPeriph_Driver/src/stm32f10x_fsmc.c ****   else
 582:lib/STM32F10x_StdPeriph_Driver/src/stm32f10x_fsmc.c ****   {
 583:lib/STM32F10x_StdPeriph_Driver/src/stm32f10x_fsmc.c ****     /* Disable the selected NAND Bank ECC function by clearing the ECCEN bit in the PCRx register *
 584:lib/STM32F10x_StdPeriph_Driver/src/stm32f10x_fsmc.c ****     if(FSMC_Bank == FSMC_Bank2_NAND)
 758              		.loc 1 584 0
 759 031a 1028     		cmp	r0, #16
 585:lib/STM32F10x_StdPeriph_Driver/src/stm32f10x_fsmc.c ****     {
 586:lib/STM32F10x_StdPeriph_Driver/src/stm32f10x_fsmc.c ****       FSMC_Bank2->PCR2 &= PCR_ECCEN_Reset;
 760              		.loc 1 586 0
 761 031c 0CBF     		ite	eq
 762 031e 034A     		ldreq	r2, .L61
 587:lib/STM32F10x_StdPeriph_Driver/src/stm32f10x_fsmc.c ****     }
 588:lib/STM32F10x_StdPeriph_Driver/src/stm32f10x_fsmc.c ****     else
 589:lib/STM32F10x_StdPeriph_Driver/src/stm32f10x_fsmc.c ****     {
 590:lib/STM32F10x_StdPeriph_Driver/src/stm32f10x_fsmc.c ****       FSMC_Bank3->PCR3 &= PCR_ECCEN_Reset;
 763              		.loc 1 590 0
 764 0320 034A     		ldrne	r2, .L61+4
 765 0322 044B     		ldr	r3, .L61+8
 766 0324 1168     		ldr	r1, [r2]
 767              	.LVL23:
 768 0326 0B40     		ands	r3, r3, r1
 769              	.L58:
 770 0328 1360     		str	r3, [r2]
 771 032a 7047     		bx	lr
 772              	.L62:
 773              		.align	2
 774              	.L61:
 775 032c 600000A0 		.word	-1610612640
 776 0330 800000A0 		.word	-1610612608
 777 0334 BFFF0F00 		.word	1048511
 778              		.cfi_endproc
 779              	.LFE41:
 781              		.align	1
 782              		.global	FSMC_GetECC
 783              		.thumb
 784              		.thumb_func
 786              	FSMC_GetECC:
 787              	.LFB42:
 591:lib/STM32F10x_StdPeriph_Driver/src/stm32f10x_fsmc.c ****     }
 592:lib/STM32F10x_StdPeriph_Driver/src/stm32f10x_fsmc.c ****   }
 593:lib/STM32F10x_StdPeriph_Driver/src/stm32f10x_fsmc.c **** }
 594:lib/STM32F10x_StdPeriph_Driver/src/stm32f10x_fsmc.c **** 
 595:lib/STM32F10x_StdPeriph_Driver/src/stm32f10x_fsmc.c **** /**
 596:lib/STM32F10x_StdPeriph_Driver/src/stm32f10x_fsmc.c ****   * @brief  Returns the error correction code register value.
 597:lib/STM32F10x_StdPeriph_Driver/src/stm32f10x_fsmc.c ****   * @param  FSMC_Bank: specifies the FSMC Bank to be used
 598:lib/STM32F10x_StdPeriph_Driver/src/stm32f10x_fsmc.c ****   *   This parameter can be one of the following values:
 599:lib/STM32F10x_StdPeriph_Driver/src/stm32f10x_fsmc.c ****   *     @arg FSMC_Bank2_NAND: FSMC Bank2 NAND 
 600:lib/STM32F10x_StdPeriph_Driver/src/stm32f10x_fsmc.c ****   *     @arg FSMC_Bank3_NAND: FSMC Bank3 NAND
 601:lib/STM32F10x_StdPeriph_Driver/src/stm32f10x_fsmc.c ****   * @retval The Error Correction Code (ECC) value.
 602:lib/STM32F10x_StdPeriph_Driver/src/stm32f10x_fsmc.c ****   */
 603:lib/STM32F10x_StdPeriph_Driver/src/stm32f10x_fsmc.c **** uint32_t FSMC_GetECC(uint32_t FSMC_Bank)
 604:lib/STM32F10x_StdPeriph_Driver/src/stm32f10x_fsmc.c **** {
 788              		.loc 1 604 0
 789              		.cfi_startproc
 790              		@ args = 0, pretend = 0, frame = 0
 791              		@ frame_needed = 0, uses_anonymous_args = 0
 792              		@ link register save eliminated.
 793              	.LVL24:
 605:lib/STM32F10x_StdPeriph_Driver/src/stm32f10x_fsmc.c ****   uint32_t eccval = 0x00000000;
 606:lib/STM32F10x_StdPeriph_Driver/src/stm32f10x_fsmc.c ****   
 607:lib/STM32F10x_StdPeriph_Driver/src/stm32f10x_fsmc.c ****   if(FSMC_Bank == FSMC_Bank2_NAND)
 794              		.loc 1 607 0
 795 0338 1028     		cmp	r0, #16
 608:lib/STM32F10x_StdPeriph_Driver/src/stm32f10x_fsmc.c ****   {
 609:lib/STM32F10x_StdPeriph_Driver/src/stm32f10x_fsmc.c ****     /* Get the ECCR2 register value */
 610:lib/STM32F10x_StdPeriph_Driver/src/stm32f10x_fsmc.c ****     eccval = FSMC_Bank2->ECCR2;
 796              		.loc 1 610 0
 797 033a 0CBF     		ite	eq
 798 033c 014B     		ldreq	r3, .L67
 611:lib/STM32F10x_StdPeriph_Driver/src/stm32f10x_fsmc.c ****   }
 612:lib/STM32F10x_StdPeriph_Driver/src/stm32f10x_fsmc.c ****   else
 613:lib/STM32F10x_StdPeriph_Driver/src/stm32f10x_fsmc.c ****   {
 614:lib/STM32F10x_StdPeriph_Driver/src/stm32f10x_fsmc.c ****     /* Get the ECCR3 register value */
 615:lib/STM32F10x_StdPeriph_Driver/src/stm32f10x_fsmc.c ****     eccval = FSMC_Bank3->ECCR3;
 799              		.loc 1 615 0
 800 033e 024B     		ldrne	r3, .L67+4
 801 0340 5869     		ldr	r0, [r3, #20]
 802              	.LVL25:
 616:lib/STM32F10x_StdPeriph_Driver/src/stm32f10x_fsmc.c ****   }
 617:lib/STM32F10x_StdPeriph_Driver/src/stm32f10x_fsmc.c ****   /* Return the error correction code value */
 618:lib/STM32F10x_StdPeriph_Driver/src/stm32f10x_fsmc.c ****   return(eccval);
 619:lib/STM32F10x_StdPeriph_Driver/src/stm32f10x_fsmc.c **** }
 803              		.loc 1 619 0
 804 0342 7047     		bx	lr
 805              	.L68:
 806              		.align	2
 807              	.L67:
 808 0344 600000A0 		.word	-1610612640
 809 0348 800000A0 		.word	-1610612608
 810              		.cfi_endproc
 811              	.LFE42:
 813              		.align	1
 814              		.global	FSMC_ITConfig
 815              		.thumb
 816              		.thumb_func
 818              	FSMC_ITConfig:
 819              	.LFB43:
 620:lib/STM32F10x_StdPeriph_Driver/src/stm32f10x_fsmc.c **** 
 621:lib/STM32F10x_StdPeriph_Driver/src/stm32f10x_fsmc.c **** /**
 622:lib/STM32F10x_StdPeriph_Driver/src/stm32f10x_fsmc.c ****   * @brief  Enables or disables the specified FSMC interrupts.
 623:lib/STM32F10x_StdPeriph_Driver/src/stm32f10x_fsmc.c ****   * @param  FSMC_Bank: specifies the FSMC Bank to be used
 624:lib/STM32F10x_StdPeriph_Driver/src/stm32f10x_fsmc.c ****   *   This parameter can be one of the following values:
 625:lib/STM32F10x_StdPeriph_Driver/src/stm32f10x_fsmc.c ****   *     @arg FSMC_Bank2_NAND: FSMC Bank2 NAND 
 626:lib/STM32F10x_StdPeriph_Driver/src/stm32f10x_fsmc.c ****   *     @arg FSMC_Bank3_NAND: FSMC Bank3 NAND
 627:lib/STM32F10x_StdPeriph_Driver/src/stm32f10x_fsmc.c ****   *     @arg FSMC_Bank4_PCCARD: FSMC Bank4 PCCARD
 628:lib/STM32F10x_StdPeriph_Driver/src/stm32f10x_fsmc.c ****   * @param  FSMC_IT: specifies the FSMC interrupt sources to be enabled or disabled.
 629:lib/STM32F10x_StdPeriph_Driver/src/stm32f10x_fsmc.c ****   *   This parameter can be any combination of the following values:
 630:lib/STM32F10x_StdPeriph_Driver/src/stm32f10x_fsmc.c ****   *     @arg FSMC_IT_RisingEdge: Rising edge detection interrupt. 
 631:lib/STM32F10x_StdPeriph_Driver/src/stm32f10x_fsmc.c ****   *     @arg FSMC_IT_Level: Level edge detection interrupt.
 632:lib/STM32F10x_StdPeriph_Driver/src/stm32f10x_fsmc.c ****   *     @arg FSMC_IT_FallingEdge: Falling edge detection interrupt.
 633:lib/STM32F10x_StdPeriph_Driver/src/stm32f10x_fsmc.c ****   * @param  NewState: new state of the specified FSMC interrupts.
 634:lib/STM32F10x_StdPeriph_Driver/src/stm32f10x_fsmc.c ****   *   This parameter can be: ENABLE or DISABLE.
 635:lib/STM32F10x_StdPeriph_Driver/src/stm32f10x_fsmc.c ****   * @retval None
 636:lib/STM32F10x_StdPeriph_Driver/src/stm32f10x_fsmc.c ****   */
 637:lib/STM32F10x_StdPeriph_Driver/src/stm32f10x_fsmc.c **** void FSMC_ITConfig(uint32_t FSMC_Bank, uint32_t FSMC_IT, FunctionalState NewState)
 638:lib/STM32F10x_StdPeriph_Driver/src/stm32f10x_fsmc.c **** {
 820              		.loc 1 638 0
 821              		.cfi_startproc
 822              		@ args = 0, pretend = 0, frame = 0
 823              		@ frame_needed = 0, uses_anonymous_args = 0
 824              		@ link register save eliminated.
 825              	.LVL26:
 639:lib/STM32F10x_StdPeriph_Driver/src/stm32f10x_fsmc.c ****   assert_param(IS_FSMC_IT_BANK(FSMC_Bank));
 640:lib/STM32F10x_StdPeriph_Driver/src/stm32f10x_fsmc.c ****   assert_param(IS_FSMC_IT(FSMC_IT));	
 641:lib/STM32F10x_StdPeriph_Driver/src/stm32f10x_fsmc.c ****   assert_param(IS_FUNCTIONAL_STATE(NewState));
 642:lib/STM32F10x_StdPeriph_Driver/src/stm32f10x_fsmc.c ****   
 643:lib/STM32F10x_StdPeriph_Driver/src/stm32f10x_fsmc.c ****   if (NewState != DISABLE)
 826              		.loc 1 643 0
 827 034c 7AB1     		cbz	r2, .L70
 644:lib/STM32F10x_StdPeriph_Driver/src/stm32f10x_fsmc.c ****   {
 645:lib/STM32F10x_StdPeriph_Driver/src/stm32f10x_fsmc.c ****     /* Enable the selected FSMC_Bank2 interrupts */
 646:lib/STM32F10x_StdPeriph_Driver/src/stm32f10x_fsmc.c ****     if(FSMC_Bank == FSMC_Bank2_NAND)
 828              		.loc 1 646 0
 829 034e 1028     		cmp	r0, #16
 830 0350 01D1     		bne	.L71
 647:lib/STM32F10x_StdPeriph_Driver/src/stm32f10x_fsmc.c ****     {
 648:lib/STM32F10x_StdPeriph_Driver/src/stm32f10x_fsmc.c ****       FSMC_Bank2->SR2 |= FSMC_IT;
 831              		.loc 1 648 0
 832 0352 0E4A     		ldr	r2, .L79
 833              	.LVL27:
 834 0354 08E0     		b	.L78
 835              	.LVL28:
 836              	.L71:
 649:lib/STM32F10x_StdPeriph_Driver/src/stm32f10x_fsmc.c ****     }
 650:lib/STM32F10x_StdPeriph_Driver/src/stm32f10x_fsmc.c ****     /* Enable the selected FSMC_Bank3 interrupts */
 651:lib/STM32F10x_StdPeriph_Driver/src/stm32f10x_fsmc.c ****     else if (FSMC_Bank == FSMC_Bank3_NAND)
 837              		.loc 1 651 0
 838 0356 B0F5807F 		cmp	r0, #256
 839 035a 04D1     		bne	.L73
 652:lib/STM32F10x_StdPeriph_Driver/src/stm32f10x_fsmc.c ****     {
 653:lib/STM32F10x_StdPeriph_Driver/src/stm32f10x_fsmc.c ****       FSMC_Bank3->SR3 |= FSMC_IT;
 840              		.loc 1 653 0
 841 035c 0C4B     		ldr	r3, .L79+4
 842 035e 5A68     		ldr	r2, [r3, #4]
 843              	.LVL29:
 844 0360 1143     		orrs	r1, r1, r2
 845              	.LVL30:
 846 0362 5960     		str	r1, [r3, #4]
 847 0364 7047     		bx	lr
 848              	.LVL31:
 849              	.L73:
 654:lib/STM32F10x_StdPeriph_Driver/src/stm32f10x_fsmc.c ****     }
 655:lib/STM32F10x_StdPeriph_Driver/src/stm32f10x_fsmc.c ****     /* Enable the selected FSMC_Bank4 interrupts */
 656:lib/STM32F10x_StdPeriph_Driver/src/stm32f10x_fsmc.c ****     else
 657:lib/STM32F10x_StdPeriph_Driver/src/stm32f10x_fsmc.c ****     {
 658:lib/STM32F10x_StdPeriph_Driver/src/stm32f10x_fsmc.c ****       FSMC_Bank4->SR4 |= FSMC_IT;    
 850              		.loc 1 658 0
 851 0366 0B4A     		ldr	r2, .L79+8
 852              	.LVL32:
 853              	.L78:
 854 0368 5368     		ldr	r3, [r2, #4]
 855 036a 1943     		orrs	r1, r1, r3
 856              	.LVL33:
 857 036c 0CE0     		b	.L77
 858              	.LVL34:
 859              	.L70:
 659:lib/STM32F10x_StdPeriph_Driver/src/stm32f10x_fsmc.c ****     }
 660:lib/STM32F10x_StdPeriph_Driver/src/stm32f10x_fsmc.c ****   }
 661:lib/STM32F10x_StdPeriph_Driver/src/stm32f10x_fsmc.c ****   else
 662:lib/STM32F10x_StdPeriph_Driver/src/stm32f10x_fsmc.c ****   {
 663:lib/STM32F10x_StdPeriph_Driver/src/stm32f10x_fsmc.c ****     /* Disable the selected FSMC_Bank2 interrupts */
 664:lib/STM32F10x_StdPeriph_Driver/src/stm32f10x_fsmc.c ****     if(FSMC_Bank == FSMC_Bank2_NAND)
 860              		.loc 1 664 0
 861 036e 1028     		cmp	r0, #16
 862 0370 6FEA0101 		mvn	r1, r1
 863              	.LVL35:
 864 0374 01D1     		bne	.L74
 665:lib/STM32F10x_StdPeriph_Driver/src/stm32f10x_fsmc.c ****     {
 666:lib/STM32F10x_StdPeriph_Driver/src/stm32f10x_fsmc.c ****       
 667:lib/STM32F10x_StdPeriph_Driver/src/stm32f10x_fsmc.c ****       FSMC_Bank2->SR2 &= (uint32_t)~FSMC_IT;
 865              		.loc 1 667 0
 866 0376 054A     		ldr	r2, .L79
 867              	.LVL36:
 868 0378 04E0     		b	.L76
 869              	.LVL37:
 870              	.L74:
 668:lib/STM32F10x_StdPeriph_Driver/src/stm32f10x_fsmc.c ****     }
 669:lib/STM32F10x_StdPeriph_Driver/src/stm32f10x_fsmc.c ****     /* Disable the selected FSMC_Bank3 interrupts */
 670:lib/STM32F10x_StdPeriph_Driver/src/stm32f10x_fsmc.c ****     else if (FSMC_Bank == FSMC_Bank3_NAND)
 871              		.loc 1 670 0
 872 037a B0F5807F 		cmp	r0, #256
 671:lib/STM32F10x_StdPeriph_Driver/src/stm32f10x_fsmc.c ****     {
 672:lib/STM32F10x_StdPeriph_Driver/src/stm32f10x_fsmc.c ****       FSMC_Bank3->SR3 &= (uint32_t)~FSMC_IT;
 873              		.loc 1 672 0
 874 037e 0CBF     		ite	eq
 875 0380 034A     		ldreq	r2, .L79+4
 876              	.LVL38:
 673:lib/STM32F10x_StdPeriph_Driver/src/stm32f10x_fsmc.c ****     }
 674:lib/STM32F10x_StdPeriph_Driver/src/stm32f10x_fsmc.c ****     /* Disable the selected FSMC_Bank4 interrupts */
 675:lib/STM32F10x_StdPeriph_Driver/src/stm32f10x_fsmc.c ****     else
 676:lib/STM32F10x_StdPeriph_Driver/src/stm32f10x_fsmc.c ****     {
 677:lib/STM32F10x_StdPeriph_Driver/src/stm32f10x_fsmc.c ****       FSMC_Bank4->SR4 &= (uint32_t)~FSMC_IT;    
 877              		.loc 1 677 0
 878 0382 044A     		ldrne	r2, .L79+8
 879              	.L76:
 880 0384 5368     		ldr	r3, [r2, #4]
 881 0386 1940     		ands	r1, r1, r3
 882              	.LVL39:
 883              	.L77:
 884 0388 5160     		str	r1, [r2, #4]
 885 038a 7047     		bx	lr
 886              	.L80:
 887              		.align	2
 888              	.L79:
 889 038c 600000A0 		.word	-1610612640
 890 0390 800000A0 		.word	-1610612608
 891 0394 A00000A0 		.word	-1610612576
 892              		.cfi_endproc
 893              	.LFE43:
 895              		.align	1
 896              		.global	FSMC_GetFlagStatus
 897              		.thumb
 898              		.thumb_func
 900              	FSMC_GetFlagStatus:
 901              	.LFB44:
 678:lib/STM32F10x_StdPeriph_Driver/src/stm32f10x_fsmc.c ****     }
 679:lib/STM32F10x_StdPeriph_Driver/src/stm32f10x_fsmc.c ****   }
 680:lib/STM32F10x_StdPeriph_Driver/src/stm32f10x_fsmc.c **** }
 681:lib/STM32F10x_StdPeriph_Driver/src/stm32f10x_fsmc.c **** 
 682:lib/STM32F10x_StdPeriph_Driver/src/stm32f10x_fsmc.c **** /**
 683:lib/STM32F10x_StdPeriph_Driver/src/stm32f10x_fsmc.c ****   * @brief  Checks whether the specified FSMC flag is set or not.
 684:lib/STM32F10x_StdPeriph_Driver/src/stm32f10x_fsmc.c ****   * @param  FSMC_Bank: specifies the FSMC Bank to be used
 685:lib/STM32F10x_StdPeriph_Driver/src/stm32f10x_fsmc.c ****   *   This parameter can be one of the following values:
 686:lib/STM32F10x_StdPeriph_Driver/src/stm32f10x_fsmc.c ****   *     @arg FSMC_Bank2_NAND: FSMC Bank2 NAND 
 687:lib/STM32F10x_StdPeriph_Driver/src/stm32f10x_fsmc.c ****   *     @arg FSMC_Bank3_NAND: FSMC Bank3 NAND
 688:lib/STM32F10x_StdPeriph_Driver/src/stm32f10x_fsmc.c ****   *     @arg FSMC_Bank4_PCCARD: FSMC Bank4 PCCARD
 689:lib/STM32F10x_StdPeriph_Driver/src/stm32f10x_fsmc.c ****   * @param  FSMC_FLAG: specifies the flag to check.
 690:lib/STM32F10x_StdPeriph_Driver/src/stm32f10x_fsmc.c ****   *   This parameter can be one of the following values:
 691:lib/STM32F10x_StdPeriph_Driver/src/stm32f10x_fsmc.c ****   *     @arg FSMC_FLAG_RisingEdge: Rising egde detection Flag.
 692:lib/STM32F10x_StdPeriph_Driver/src/stm32f10x_fsmc.c ****   *     @arg FSMC_FLAG_Level: Level detection Flag.
 693:lib/STM32F10x_StdPeriph_Driver/src/stm32f10x_fsmc.c ****   *     @arg FSMC_FLAG_FallingEdge: Falling egde detection Flag.
 694:lib/STM32F10x_StdPeriph_Driver/src/stm32f10x_fsmc.c ****   *     @arg FSMC_FLAG_FEMPT: Fifo empty Flag. 
 695:lib/STM32F10x_StdPeriph_Driver/src/stm32f10x_fsmc.c ****   * @retval The new state of FSMC_FLAG (SET or RESET).
 696:lib/STM32F10x_StdPeriph_Driver/src/stm32f10x_fsmc.c ****   */
 697:lib/STM32F10x_StdPeriph_Driver/src/stm32f10x_fsmc.c **** FlagStatus FSMC_GetFlagStatus(uint32_t FSMC_Bank, uint32_t FSMC_FLAG)
 698:lib/STM32F10x_StdPeriph_Driver/src/stm32f10x_fsmc.c **** {
 902              		.loc 1 698 0
 903              		.cfi_startproc
 904              		@ args = 0, pretend = 0, frame = 0
 905              		@ frame_needed = 0, uses_anonymous_args = 0
 906              		@ link register save eliminated.
 907              	.LVL40:
 699:lib/STM32F10x_StdPeriph_Driver/src/stm32f10x_fsmc.c ****   FlagStatus bitstatus = RESET;
 700:lib/STM32F10x_StdPeriph_Driver/src/stm32f10x_fsmc.c ****   uint32_t tmpsr = 0x00000000;
 701:lib/STM32F10x_StdPeriph_Driver/src/stm32f10x_fsmc.c ****   
 702:lib/STM32F10x_StdPeriph_Driver/src/stm32f10x_fsmc.c ****   /* Check the parameters */
 703:lib/STM32F10x_StdPeriph_Driver/src/stm32f10x_fsmc.c ****   assert_param(IS_FSMC_GETFLAG_BANK(FSMC_Bank));
 704:lib/STM32F10x_StdPeriph_Driver/src/stm32f10x_fsmc.c ****   assert_param(IS_FSMC_GET_FLAG(FSMC_FLAG));
 705:lib/STM32F10x_StdPeriph_Driver/src/stm32f10x_fsmc.c ****   
 706:lib/STM32F10x_StdPeriph_Driver/src/stm32f10x_fsmc.c ****   if(FSMC_Bank == FSMC_Bank2_NAND)
 908              		.loc 1 706 0
 909 0398 1028     		cmp	r0, #16
 910 039a 01D1     		bne	.L82
 707:lib/STM32F10x_StdPeriph_Driver/src/stm32f10x_fsmc.c ****   {
 708:lib/STM32F10x_StdPeriph_Driver/src/stm32f10x_fsmc.c ****     tmpsr = FSMC_Bank2->SR2;
 911              		.loc 1 708 0
 912 039c 064B     		ldr	r3, .L86
 913 039e 04E0     		b	.L85
 914              	.L82:
 709:lib/STM32F10x_StdPeriph_Driver/src/stm32f10x_fsmc.c ****   }  
 710:lib/STM32F10x_StdPeriph_Driver/src/stm32f10x_fsmc.c ****   else if(FSMC_Bank == FSMC_Bank3_NAND)
 915              		.loc 1 710 0
 916 03a0 B0F5807F 		cmp	r0, #256
 711:lib/STM32F10x_StdPeriph_Driver/src/stm32f10x_fsmc.c ****   {
 712:lib/STM32F10x_StdPeriph_Driver/src/stm32f10x_fsmc.c ****     tmpsr = FSMC_Bank3->SR3;
 917              		.loc 1 712 0
 918 03a4 0CBF     		ite	eq
 919 03a6 054B     		ldreq	r3, .L86+4
 713:lib/STM32F10x_StdPeriph_Driver/src/stm32f10x_fsmc.c ****   }
 714:lib/STM32F10x_StdPeriph_Driver/src/stm32f10x_fsmc.c ****   /* FSMC_Bank4_PCCARD*/
 715:lib/STM32F10x_StdPeriph_Driver/src/stm32f10x_fsmc.c ****   else
 716:lib/STM32F10x_StdPeriph_Driver/src/stm32f10x_fsmc.c ****   {
 717:lib/STM32F10x_StdPeriph_Driver/src/stm32f10x_fsmc.c ****     tmpsr = FSMC_Bank4->SR4;
 920              		.loc 1 717 0
 921 03a8 054B     		ldrne	r3, .L86+8
 922              	.L85:
 923 03aa 5B68     		ldr	r3, [r3, #4]
 924              	.LVL41:
 718:lib/STM32F10x_StdPeriph_Driver/src/stm32f10x_fsmc.c ****   } 
 719:lib/STM32F10x_StdPeriph_Driver/src/stm32f10x_fsmc.c ****   
 720:lib/STM32F10x_StdPeriph_Driver/src/stm32f10x_fsmc.c ****   /* Get the flag status */
 721:lib/STM32F10x_StdPeriph_Driver/src/stm32f10x_fsmc.c ****   if ((tmpsr & FSMC_FLAG) != (uint16_t)RESET )
 722:lib/STM32F10x_StdPeriph_Driver/src/stm32f10x_fsmc.c ****   {
 723:lib/STM32F10x_StdPeriph_Driver/src/stm32f10x_fsmc.c ****     bitstatus = SET;
 724:lib/STM32F10x_StdPeriph_Driver/src/stm32f10x_fsmc.c ****   }
 725:lib/STM32F10x_StdPeriph_Driver/src/stm32f10x_fsmc.c ****   else
 726:lib/STM32F10x_StdPeriph_Driver/src/stm32f10x_fsmc.c ****   {
 727:lib/STM32F10x_StdPeriph_Driver/src/stm32f10x_fsmc.c ****     bitstatus = RESET;
 728:lib/STM32F10x_StdPeriph_Driver/src/stm32f10x_fsmc.c ****   }
 729:lib/STM32F10x_StdPeriph_Driver/src/stm32f10x_fsmc.c ****   /* Return the flag status */
 730:lib/STM32F10x_StdPeriph_Driver/src/stm32f10x_fsmc.c ****   return bitstatus;
 925              		.loc 1 730 0
 926 03ac 0B42     		tst	r3, r1
 731:lib/STM32F10x_StdPeriph_Driver/src/stm32f10x_fsmc.c **** }
 927              		.loc 1 731 0
 928 03ae 14BF     		ite	ne
 929 03b0 0120     		movne	r0, #1
 930              	.LVL42:
 931 03b2 0020     		moveq	r0, #0
 932 03b4 7047     		bx	lr
 933              	.L87:
 934 03b6 00BF     		.align	2
 935              	.L86:
 936 03b8 600000A0 		.word	-1610612640
 937 03bc 800000A0 		.word	-1610612608
 938 03c0 A00000A0 		.word	-1610612576
 939              		.cfi_endproc
 940              	.LFE44:
 942              		.align	1
 943              		.global	FSMC_ClearFlag
 944              		.thumb
 945              		.thumb_func
 947              	FSMC_ClearFlag:
 948              	.LFB45:
 732:lib/STM32F10x_StdPeriph_Driver/src/stm32f10x_fsmc.c **** 
 733:lib/STM32F10x_StdPeriph_Driver/src/stm32f10x_fsmc.c **** /**
 734:lib/STM32F10x_StdPeriph_Driver/src/stm32f10x_fsmc.c ****   * @brief  Clears the FSMC's pending flags.
 735:lib/STM32F10x_StdPeriph_Driver/src/stm32f10x_fsmc.c ****   * @param  FSMC_Bank: specifies the FSMC Bank to be used
 736:lib/STM32F10x_StdPeriph_Driver/src/stm32f10x_fsmc.c ****   *   This parameter can be one of the following values:
 737:lib/STM32F10x_StdPeriph_Driver/src/stm32f10x_fsmc.c ****   *     @arg FSMC_Bank2_NAND: FSMC Bank2 NAND 
 738:lib/STM32F10x_StdPeriph_Driver/src/stm32f10x_fsmc.c ****   *     @arg FSMC_Bank3_NAND: FSMC Bank3 NAND
 739:lib/STM32F10x_StdPeriph_Driver/src/stm32f10x_fsmc.c ****   *     @arg FSMC_Bank4_PCCARD: FSMC Bank4 PCCARD
 740:lib/STM32F10x_StdPeriph_Driver/src/stm32f10x_fsmc.c ****   * @param  FSMC_FLAG: specifies the flag to clear.
 741:lib/STM32F10x_StdPeriph_Driver/src/stm32f10x_fsmc.c ****   *   This parameter can be any combination of the following values:
 742:lib/STM32F10x_StdPeriph_Driver/src/stm32f10x_fsmc.c ****   *     @arg FSMC_FLAG_RisingEdge: Rising egde detection Flag.
 743:lib/STM32F10x_StdPeriph_Driver/src/stm32f10x_fsmc.c ****   *     @arg FSMC_FLAG_Level: Level detection Flag.
 744:lib/STM32F10x_StdPeriph_Driver/src/stm32f10x_fsmc.c ****   *     @arg FSMC_FLAG_FallingEdge: Falling egde detection Flag.
 745:lib/STM32F10x_StdPeriph_Driver/src/stm32f10x_fsmc.c ****   * @retval None
 746:lib/STM32F10x_StdPeriph_Driver/src/stm32f10x_fsmc.c ****   */
 747:lib/STM32F10x_StdPeriph_Driver/src/stm32f10x_fsmc.c **** void FSMC_ClearFlag(uint32_t FSMC_Bank, uint32_t FSMC_FLAG)
 748:lib/STM32F10x_StdPeriph_Driver/src/stm32f10x_fsmc.c **** {
 949              		.loc 1 748 0
 950              		.cfi_startproc
 951              		@ args = 0, pretend = 0, frame = 0
 952              		@ frame_needed = 0, uses_anonymous_args = 0
 953              		@ link register save eliminated.
 954              	.LVL43:
 749:lib/STM32F10x_StdPeriph_Driver/src/stm32f10x_fsmc.c ****  /* Check the parameters */
 750:lib/STM32F10x_StdPeriph_Driver/src/stm32f10x_fsmc.c ****   assert_param(IS_FSMC_GETFLAG_BANK(FSMC_Bank));
 751:lib/STM32F10x_StdPeriph_Driver/src/stm32f10x_fsmc.c ****   assert_param(IS_FSMC_CLEAR_FLAG(FSMC_FLAG)) ;
 752:lib/STM32F10x_StdPeriph_Driver/src/stm32f10x_fsmc.c ****     
 753:lib/STM32F10x_StdPeriph_Driver/src/stm32f10x_fsmc.c ****   if(FSMC_Bank == FSMC_Bank2_NAND)
 955              		.loc 1 753 0
 956 03c4 1028     		cmp	r0, #16
 957 03c6 6FEA0101 		mvn	r1, r1
 958              	.LVL44:
 959 03ca 01D1     		bne	.L89
 754:lib/STM32F10x_StdPeriph_Driver/src/stm32f10x_fsmc.c ****   {
 755:lib/STM32F10x_StdPeriph_Driver/src/stm32f10x_fsmc.c ****     FSMC_Bank2->SR2 &= ~FSMC_FLAG; 
 960              		.loc 1 755 0
 961 03cc 054A     		ldr	r2, .L93
 962 03ce 04E0     		b	.L92
 963              	.L89:
 756:lib/STM32F10x_StdPeriph_Driver/src/stm32f10x_fsmc.c ****   }  
 757:lib/STM32F10x_StdPeriph_Driver/src/stm32f10x_fsmc.c ****   else if(FSMC_Bank == FSMC_Bank3_NAND)
 964              		.loc 1 757 0
 965 03d0 B0F5807F 		cmp	r0, #256
 758:lib/STM32F10x_StdPeriph_Driver/src/stm32f10x_fsmc.c ****   {
 759:lib/STM32F10x_StdPeriph_Driver/src/stm32f10x_fsmc.c ****     FSMC_Bank3->SR3 &= ~FSMC_FLAG;
 966              		.loc 1 759 0
 967 03d4 0CBF     		ite	eq
 968 03d6 044A     		ldreq	r2, .L93+4
 760:lib/STM32F10x_StdPeriph_Driver/src/stm32f10x_fsmc.c ****   }
 761:lib/STM32F10x_StdPeriph_Driver/src/stm32f10x_fsmc.c ****   /* FSMC_Bank4_PCCARD*/
 762:lib/STM32F10x_StdPeriph_Driver/src/stm32f10x_fsmc.c ****   else
 763:lib/STM32F10x_StdPeriph_Driver/src/stm32f10x_fsmc.c ****   {
 764:lib/STM32F10x_StdPeriph_Driver/src/stm32f10x_fsmc.c ****     FSMC_Bank4->SR4 &= ~FSMC_FLAG;
 969              		.loc 1 764 0
 970 03d8 044A     		ldrne	r2, .L93+8
 971              	.L92:
 972 03da 5368     		ldr	r3, [r2, #4]
 973 03dc 1940     		ands	r1, r1, r3
 974              	.LVL45:
 975 03de 5160     		str	r1, [r2, #4]
 976 03e0 7047     		bx	lr
 977              	.L94:
 978 03e2 00BF     		.align	2
 979              	.L93:
 980 03e4 600000A0 		.word	-1610612640
 981 03e8 800000A0 		.word	-1610612608
 982 03ec A00000A0 		.word	-1610612576
 983              		.cfi_endproc
 984              	.LFE45:
 986              		.align	1
 987              		.global	FSMC_GetITStatus
 988              		.thumb
 989              		.thumb_func
 991              	FSMC_GetITStatus:
 992              	.LFB46:
 765:lib/STM32F10x_StdPeriph_Driver/src/stm32f10x_fsmc.c ****   }
 766:lib/STM32F10x_StdPeriph_Driver/src/stm32f10x_fsmc.c **** }
 767:lib/STM32F10x_StdPeriph_Driver/src/stm32f10x_fsmc.c **** 
 768:lib/STM32F10x_StdPeriph_Driver/src/stm32f10x_fsmc.c **** /**
 769:lib/STM32F10x_StdPeriph_Driver/src/stm32f10x_fsmc.c ****   * @brief  Checks whether the specified FSMC interrupt has occurred or not.
 770:lib/STM32F10x_StdPeriph_Driver/src/stm32f10x_fsmc.c ****   * @param  FSMC_Bank: specifies the FSMC Bank to be used
 771:lib/STM32F10x_StdPeriph_Driver/src/stm32f10x_fsmc.c ****   *   This parameter can be one of the following values:
 772:lib/STM32F10x_StdPeriph_Driver/src/stm32f10x_fsmc.c ****   *     @arg FSMC_Bank2_NAND: FSMC Bank2 NAND 
 773:lib/STM32F10x_StdPeriph_Driver/src/stm32f10x_fsmc.c ****   *     @arg FSMC_Bank3_NAND: FSMC Bank3 NAND
 774:lib/STM32F10x_StdPeriph_Driver/src/stm32f10x_fsmc.c ****   *     @arg FSMC_Bank4_PCCARD: FSMC Bank4 PCCARD
 775:lib/STM32F10x_StdPeriph_Driver/src/stm32f10x_fsmc.c ****   * @param  FSMC_IT: specifies the FSMC interrupt source to check.
 776:lib/STM32F10x_StdPeriph_Driver/src/stm32f10x_fsmc.c ****   *   This parameter can be one of the following values:
 777:lib/STM32F10x_StdPeriph_Driver/src/stm32f10x_fsmc.c ****   *     @arg FSMC_IT_RisingEdge: Rising edge detection interrupt. 
 778:lib/STM32F10x_StdPeriph_Driver/src/stm32f10x_fsmc.c ****   *     @arg FSMC_IT_Level: Level edge detection interrupt.
 779:lib/STM32F10x_StdPeriph_Driver/src/stm32f10x_fsmc.c ****   *     @arg FSMC_IT_FallingEdge: Falling edge detection interrupt. 
 780:lib/STM32F10x_StdPeriph_Driver/src/stm32f10x_fsmc.c ****   * @retval The new state of FSMC_IT (SET or RESET).
 781:lib/STM32F10x_StdPeriph_Driver/src/stm32f10x_fsmc.c ****   */
 782:lib/STM32F10x_StdPeriph_Driver/src/stm32f10x_fsmc.c **** ITStatus FSMC_GetITStatus(uint32_t FSMC_Bank, uint32_t FSMC_IT)
 783:lib/STM32F10x_StdPeriph_Driver/src/stm32f10x_fsmc.c **** {
 993              		.loc 1 783 0
 994              		.cfi_startproc
 995              		@ args = 0, pretend = 0, frame = 0
 996              		@ frame_needed = 0, uses_anonymous_args = 0
 997              		@ link register save eliminated.
 998              	.LVL46:
 784:lib/STM32F10x_StdPeriph_Driver/src/stm32f10x_fsmc.c ****   ITStatus bitstatus = RESET;
 785:lib/STM32F10x_StdPeriph_Driver/src/stm32f10x_fsmc.c ****   uint32_t tmpsr = 0x0, itstatus = 0x0, itenable = 0x0; 
 786:lib/STM32F10x_StdPeriph_Driver/src/stm32f10x_fsmc.c ****   
 787:lib/STM32F10x_StdPeriph_Driver/src/stm32f10x_fsmc.c ****   /* Check the parameters */
 788:lib/STM32F10x_StdPeriph_Driver/src/stm32f10x_fsmc.c ****   assert_param(IS_FSMC_IT_BANK(FSMC_Bank));
 789:lib/STM32F10x_StdPeriph_Driver/src/stm32f10x_fsmc.c ****   assert_param(IS_FSMC_GET_IT(FSMC_IT));
 790:lib/STM32F10x_StdPeriph_Driver/src/stm32f10x_fsmc.c ****   
 791:lib/STM32F10x_StdPeriph_Driver/src/stm32f10x_fsmc.c ****   if(FSMC_Bank == FSMC_Bank2_NAND)
 999              		.loc 1 791 0
 1000 03f0 1028     		cmp	r0, #16
 1001 03f2 01D1     		bne	.L96
 792:lib/STM32F10x_StdPeriph_Driver/src/stm32f10x_fsmc.c ****   {
 793:lib/STM32F10x_StdPeriph_Driver/src/stm32f10x_fsmc.c ****     tmpsr = FSMC_Bank2->SR2;
 1002              		.loc 1 793 0
 1003 03f4 084B     		ldr	r3, .L102
 1004 03f6 04E0     		b	.L101
 1005              	.L96:
 794:lib/STM32F10x_StdPeriph_Driver/src/stm32f10x_fsmc.c ****   }  
 795:lib/STM32F10x_StdPeriph_Driver/src/stm32f10x_fsmc.c ****   else if(FSMC_Bank == FSMC_Bank3_NAND)
 1006              		.loc 1 795 0
 1007 03f8 B0F5807F 		cmp	r0, #256
 796:lib/STM32F10x_StdPeriph_Driver/src/stm32f10x_fsmc.c ****   {
 797:lib/STM32F10x_StdPeriph_Driver/src/stm32f10x_fsmc.c ****     tmpsr = FSMC_Bank3->SR3;
 1008              		.loc 1 797 0
 1009 03fc 0CBF     		ite	eq
 1010 03fe 074B     		ldreq	r3, .L102+4
 798:lib/STM32F10x_StdPeriph_Driver/src/stm32f10x_fsmc.c ****   }
 799:lib/STM32F10x_StdPeriph_Driver/src/stm32f10x_fsmc.c ****   /* FSMC_Bank4_PCCARD*/
 800:lib/STM32F10x_StdPeriph_Driver/src/stm32f10x_fsmc.c ****   else
 801:lib/STM32F10x_StdPeriph_Driver/src/stm32f10x_fsmc.c ****   {
 802:lib/STM32F10x_StdPeriph_Driver/src/stm32f10x_fsmc.c ****     tmpsr = FSMC_Bank4->SR4;
 1011              		.loc 1 802 0
 1012 0400 074B     		ldrne	r3, .L102+8
 1013              	.L101:
 1014 0402 5B68     		ldr	r3, [r3, #4]
 1015              	.LVL47:
 803:lib/STM32F10x_StdPeriph_Driver/src/stm32f10x_fsmc.c ****   } 
 804:lib/STM32F10x_StdPeriph_Driver/src/stm32f10x_fsmc.c ****   
 805:lib/STM32F10x_StdPeriph_Driver/src/stm32f10x_fsmc.c ****   itstatus = tmpsr & FSMC_IT;
 806:lib/STM32F10x_StdPeriph_Driver/src/stm32f10x_fsmc.c ****   
 807:lib/STM32F10x_StdPeriph_Driver/src/stm32f10x_fsmc.c ****   itenable = tmpsr & (FSMC_IT >> 3);
 808:lib/STM32F10x_StdPeriph_Driver/src/stm32f10x_fsmc.c ****   if ((itstatus != (uint32_t)RESET)  && (itenable != (uint32_t)RESET))
 1016              		.loc 1 808 0
 1017 0404 13EA0100 		ands	r0, r3, r1
 1018              	.LVL48:
 1019 0408 04D0     		beq	.L99
 809:lib/STM32F10x_StdPeriph_Driver/src/stm32f10x_fsmc.c ****   {
 810:lib/STM32F10x_StdPeriph_Driver/src/stm32f10x_fsmc.c ****     bitstatus = SET;
 1020              		.loc 1 810 0 discriminator 1
 1021 040a 13EAD103 		ands	r3, r3, r1, lsr #3
 1022              	.LVL49:
 1023 040e 14BF     		ite	ne
 1024 0410 0120     		movne	r0, #1
 1025              	.LVL50:
 1026 0412 0020     		moveq	r0, #0
 1027              	.L99:
 1028              	.LVL51:
 811:lib/STM32F10x_StdPeriph_Driver/src/stm32f10x_fsmc.c ****   }
 812:lib/STM32F10x_StdPeriph_Driver/src/stm32f10x_fsmc.c ****   else
 813:lib/STM32F10x_StdPeriph_Driver/src/stm32f10x_fsmc.c ****   {
 814:lib/STM32F10x_StdPeriph_Driver/src/stm32f10x_fsmc.c ****     bitstatus = RESET;
 815:lib/STM32F10x_StdPeriph_Driver/src/stm32f10x_fsmc.c ****   }
 816:lib/STM32F10x_StdPeriph_Driver/src/stm32f10x_fsmc.c ****   return bitstatus; 
 817:lib/STM32F10x_StdPeriph_Driver/src/stm32f10x_fsmc.c **** }
 1029              		.loc 1 817 0
 1030 0414 7047     		bx	lr
 1031              	.L103:
 1032 0416 00BF     		.align	2
 1033              	.L102:
 1034 0418 600000A0 		.word	-1610612640
 1035 041c 800000A0 		.word	-1610612608
 1036 0420 A00000A0 		.word	-1610612576
 1037              		.cfi_endproc
 1038              	.LFE46:
 1040              		.align	1
 1041              		.global	FSMC_ClearITPendingBit
 1042              		.thumb
 1043              		.thumb_func
 1045              	FSMC_ClearITPendingBit:
 1046              	.LFB47:
 818:lib/STM32F10x_StdPeriph_Driver/src/stm32f10x_fsmc.c **** 
 819:lib/STM32F10x_StdPeriph_Driver/src/stm32f10x_fsmc.c **** /**
 820:lib/STM32F10x_StdPeriph_Driver/src/stm32f10x_fsmc.c ****   * @brief  Clears the FSMC's interrupt pending bits.
 821:lib/STM32F10x_StdPeriph_Driver/src/stm32f10x_fsmc.c ****   * @param  FSMC_Bank: specifies the FSMC Bank to be used
 822:lib/STM32F10x_StdPeriph_Driver/src/stm32f10x_fsmc.c ****   *   This parameter can be one of the following values:
 823:lib/STM32F10x_StdPeriph_Driver/src/stm32f10x_fsmc.c ****   *     @arg FSMC_Bank2_NAND: FSMC Bank2 NAND 
 824:lib/STM32F10x_StdPeriph_Driver/src/stm32f10x_fsmc.c ****   *     @arg FSMC_Bank3_NAND: FSMC Bank3 NAND
 825:lib/STM32F10x_StdPeriph_Driver/src/stm32f10x_fsmc.c ****   *     @arg FSMC_Bank4_PCCARD: FSMC Bank4 PCCARD
 826:lib/STM32F10x_StdPeriph_Driver/src/stm32f10x_fsmc.c ****   * @param  FSMC_IT: specifies the interrupt pending bit to clear.
 827:lib/STM32F10x_StdPeriph_Driver/src/stm32f10x_fsmc.c ****   *   This parameter can be any combination of the following values:
 828:lib/STM32F10x_StdPeriph_Driver/src/stm32f10x_fsmc.c ****   *     @arg FSMC_IT_RisingEdge: Rising edge detection interrupt. 
 829:lib/STM32F10x_StdPeriph_Driver/src/stm32f10x_fsmc.c ****   *     @arg FSMC_IT_Level: Level edge detection interrupt.
 830:lib/STM32F10x_StdPeriph_Driver/src/stm32f10x_fsmc.c ****   *     @arg FSMC_IT_FallingEdge: Falling edge detection interrupt.
 831:lib/STM32F10x_StdPeriph_Driver/src/stm32f10x_fsmc.c ****   * @retval None
 832:lib/STM32F10x_StdPeriph_Driver/src/stm32f10x_fsmc.c ****   */
 833:lib/STM32F10x_StdPeriph_Driver/src/stm32f10x_fsmc.c **** void FSMC_ClearITPendingBit(uint32_t FSMC_Bank, uint32_t FSMC_IT)
 834:lib/STM32F10x_StdPeriph_Driver/src/stm32f10x_fsmc.c **** {
 1047              		.loc 1 834 0
 1048              		.cfi_startproc
 1049              		@ args = 0, pretend = 0, frame = 0
 1050              		@ frame_needed = 0, uses_anonymous_args = 0
 1051              		@ link register save eliminated.
 1052              	.LVL52:
 835:lib/STM32F10x_StdPeriph_Driver/src/stm32f10x_fsmc.c ****   /* Check the parameters */
 836:lib/STM32F10x_StdPeriph_Driver/src/stm32f10x_fsmc.c ****   assert_param(IS_FSMC_IT_BANK(FSMC_Bank));
 837:lib/STM32F10x_StdPeriph_Driver/src/stm32f10x_fsmc.c ****   assert_param(IS_FSMC_IT(FSMC_IT));
 838:lib/STM32F10x_StdPeriph_Driver/src/stm32f10x_fsmc.c ****     
 839:lib/STM32F10x_StdPeriph_Driver/src/stm32f10x_fsmc.c ****   if(FSMC_Bank == FSMC_Bank2_NAND)
 1053              		.loc 1 839 0
 1054 0424 1028     		cmp	r0, #16
 1055 0426 4FEAD101 		lsr	r1, r1, #3
 1056              	.LVL53:
 1057 042a 01D1     		bne	.L105
 840:lib/STM32F10x_StdPeriph_Driver/src/stm32f10x_fsmc.c ****   {
 841:lib/STM32F10x_StdPeriph_Driver/src/stm32f10x_fsmc.c ****     FSMC_Bank2->SR2 &= ~(FSMC_IT >> 3); 
 1058              		.loc 1 841 0
 1059 042c 054A     		ldr	r2, .L109
 1060 042e 04E0     		b	.L108
 1061              	.L105:
 842:lib/STM32F10x_StdPeriph_Driver/src/stm32f10x_fsmc.c ****   }  
 843:lib/STM32F10x_StdPeriph_Driver/src/stm32f10x_fsmc.c ****   else if(FSMC_Bank == FSMC_Bank3_NAND)
 1062              		.loc 1 843 0
 1063 0430 B0F5807F 		cmp	r0, #256
 844:lib/STM32F10x_StdPeriph_Driver/src/stm32f10x_fsmc.c ****   {
 845:lib/STM32F10x_StdPeriph_Driver/src/stm32f10x_fsmc.c ****     FSMC_Bank3->SR3 &= ~(FSMC_IT >> 3);
 1064              		.loc 1 845 0
 1065 0434 0CBF     		ite	eq
 1066 0436 044A     		ldreq	r2, .L109+4
 846:lib/STM32F10x_StdPeriph_Driver/src/stm32f10x_fsmc.c ****   }
 847:lib/STM32F10x_StdPeriph_Driver/src/stm32f10x_fsmc.c ****   /* FSMC_Bank4_PCCARD*/
 848:lib/STM32F10x_StdPeriph_Driver/src/stm32f10x_fsmc.c ****   else
 849:lib/STM32F10x_StdPeriph_Driver/src/stm32f10x_fsmc.c ****   {
 850:lib/STM32F10x_StdPeriph_Driver/src/stm32f10x_fsmc.c ****     FSMC_Bank4->SR4 &= ~(FSMC_IT >> 3);
 1067              		.loc 1 850 0
 1068 0438 044A     		ldrne	r2, .L109+8
 1069              	.L108:
 1070 043a 5368     		ldr	r3, [r2, #4]
 1071 043c 23EA0101 		bic	r1, r3, r1
 1072 0440 5160     		str	r1, [r2, #4]
 1073 0442 7047     		bx	lr
 1074              	.L110:
 1075              		.align	2
 1076              	.L109:
 1077 0444 600000A0 		.word	-1610612640
 1078 0448 800000A0 		.word	-1610612608
 1079 044c A00000A0 		.word	-1610612576
 1080              		.cfi_endproc
 1081              	.LFE47:
 1083              	.Letext0:
 1084              		.file 2 "/media/emil/opt/gcc-arm-none-eabi-5_2-2015q4/arm-none-eabi/include/machine/_default_types
 1085              		.file 3 "/media/emil/opt/gcc-arm-none-eabi-5_2-2015q4/arm-none-eabi/include/sys/_stdint.h"
 1086              		.file 4 "./lib/CMSIS/CM3/DeviceSupport/ST/STM32F10x/stm32f10x.h"
 1087              		.file 5 "./lib/STM32F10x_StdPeriph_Driver/inc/stm32f10x_fsmc.h"
 1088              		.file 6 "./lib/CMSIS/CM3/CoreSupport/core_cm3.h"