   1              		.syntax unified
   2              		.cpu cortex-m3
   3              		.fpu softvfp
   4              		.eabi_attribute 20, 1
   5              		.eabi_attribute 21, 1
   6              		.eabi_attribute 23, 3
   7              		.eabi_attribute 24, 1
   8              		.eabi_attribute 25, 1
   9              		.eabi_attribute 26, 1
  10              		.eabi_attribute 30, 4
  11              		.eabi_attribute 34, 1
  12              		.eabi_attribute 18, 4
  13              		.thumb
  14              		.syntax unified
  15              		.file	"main.cpp"
  16              		.text
  17              	.Ltext0:
  18              		.cfi_sections	.debug_frame
  19              		.section	.text._ZNK8std_msgs4Time9serializeEPh,"axG",%progbits,_ZNK8std_msgs4Time9serializeEPh,com
  20              		.align	1
  21              		.weak	_ZNK8std_msgs4Time9serializeEPh
  22              		.thumb
  23              		.thumb_func
  25              	_ZNK8std_msgs4Time9serializeEPh:
  26              		.fnstart
  27              	.LFB54:
  28              		.file 1 "./lib/ros_lib/std_msgs/Time.h"
   1:./lib/ros_lib/std_msgs/Time.h **** #ifndef _ROS_std_msgs_Time_h
   2:./lib/ros_lib/std_msgs/Time.h **** #define _ROS_std_msgs_Time_h
   3:./lib/ros_lib/std_msgs/Time.h **** 
   4:./lib/ros_lib/std_msgs/Time.h **** #include <stdint.h>
   5:./lib/ros_lib/std_msgs/Time.h **** #include <string.h>
   6:./lib/ros_lib/std_msgs/Time.h **** #include <stdlib.h>
   7:./lib/ros_lib/std_msgs/Time.h **** #include "ros/msg.h"
   8:./lib/ros_lib/std_msgs/Time.h **** #include "ros/time.h"
   9:./lib/ros_lib/std_msgs/Time.h **** 
  10:./lib/ros_lib/std_msgs/Time.h **** namespace std_msgs
  11:./lib/ros_lib/std_msgs/Time.h **** {
  12:./lib/ros_lib/std_msgs/Time.h **** 
  13:./lib/ros_lib/std_msgs/Time.h ****   class Time : public ros::Msg
  14:./lib/ros_lib/std_msgs/Time.h ****   {
  15:./lib/ros_lib/std_msgs/Time.h ****     public:
  16:./lib/ros_lib/std_msgs/Time.h ****       ros::Time data;
  17:./lib/ros_lib/std_msgs/Time.h **** 
  18:./lib/ros_lib/std_msgs/Time.h ****     Time():
  19:./lib/ros_lib/std_msgs/Time.h ****       data()
  20:./lib/ros_lib/std_msgs/Time.h ****     {
  21:./lib/ros_lib/std_msgs/Time.h ****     }
  22:./lib/ros_lib/std_msgs/Time.h **** 
  23:./lib/ros_lib/std_msgs/Time.h ****     virtual int serialize(unsigned char *outbuffer) const
  29              		.loc 1 23 0
  30              		.cfi_startproc
  31              		@ args = 0, pretend = 0, frame = 0
  32              		@ frame_needed = 0, uses_anonymous_args = 0
  33              		@ link register save eliminated.
  34              	.LVL0:
  24:./lib/ros_lib/std_msgs/Time.h ****     {
  25:./lib/ros_lib/std_msgs/Time.h ****       int offset = 0;
  26:./lib/ros_lib/std_msgs/Time.h ****       *(outbuffer + offset + 0) = (this->data.sec >> (8 * 0)) & 0xFF;
  35              		.loc 1 26 0
  36 0000 4368     		ldr	r3, [r0, #4]
  37 0002 0B70     		strb	r3, [r1]
  27:./lib/ros_lib/std_msgs/Time.h ****       *(outbuffer + offset + 1) = (this->data.sec >> (8 * 1)) & 0xFF;
  38              		.loc 1 27 0
  39 0004 4368     		ldr	r3, [r0, #4]
  40 0006 1B0A     		lsrs	r3, r3, #8
  41 0008 4B70     		strb	r3, [r1, #1]
  28:./lib/ros_lib/std_msgs/Time.h ****       *(outbuffer + offset + 2) = (this->data.sec >> (8 * 2)) & 0xFF;
  42              		.loc 1 28 0
  43 000a C388     		ldrh	r3, [r0, #6]
  44 000c 8B70     		strb	r3, [r1, #2]
  29:./lib/ros_lib/std_msgs/Time.h ****       *(outbuffer + offset + 3) = (this->data.sec >> (8 * 3)) & 0xFF;
  45              		.loc 1 29 0
  46 000e C379     		ldrb	r3, [r0, #7]	@ zero_extendqisi2
  47 0010 CB70     		strb	r3, [r1, #3]
  48              	.LVL1:
  30:./lib/ros_lib/std_msgs/Time.h ****       offset += sizeof(this->data.sec);
  31:./lib/ros_lib/std_msgs/Time.h ****       *(outbuffer + offset + 0) = (this->data.nsec >> (8 * 0)) & 0xFF;
  49              		.loc 1 31 0
  50 0012 8368     		ldr	r3, [r0, #8]
  51 0014 0B71     		strb	r3, [r1, #4]
  32:./lib/ros_lib/std_msgs/Time.h ****       *(outbuffer + offset + 1) = (this->data.nsec >> (8 * 1)) & 0xFF;
  52              		.loc 1 32 0
  53 0016 8368     		ldr	r3, [r0, #8]
  54 0018 1B0A     		lsrs	r3, r3, #8
  55 001a 4B71     		strb	r3, [r1, #5]
  33:./lib/ros_lib/std_msgs/Time.h ****       *(outbuffer + offset + 2) = (this->data.nsec >> (8 * 2)) & 0xFF;
  56              		.loc 1 33 0
  57 001c 4389     		ldrh	r3, [r0, #10]
  58 001e 8B71     		strb	r3, [r1, #6]
  34:./lib/ros_lib/std_msgs/Time.h ****       *(outbuffer + offset + 3) = (this->data.nsec >> (8 * 3)) & 0xFF;
  59              		.loc 1 34 0
  60 0020 C37A     		ldrb	r3, [r0, #11]	@ zero_extendqisi2
  35:./lib/ros_lib/std_msgs/Time.h ****       offset += sizeof(this->data.nsec);
  36:./lib/ros_lib/std_msgs/Time.h ****       return offset;
  37:./lib/ros_lib/std_msgs/Time.h ****     }
  61              		.loc 1 37 0
  62 0022 0820     		movs	r0, #8
  63              	.LVL2:
  34:./lib/ros_lib/std_msgs/Time.h ****       *(outbuffer + offset + 3) = (this->data.nsec >> (8 * 3)) & 0xFF;
  64              		.loc 1 34 0
  65 0024 CB71     		strb	r3, [r1, #7]
  66              	.LVL3:
  67              		.loc 1 37 0
  68 0026 7047     		bx	lr
  69              		.cfi_endproc
  70              	.LFE54:
  71              		.cantunwind
  72              		.fnend
  74              		.section	.text._ZN8std_msgs4Time11deserializeEPh,"axG",%progbits,_ZN8std_msgs4Time11deserializeEPh
  75              		.align	1
  76              		.weak	_ZN8std_msgs4Time11deserializeEPh
  77              		.thumb
  78              		.thumb_func
  80              	_ZN8std_msgs4Time11deserializeEPh:
  81              		.fnstart
  82              	.LFB55:
  38:./lib/ros_lib/std_msgs/Time.h **** 
  39:./lib/ros_lib/std_msgs/Time.h ****     virtual int deserialize(unsigned char *inbuffer)
  83              		.loc 1 39 0
  84              		.cfi_startproc
  85              		@ args = 0, pretend = 0, frame = 0
  86              		@ frame_needed = 0, uses_anonymous_args = 0
  87              		@ link register save eliminated.
  88              	.LVL4:
  40:./lib/ros_lib/std_msgs/Time.h ****     {
  41:./lib/ros_lib/std_msgs/Time.h ****       int offset = 0;
  42:./lib/ros_lib/std_msgs/Time.h ****       this->data.sec =  ((uint32_t) (*(inbuffer + offset)));
  89              		.loc 1 42 0
  90 0000 0B78     		ldrb	r3, [r1]	@ zero_extendqisi2
  91 0002 4360     		str	r3, [r0, #4]
  43:./lib/ros_lib/std_msgs/Time.h ****       this->data.sec |= ((uint32_t) (*(inbuffer + offset + 1))) << (8 * 1);
  92              		.loc 1 43 0
  93 0004 4A78     		ldrb	r2, [r1, #1]	@ zero_extendqisi2
  94 0006 43EA0223 		orr	r3, r3, r2, lsl #8
  95 000a 4360     		str	r3, [r0, #4]
  44:./lib/ros_lib/std_msgs/Time.h ****       this->data.sec |= ((uint32_t) (*(inbuffer + offset + 2))) << (8 * 2);
  96              		.loc 1 44 0
  97 000c 8A78     		ldrb	r2, [r1, #2]	@ zero_extendqisi2
  98 000e 43EA0243 		orr	r3, r3, r2, lsl #16
  99 0012 4360     		str	r3, [r0, #4]
  45:./lib/ros_lib/std_msgs/Time.h ****       this->data.sec |= ((uint32_t) (*(inbuffer + offset + 3))) << (8 * 3);
 100              		.loc 1 45 0
 101 0014 CA78     		ldrb	r2, [r1, #3]	@ zero_extendqisi2
 102 0016 43EA0263 		orr	r3, r3, r2, lsl #24
 103 001a 4360     		str	r3, [r0, #4]
 104              	.LVL5:
  46:./lib/ros_lib/std_msgs/Time.h ****       offset += sizeof(this->data.sec);
  47:./lib/ros_lib/std_msgs/Time.h ****       this->data.nsec =  ((uint32_t) (*(inbuffer + offset)));
 105              		.loc 1 47 0
 106 001c 0B79     		ldrb	r3, [r1, #4]	@ zero_extendqisi2
 107 001e 8360     		str	r3, [r0, #8]
  48:./lib/ros_lib/std_msgs/Time.h ****       this->data.nsec |= ((uint32_t) (*(inbuffer + offset + 1))) << (8 * 1);
 108              		.loc 1 48 0
 109 0020 4A79     		ldrb	r2, [r1, #5]	@ zero_extendqisi2
 110 0022 43EA0223 		orr	r3, r3, r2, lsl #8
 111 0026 8360     		str	r3, [r0, #8]
  49:./lib/ros_lib/std_msgs/Time.h ****       this->data.nsec |= ((uint32_t) (*(inbuffer + offset + 2))) << (8 * 2);
 112              		.loc 1 49 0
 113 0028 8A79     		ldrb	r2, [r1, #6]	@ zero_extendqisi2
 114 002a 43EA0243 		orr	r3, r3, r2, lsl #16
 115 002e 8360     		str	r3, [r0, #8]
  50:./lib/ros_lib/std_msgs/Time.h ****       this->data.nsec |= ((uint32_t) (*(inbuffer + offset + 3))) << (8 * 3);
 116              		.loc 1 50 0
 117 0030 CA79     		ldrb	r2, [r1, #7]	@ zero_extendqisi2
 118 0032 43EA0263 		orr	r3, r3, r2, lsl #24
 119 0036 8360     		str	r3, [r0, #8]
 120              	.LVL6:
  51:./lib/ros_lib/std_msgs/Time.h ****       offset += sizeof(this->data.nsec);
  52:./lib/ros_lib/std_msgs/Time.h ****      return offset;
  53:./lib/ros_lib/std_msgs/Time.h ****     }
 121              		.loc 1 53 0
 122 0038 0820     		movs	r0, #8
 123              	.LVL7:
 124 003a 7047     		bx	lr
 125              		.cfi_endproc
 126              	.LFE55:
 127              		.cantunwind
 128              		.fnend
 130              		.section	.text._ZN8std_msgs4Time7getTypeEv,"axG",%progbits,_ZN8std_msgs4Time7getTypeEv,comdat
 131              		.align	1
 132              		.weak	_ZN8std_msgs4Time7getTypeEv
 133              		.thumb
 134              		.thumb_func
 136              	_ZN8std_msgs4Time7getTypeEv:
 137              		.fnstart
 138              	.LFB56:
  54:./lib/ros_lib/std_msgs/Time.h **** 
  55:./lib/ros_lib/std_msgs/Time.h ****     const char * getType(){ return "std_msgs/Time"; };
 139              		.loc 1 55 0
 140              		.cfi_startproc
 141              		@ args = 0, pretend = 0, frame = 0
 142              		@ frame_needed = 0, uses_anonymous_args = 0
 143              		@ link register save eliminated.
 144              	.LVL8:
 145              		.loc 1 55 0
 146 0000 0048     		ldr	r0, .L4
 147              	.LVL9:
 148 0002 7047     		bx	lr
 149              	.L5:
 150              		.align	2
 151              	.L4:
 152 0004 00000000 		.word	.LC0
 153              		.cfi_endproc
 154              	.LFE56:
 155              		.cantunwind
 156              		.fnend
 158              		.section	.text._ZN8std_msgs4Time6getMD5Ev,"axG",%progbits,_ZN8std_msgs4Time6getMD5Ev,comdat
 159              		.align	1
 160              		.weak	_ZN8std_msgs4Time6getMD5Ev
 161              		.thumb
 162              		.thumb_func
 164              	_ZN8std_msgs4Time6getMD5Ev:
 165              		.fnstart
 166              	.LFB57:
  56:./lib/ros_lib/std_msgs/Time.h ****     const char * getMD5(){ return "cd7166c74c552c311fbcc2fe5a7bc289"; };
 167              		.loc 1 56 0
 168              		.cfi_startproc
 169              		@ args = 0, pretend = 0, frame = 0
 170              		@ frame_needed = 0, uses_anonymous_args = 0
 171              		@ link register save eliminated.
 172              	.LVL10:
 173              		.loc 1 56 0
 174 0000 0048     		ldr	r0, .L7
 175              	.LVL11:
 176 0002 7047     		bx	lr
 177              	.L8:
 178              		.align	2
 179              	.L7:
 180 0004 0E000000 		.word	.LC1
 181              		.cfi_endproc
 182              	.LFE57:
 183              		.cantunwind
 184              		.fnend
 186              		.section	.text._ZN14rosserial_msgs9TopicInfo7getTypeEv,"axG",%progbits,_ZN14rosserial_msgs9TopicIn
 187              		.align	1
 188              		.weak	_ZN14rosserial_msgs9TopicInfo7getTypeEv
 189              		.thumb
 190              		.thumb_func
 192              	_ZN14rosserial_msgs9TopicInfo7getTypeEv:
 193              		.fnstart
 194              	.LFB63:
 195              		.file 2 "./lib/ros_lib/rosserial_msgs/TopicInfo.h"
   1:./lib/ros_lib/rosserial_msgs/TopicInfo.h **** #ifndef _ROS_rosserial_msgs_TopicInfo_h
   2:./lib/ros_lib/rosserial_msgs/TopicInfo.h **** #define _ROS_rosserial_msgs_TopicInfo_h
   3:./lib/ros_lib/rosserial_msgs/TopicInfo.h **** 
   4:./lib/ros_lib/rosserial_msgs/TopicInfo.h **** #include <stdint.h>
   5:./lib/ros_lib/rosserial_msgs/TopicInfo.h **** #include <string.h>
   6:./lib/ros_lib/rosserial_msgs/TopicInfo.h **** #include <stdlib.h>
   7:./lib/ros_lib/rosserial_msgs/TopicInfo.h **** #include "ros/msg.h"
   8:./lib/ros_lib/rosserial_msgs/TopicInfo.h **** 
   9:./lib/ros_lib/rosserial_msgs/TopicInfo.h **** namespace rosserial_msgs
  10:./lib/ros_lib/rosserial_msgs/TopicInfo.h **** {
  11:./lib/ros_lib/rosserial_msgs/TopicInfo.h **** 
  12:./lib/ros_lib/rosserial_msgs/TopicInfo.h ****   class TopicInfo : public ros::Msg
  13:./lib/ros_lib/rosserial_msgs/TopicInfo.h ****   {
  14:./lib/ros_lib/rosserial_msgs/TopicInfo.h ****     public:
  15:./lib/ros_lib/rosserial_msgs/TopicInfo.h ****       uint16_t topic_id;
  16:./lib/ros_lib/rosserial_msgs/TopicInfo.h ****       const char* topic_name;
  17:./lib/ros_lib/rosserial_msgs/TopicInfo.h ****       const char* message_type;
  18:./lib/ros_lib/rosserial_msgs/TopicInfo.h ****       const char* md5sum;
  19:./lib/ros_lib/rosserial_msgs/TopicInfo.h ****       int32_t buffer_size;
  20:./lib/ros_lib/rosserial_msgs/TopicInfo.h ****       enum { ID_PUBLISHER = 0 };
  21:./lib/ros_lib/rosserial_msgs/TopicInfo.h ****       enum { ID_SUBSCRIBER = 1 };
  22:./lib/ros_lib/rosserial_msgs/TopicInfo.h ****       enum { ID_SERVICE_SERVER = 2 };
  23:./lib/ros_lib/rosserial_msgs/TopicInfo.h ****       enum { ID_SERVICE_CLIENT = 4 };
  24:./lib/ros_lib/rosserial_msgs/TopicInfo.h ****       enum { ID_PARAMETER_REQUEST = 6 };
  25:./lib/ros_lib/rosserial_msgs/TopicInfo.h ****       enum { ID_LOG = 7 };
  26:./lib/ros_lib/rosserial_msgs/TopicInfo.h ****       enum { ID_TIME = 10 };
  27:./lib/ros_lib/rosserial_msgs/TopicInfo.h ****       enum { ID_TX_STOP = 11 };
  28:./lib/ros_lib/rosserial_msgs/TopicInfo.h **** 
  29:./lib/ros_lib/rosserial_msgs/TopicInfo.h ****     TopicInfo():
  30:./lib/ros_lib/rosserial_msgs/TopicInfo.h ****       topic_id(0),
  31:./lib/ros_lib/rosserial_msgs/TopicInfo.h ****       topic_name(""),
  32:./lib/ros_lib/rosserial_msgs/TopicInfo.h ****       message_type(""),
  33:./lib/ros_lib/rosserial_msgs/TopicInfo.h ****       md5sum(""),
  34:./lib/ros_lib/rosserial_msgs/TopicInfo.h ****       buffer_size(0)
  35:./lib/ros_lib/rosserial_msgs/TopicInfo.h ****     {
  36:./lib/ros_lib/rosserial_msgs/TopicInfo.h ****     }
  37:./lib/ros_lib/rosserial_msgs/TopicInfo.h **** 
  38:./lib/ros_lib/rosserial_msgs/TopicInfo.h ****     virtual int serialize(unsigned char *outbuffer) const
  39:./lib/ros_lib/rosserial_msgs/TopicInfo.h ****     {
  40:./lib/ros_lib/rosserial_msgs/TopicInfo.h ****       int offset = 0;
  41:./lib/ros_lib/rosserial_msgs/TopicInfo.h ****       *(outbuffer + offset + 0) = (this->topic_id >> (8 * 0)) & 0xFF;
  42:./lib/ros_lib/rosserial_msgs/TopicInfo.h ****       *(outbuffer + offset + 1) = (this->topic_id >> (8 * 1)) & 0xFF;
  43:./lib/ros_lib/rosserial_msgs/TopicInfo.h ****       offset += sizeof(this->topic_id);
  44:./lib/ros_lib/rosserial_msgs/TopicInfo.h ****       uint32_t length_topic_name = strlen(this->topic_name);
  45:./lib/ros_lib/rosserial_msgs/TopicInfo.h ****       memcpy(outbuffer + offset, &length_topic_name, sizeof(uint32_t));
  46:./lib/ros_lib/rosserial_msgs/TopicInfo.h ****       offset += 4;
  47:./lib/ros_lib/rosserial_msgs/TopicInfo.h ****       memcpy(outbuffer + offset, this->topic_name, length_topic_name);
  48:./lib/ros_lib/rosserial_msgs/TopicInfo.h ****       offset += length_topic_name;
  49:./lib/ros_lib/rosserial_msgs/TopicInfo.h ****       uint32_t length_message_type = strlen(this->message_type);
  50:./lib/ros_lib/rosserial_msgs/TopicInfo.h ****       memcpy(outbuffer + offset, &length_message_type, sizeof(uint32_t));
  51:./lib/ros_lib/rosserial_msgs/TopicInfo.h ****       offset += 4;
  52:./lib/ros_lib/rosserial_msgs/TopicInfo.h ****       memcpy(outbuffer + offset, this->message_type, length_message_type);
  53:./lib/ros_lib/rosserial_msgs/TopicInfo.h ****       offset += length_message_type;
  54:./lib/ros_lib/rosserial_msgs/TopicInfo.h ****       uint32_t length_md5sum = strlen(this->md5sum);
  55:./lib/ros_lib/rosserial_msgs/TopicInfo.h ****       memcpy(outbuffer + offset, &length_md5sum, sizeof(uint32_t));
  56:./lib/ros_lib/rosserial_msgs/TopicInfo.h ****       offset += 4;
  57:./lib/ros_lib/rosserial_msgs/TopicInfo.h ****       memcpy(outbuffer + offset, this->md5sum, length_md5sum);
  58:./lib/ros_lib/rosserial_msgs/TopicInfo.h ****       offset += length_md5sum;
  59:./lib/ros_lib/rosserial_msgs/TopicInfo.h ****       union {
  60:./lib/ros_lib/rosserial_msgs/TopicInfo.h ****         int32_t real;
  61:./lib/ros_lib/rosserial_msgs/TopicInfo.h ****         uint32_t base;
  62:./lib/ros_lib/rosserial_msgs/TopicInfo.h ****       } u_buffer_size;
  63:./lib/ros_lib/rosserial_msgs/TopicInfo.h ****       u_buffer_size.real = this->buffer_size;
  64:./lib/ros_lib/rosserial_msgs/TopicInfo.h ****       *(outbuffer + offset + 0) = (u_buffer_size.base >> (8 * 0)) & 0xFF;
  65:./lib/ros_lib/rosserial_msgs/TopicInfo.h ****       *(outbuffer + offset + 1) = (u_buffer_size.base >> (8 * 1)) & 0xFF;
  66:./lib/ros_lib/rosserial_msgs/TopicInfo.h ****       *(outbuffer + offset + 2) = (u_buffer_size.base >> (8 * 2)) & 0xFF;
  67:./lib/ros_lib/rosserial_msgs/TopicInfo.h ****       *(outbuffer + offset + 3) = (u_buffer_size.base >> (8 * 3)) & 0xFF;
  68:./lib/ros_lib/rosserial_msgs/TopicInfo.h ****       offset += sizeof(this->buffer_size);
  69:./lib/ros_lib/rosserial_msgs/TopicInfo.h ****       return offset;
  70:./lib/ros_lib/rosserial_msgs/TopicInfo.h ****     }
  71:./lib/ros_lib/rosserial_msgs/TopicInfo.h **** 
  72:./lib/ros_lib/rosserial_msgs/TopicInfo.h ****     virtual int deserialize(unsigned char *inbuffer)
  73:./lib/ros_lib/rosserial_msgs/TopicInfo.h ****     {
  74:./lib/ros_lib/rosserial_msgs/TopicInfo.h ****       int offset = 0;
  75:./lib/ros_lib/rosserial_msgs/TopicInfo.h ****       this->topic_id =  ((uint16_t) (*(inbuffer + offset)));
  76:./lib/ros_lib/rosserial_msgs/TopicInfo.h ****       this->topic_id |= ((uint16_t) (*(inbuffer + offset + 1))) << (8 * 1);
  77:./lib/ros_lib/rosserial_msgs/TopicInfo.h ****       offset += sizeof(this->topic_id);
  78:./lib/ros_lib/rosserial_msgs/TopicInfo.h ****       uint32_t length_topic_name;
  79:./lib/ros_lib/rosserial_msgs/TopicInfo.h ****       memcpy(&length_topic_name, (inbuffer + offset), sizeof(uint32_t));
  80:./lib/ros_lib/rosserial_msgs/TopicInfo.h ****       offset += 4;
  81:./lib/ros_lib/rosserial_msgs/TopicInfo.h ****       for(unsigned int k= offset; k< offset+length_topic_name; ++k){
  82:./lib/ros_lib/rosserial_msgs/TopicInfo.h ****           inbuffer[k-1]=inbuffer[k];
  83:./lib/ros_lib/rosserial_msgs/TopicInfo.h ****       }
  84:./lib/ros_lib/rosserial_msgs/TopicInfo.h ****       inbuffer[offset+length_topic_name-1]=0;
  85:./lib/ros_lib/rosserial_msgs/TopicInfo.h ****       this->topic_name = (char *)(inbuffer + offset-1);
  86:./lib/ros_lib/rosserial_msgs/TopicInfo.h ****       offset += length_topic_name;
  87:./lib/ros_lib/rosserial_msgs/TopicInfo.h ****       uint32_t length_message_type;
  88:./lib/ros_lib/rosserial_msgs/TopicInfo.h ****       memcpy(&length_message_type, (inbuffer + offset), sizeof(uint32_t));
  89:./lib/ros_lib/rosserial_msgs/TopicInfo.h ****       offset += 4;
  90:./lib/ros_lib/rosserial_msgs/TopicInfo.h ****       for(unsigned int k= offset; k< offset+length_message_type; ++k){
  91:./lib/ros_lib/rosserial_msgs/TopicInfo.h ****           inbuffer[k-1]=inbuffer[k];
  92:./lib/ros_lib/rosserial_msgs/TopicInfo.h ****       }
  93:./lib/ros_lib/rosserial_msgs/TopicInfo.h ****       inbuffer[offset+length_message_type-1]=0;
  94:./lib/ros_lib/rosserial_msgs/TopicInfo.h ****       this->message_type = (char *)(inbuffer + offset-1);
  95:./lib/ros_lib/rosserial_msgs/TopicInfo.h ****       offset += length_message_type;
  96:./lib/ros_lib/rosserial_msgs/TopicInfo.h ****       uint32_t length_md5sum;
  97:./lib/ros_lib/rosserial_msgs/TopicInfo.h ****       memcpy(&length_md5sum, (inbuffer + offset), sizeof(uint32_t));
  98:./lib/ros_lib/rosserial_msgs/TopicInfo.h ****       offset += 4;
  99:./lib/ros_lib/rosserial_msgs/TopicInfo.h ****       for(unsigned int k= offset; k< offset+length_md5sum; ++k){
 100:./lib/ros_lib/rosserial_msgs/TopicInfo.h ****           inbuffer[k-1]=inbuffer[k];
 101:./lib/ros_lib/rosserial_msgs/TopicInfo.h ****       }
 102:./lib/ros_lib/rosserial_msgs/TopicInfo.h ****       inbuffer[offset+length_md5sum-1]=0;
 103:./lib/ros_lib/rosserial_msgs/TopicInfo.h ****       this->md5sum = (char *)(inbuffer + offset-1);
 104:./lib/ros_lib/rosserial_msgs/TopicInfo.h ****       offset += length_md5sum;
 105:./lib/ros_lib/rosserial_msgs/TopicInfo.h ****       union {
 106:./lib/ros_lib/rosserial_msgs/TopicInfo.h ****         int32_t real;
 107:./lib/ros_lib/rosserial_msgs/TopicInfo.h ****         uint32_t base;
 108:./lib/ros_lib/rosserial_msgs/TopicInfo.h ****       } u_buffer_size;
 109:./lib/ros_lib/rosserial_msgs/TopicInfo.h ****       u_buffer_size.base = 0;
 110:./lib/ros_lib/rosserial_msgs/TopicInfo.h ****       u_buffer_size.base |= ((uint32_t) (*(inbuffer + offset + 0))) << (8 * 0);
 111:./lib/ros_lib/rosserial_msgs/TopicInfo.h ****       u_buffer_size.base |= ((uint32_t) (*(inbuffer + offset + 1))) << (8 * 1);
 112:./lib/ros_lib/rosserial_msgs/TopicInfo.h ****       u_buffer_size.base |= ((uint32_t) (*(inbuffer + offset + 2))) << (8 * 2);
 113:./lib/ros_lib/rosserial_msgs/TopicInfo.h ****       u_buffer_size.base |= ((uint32_t) (*(inbuffer + offset + 3))) << (8 * 3);
 114:./lib/ros_lib/rosserial_msgs/TopicInfo.h ****       this->buffer_size = u_buffer_size.real;
 115:./lib/ros_lib/rosserial_msgs/TopicInfo.h ****       offset += sizeof(this->buffer_size);
 116:./lib/ros_lib/rosserial_msgs/TopicInfo.h ****      return offset;
 117:./lib/ros_lib/rosserial_msgs/TopicInfo.h ****     }
 118:./lib/ros_lib/rosserial_msgs/TopicInfo.h **** 
 119:./lib/ros_lib/rosserial_msgs/TopicInfo.h ****     const char * getType(){ return "rosserial_msgs/TopicInfo"; };
 196              		.loc 2 119 0
 197              		.cfi_startproc
 198              		@ args = 0, pretend = 0, frame = 0
 199              		@ frame_needed = 0, uses_anonymous_args = 0
 200              		@ link register save eliminated.
 201              	.LVL12:
 202              		.loc 2 119 0
 203 0000 0048     		ldr	r0, .L10
 204              	.LVL13:
 205 0002 7047     		bx	lr
 206              	.L11:
 207              		.align	2
 208              	.L10:
 209 0004 2F000000 		.word	.LC2
 210              		.cfi_endproc
 211              	.LFE63:
 212              		.cantunwind
 213              		.fnend
 215              		.section	.text._ZN14rosserial_msgs9TopicInfo6getMD5Ev,"axG",%progbits,_ZN14rosserial_msgs9TopicInf
 216              		.align	1
 217              		.weak	_ZN14rosserial_msgs9TopicInfo6getMD5Ev
 218              		.thumb
 219              		.thumb_func
 221              	_ZN14rosserial_msgs9TopicInfo6getMD5Ev:
 222              		.fnstart
 223              	.LFB64:
 120:./lib/ros_lib/rosserial_msgs/TopicInfo.h ****     const char * getMD5(){ return "0ad51f88fc44892f8c10684077646005"; };
 224              		.loc 2 120 0
 225              		.cfi_startproc
 226              		@ args = 0, pretend = 0, frame = 0
 227              		@ frame_needed = 0, uses_anonymous_args = 0
 228              		@ link register save eliminated.
 229              	.LVL14:
 230              		.loc 2 120 0
 231 0000 0048     		ldr	r0, .L13
 232              	.LVL15:
 233 0002 7047     		bx	lr
 234              	.L14:
 235              		.align	2
 236              	.L13:
 237 0004 48000000 		.word	.LC3
 238              		.cfi_endproc
 239              	.LFE64:
 240              		.cantunwind
 241              		.fnend
 243              		.section	.text._ZN14rosserial_msgs3Log7getTypeEv,"axG",%progbits,_ZN14rosserial_msgs3Log7getTypeEv
 244              		.align	1
 245              		.weak	_ZN14rosserial_msgs3Log7getTypeEv
 246              		.thumb
 247              		.thumb_func
 249              	_ZN14rosserial_msgs3Log7getTypeEv:
 250              		.fnstart
 251              	.LFB70:
 252              		.file 3 "./lib/ros_lib/rosserial_msgs/Log.h"
   1:./lib/ros_lib/rosserial_msgs/Log.h **** #ifndef _ROS_rosserial_msgs_Log_h
   2:./lib/ros_lib/rosserial_msgs/Log.h **** #define _ROS_rosserial_msgs_Log_h
   3:./lib/ros_lib/rosserial_msgs/Log.h **** 
   4:./lib/ros_lib/rosserial_msgs/Log.h **** #include <stdint.h>
   5:./lib/ros_lib/rosserial_msgs/Log.h **** #include <string.h>
   6:./lib/ros_lib/rosserial_msgs/Log.h **** #include <stdlib.h>
   7:./lib/ros_lib/rosserial_msgs/Log.h **** #include "ros/msg.h"
   8:./lib/ros_lib/rosserial_msgs/Log.h **** 
   9:./lib/ros_lib/rosserial_msgs/Log.h **** namespace rosserial_msgs
  10:./lib/ros_lib/rosserial_msgs/Log.h **** {
  11:./lib/ros_lib/rosserial_msgs/Log.h **** 
  12:./lib/ros_lib/rosserial_msgs/Log.h ****   class Log : public ros::Msg
  13:./lib/ros_lib/rosserial_msgs/Log.h ****   {
  14:./lib/ros_lib/rosserial_msgs/Log.h ****     public:
  15:./lib/ros_lib/rosserial_msgs/Log.h ****       uint8_t level;
  16:./lib/ros_lib/rosserial_msgs/Log.h ****       const char* msg;
  17:./lib/ros_lib/rosserial_msgs/Log.h ****       enum { ROSDEBUG = 0 };
  18:./lib/ros_lib/rosserial_msgs/Log.h ****       enum { INFO = 1 };
  19:./lib/ros_lib/rosserial_msgs/Log.h ****       enum { WARN = 2 };
  20:./lib/ros_lib/rosserial_msgs/Log.h ****       enum { ERROR = 3 };
  21:./lib/ros_lib/rosserial_msgs/Log.h ****       enum { FATAL = 4 };
  22:./lib/ros_lib/rosserial_msgs/Log.h **** 
  23:./lib/ros_lib/rosserial_msgs/Log.h ****     Log():
  24:./lib/ros_lib/rosserial_msgs/Log.h ****       level(0),
  25:./lib/ros_lib/rosserial_msgs/Log.h ****       msg("")
  26:./lib/ros_lib/rosserial_msgs/Log.h ****     {
  27:./lib/ros_lib/rosserial_msgs/Log.h ****     }
  28:./lib/ros_lib/rosserial_msgs/Log.h **** 
  29:./lib/ros_lib/rosserial_msgs/Log.h ****     virtual int serialize(unsigned char *outbuffer) const
  30:./lib/ros_lib/rosserial_msgs/Log.h ****     {
  31:./lib/ros_lib/rosserial_msgs/Log.h ****       int offset = 0;
  32:./lib/ros_lib/rosserial_msgs/Log.h ****       *(outbuffer + offset + 0) = (this->level >> (8 * 0)) & 0xFF;
  33:./lib/ros_lib/rosserial_msgs/Log.h ****       offset += sizeof(this->level);
  34:./lib/ros_lib/rosserial_msgs/Log.h ****       uint32_t length_msg = strlen(this->msg);
  35:./lib/ros_lib/rosserial_msgs/Log.h ****       memcpy(outbuffer + offset, &length_msg, sizeof(uint32_t));
  36:./lib/ros_lib/rosserial_msgs/Log.h ****       offset += 4;
  37:./lib/ros_lib/rosserial_msgs/Log.h ****       memcpy(outbuffer + offset, this->msg, length_msg);
  38:./lib/ros_lib/rosserial_msgs/Log.h ****       offset += length_msg;
  39:./lib/ros_lib/rosserial_msgs/Log.h ****       return offset;
  40:./lib/ros_lib/rosserial_msgs/Log.h ****     }
  41:./lib/ros_lib/rosserial_msgs/Log.h **** 
  42:./lib/ros_lib/rosserial_msgs/Log.h ****     virtual int deserialize(unsigned char *inbuffer)
  43:./lib/ros_lib/rosserial_msgs/Log.h ****     {
  44:./lib/ros_lib/rosserial_msgs/Log.h ****       int offset = 0;
  45:./lib/ros_lib/rosserial_msgs/Log.h ****       this->level =  ((uint8_t) (*(inbuffer + offset)));
  46:./lib/ros_lib/rosserial_msgs/Log.h ****       offset += sizeof(this->level);
  47:./lib/ros_lib/rosserial_msgs/Log.h ****       uint32_t length_msg;
  48:./lib/ros_lib/rosserial_msgs/Log.h ****       memcpy(&length_msg, (inbuffer + offset), sizeof(uint32_t));
  49:./lib/ros_lib/rosserial_msgs/Log.h ****       offset += 4;
  50:./lib/ros_lib/rosserial_msgs/Log.h ****       for(unsigned int k= offset; k< offset+length_msg; ++k){
  51:./lib/ros_lib/rosserial_msgs/Log.h ****           inbuffer[k-1]=inbuffer[k];
  52:./lib/ros_lib/rosserial_msgs/Log.h ****       }
  53:./lib/ros_lib/rosserial_msgs/Log.h ****       inbuffer[offset+length_msg-1]=0;
  54:./lib/ros_lib/rosserial_msgs/Log.h ****       this->msg = (char *)(inbuffer + offset-1);
  55:./lib/ros_lib/rosserial_msgs/Log.h ****       offset += length_msg;
  56:./lib/ros_lib/rosserial_msgs/Log.h ****      return offset;
  57:./lib/ros_lib/rosserial_msgs/Log.h ****     }
  58:./lib/ros_lib/rosserial_msgs/Log.h **** 
  59:./lib/ros_lib/rosserial_msgs/Log.h ****     const char * getType(){ return "rosserial_msgs/Log"; };
 253              		.loc 3 59 0
 254              		.cfi_startproc
 255              		@ args = 0, pretend = 0, frame = 0
 256              		@ frame_needed = 0, uses_anonymous_args = 0
 257              		@ link register save eliminated.
 258              	.LVL16:
 259              		.loc 3 59 0
 260 0000 0048     		ldr	r0, .L16
 261              	.LVL17:
 262 0002 7047     		bx	lr
 263              	.L17:
 264              		.align	2
 265              	.L16:
 266 0004 69000000 		.word	.LC4
 267              		.cfi_endproc
 268              	.LFE70:
 269              		.cantunwind
 270              		.fnend
 272              		.section	.text._ZN14rosserial_msgs3Log6getMD5Ev,"axG",%progbits,_ZN14rosserial_msgs3Log6getMD5Ev,c
 273              		.align	1
 274              		.weak	_ZN14rosserial_msgs3Log6getMD5Ev
 275              		.thumb
 276              		.thumb_func
 278              	_ZN14rosserial_msgs3Log6getMD5Ev:
 279              		.fnstart
 280              	.LFB71:
  60:./lib/ros_lib/rosserial_msgs/Log.h ****     const char * getMD5(){ return "11abd731c25933261cd6183bd12d6295"; };
 281              		.loc 3 60 0
 282              		.cfi_startproc
 283              		@ args = 0, pretend = 0, frame = 0
 284              		@ frame_needed = 0, uses_anonymous_args = 0
 285              		@ link register save eliminated.
 286              	.LVL18:
 287              		.loc 3 60 0
 288 0000 0048     		ldr	r0, .L19
 289              	.LVL19:
 290 0002 7047     		bx	lr
 291              	.L20:
 292              		.align	2
 293              	.L19:
 294 0004 7C000000 		.word	.LC5
 295              		.cfi_endproc
 296              	.LFE71:
 297              		.cantunwind
 298              		.fnend
 300              		.section	.text._ZN14rosserial_msgs20RequestParamResponse7getTypeEv,"axG",%progbits,_ZN14rosserial_
 301              		.align	1
 302              		.weak	_ZN14rosserial_msgs20RequestParamResponse7getTypeEv
 303              		.thumb
 304              		.thumb_func
 306              	_ZN14rosserial_msgs20RequestParamResponse7getTypeEv:
 307              		.fnstart
 308              	.LFB84:
 309              		.file 4 "./lib/ros_lib/rosserial_msgs/RequestParam.h"
   1:./lib/ros_lib/rosserial_msgs/RequestParam.h **** #ifndef _ROS_SERVICE_RequestParam_h
   2:./lib/ros_lib/rosserial_msgs/RequestParam.h **** #define _ROS_SERVICE_RequestParam_h
   3:./lib/ros_lib/rosserial_msgs/RequestParam.h **** #include <stdint.h>
   4:./lib/ros_lib/rosserial_msgs/RequestParam.h **** #include <string.h>
   5:./lib/ros_lib/rosserial_msgs/RequestParam.h **** #include <stdlib.h>
   6:./lib/ros_lib/rosserial_msgs/RequestParam.h **** #include "ros/msg.h"
   7:./lib/ros_lib/rosserial_msgs/RequestParam.h **** 
   8:./lib/ros_lib/rosserial_msgs/RequestParam.h **** namespace rosserial_msgs
   9:./lib/ros_lib/rosserial_msgs/RequestParam.h **** {
  10:./lib/ros_lib/rosserial_msgs/RequestParam.h **** 
  11:./lib/ros_lib/rosserial_msgs/RequestParam.h **** static const char REQUESTPARAM[] = "rosserial_msgs/RequestParam";
  12:./lib/ros_lib/rosserial_msgs/RequestParam.h **** 
  13:./lib/ros_lib/rosserial_msgs/RequestParam.h ****   class RequestParamRequest : public ros::Msg
  14:./lib/ros_lib/rosserial_msgs/RequestParam.h ****   {
  15:./lib/ros_lib/rosserial_msgs/RequestParam.h ****     public:
  16:./lib/ros_lib/rosserial_msgs/RequestParam.h ****       const char* name;
  17:./lib/ros_lib/rosserial_msgs/RequestParam.h **** 
  18:./lib/ros_lib/rosserial_msgs/RequestParam.h ****     RequestParamRequest():
  19:./lib/ros_lib/rosserial_msgs/RequestParam.h ****       name("")
  20:./lib/ros_lib/rosserial_msgs/RequestParam.h ****     {
  21:./lib/ros_lib/rosserial_msgs/RequestParam.h ****     }
  22:./lib/ros_lib/rosserial_msgs/RequestParam.h **** 
  23:./lib/ros_lib/rosserial_msgs/RequestParam.h ****     virtual int serialize(unsigned char *outbuffer) const
  24:./lib/ros_lib/rosserial_msgs/RequestParam.h ****     {
  25:./lib/ros_lib/rosserial_msgs/RequestParam.h ****       int offset = 0;
  26:./lib/ros_lib/rosserial_msgs/RequestParam.h ****       uint32_t length_name = strlen(this->name);
  27:./lib/ros_lib/rosserial_msgs/RequestParam.h ****       memcpy(outbuffer + offset, &length_name, sizeof(uint32_t));
  28:./lib/ros_lib/rosserial_msgs/RequestParam.h ****       offset += 4;
  29:./lib/ros_lib/rosserial_msgs/RequestParam.h ****       memcpy(outbuffer + offset, this->name, length_name);
  30:./lib/ros_lib/rosserial_msgs/RequestParam.h ****       offset += length_name;
  31:./lib/ros_lib/rosserial_msgs/RequestParam.h ****       return offset;
  32:./lib/ros_lib/rosserial_msgs/RequestParam.h ****     }
  33:./lib/ros_lib/rosserial_msgs/RequestParam.h **** 
  34:./lib/ros_lib/rosserial_msgs/RequestParam.h ****     virtual int deserialize(unsigned char *inbuffer)
  35:./lib/ros_lib/rosserial_msgs/RequestParam.h ****     {
  36:./lib/ros_lib/rosserial_msgs/RequestParam.h ****       int offset = 0;
  37:./lib/ros_lib/rosserial_msgs/RequestParam.h ****       uint32_t length_name;
  38:./lib/ros_lib/rosserial_msgs/RequestParam.h ****       memcpy(&length_name, (inbuffer + offset), sizeof(uint32_t));
  39:./lib/ros_lib/rosserial_msgs/RequestParam.h ****       offset += 4;
  40:./lib/ros_lib/rosserial_msgs/RequestParam.h ****       for(unsigned int k= offset; k< offset+length_name; ++k){
  41:./lib/ros_lib/rosserial_msgs/RequestParam.h ****           inbuffer[k-1]=inbuffer[k];
  42:./lib/ros_lib/rosserial_msgs/RequestParam.h ****       }
  43:./lib/ros_lib/rosserial_msgs/RequestParam.h ****       inbuffer[offset+length_name-1]=0;
  44:./lib/ros_lib/rosserial_msgs/RequestParam.h ****       this->name = (char *)(inbuffer + offset-1);
  45:./lib/ros_lib/rosserial_msgs/RequestParam.h ****       offset += length_name;
  46:./lib/ros_lib/rosserial_msgs/RequestParam.h ****      return offset;
  47:./lib/ros_lib/rosserial_msgs/RequestParam.h ****     }
  48:./lib/ros_lib/rosserial_msgs/RequestParam.h **** 
  49:./lib/ros_lib/rosserial_msgs/RequestParam.h ****     const char * getType(){ return REQUESTPARAM; };
  50:./lib/ros_lib/rosserial_msgs/RequestParam.h ****     const char * getMD5(){ return "c1f3d28f1b044c871e6eff2e9fc3c667"; };
  51:./lib/ros_lib/rosserial_msgs/RequestParam.h **** 
  52:./lib/ros_lib/rosserial_msgs/RequestParam.h ****   };
  53:./lib/ros_lib/rosserial_msgs/RequestParam.h **** 
  54:./lib/ros_lib/rosserial_msgs/RequestParam.h ****   class RequestParamResponse : public ros::Msg
  55:./lib/ros_lib/rosserial_msgs/RequestParam.h ****   {
  56:./lib/ros_lib/rosserial_msgs/RequestParam.h ****     public:
  57:./lib/ros_lib/rosserial_msgs/RequestParam.h ****       uint8_t ints_length;
  58:./lib/ros_lib/rosserial_msgs/RequestParam.h ****       int32_t st_ints;
  59:./lib/ros_lib/rosserial_msgs/RequestParam.h ****       int32_t * ints;
  60:./lib/ros_lib/rosserial_msgs/RequestParam.h ****       uint8_t floats_length;
  61:./lib/ros_lib/rosserial_msgs/RequestParam.h ****       float st_floats;
  62:./lib/ros_lib/rosserial_msgs/RequestParam.h ****       float * floats;
  63:./lib/ros_lib/rosserial_msgs/RequestParam.h ****       uint8_t strings_length;
  64:./lib/ros_lib/rosserial_msgs/RequestParam.h ****       char* st_strings;
  65:./lib/ros_lib/rosserial_msgs/RequestParam.h ****       char* * strings;
  66:./lib/ros_lib/rosserial_msgs/RequestParam.h **** 
  67:./lib/ros_lib/rosserial_msgs/RequestParam.h ****     RequestParamResponse():
  68:./lib/ros_lib/rosserial_msgs/RequestParam.h ****       ints_length(0), ints(NULL),
  69:./lib/ros_lib/rosserial_msgs/RequestParam.h ****       floats_length(0), floats(NULL),
  70:./lib/ros_lib/rosserial_msgs/RequestParam.h ****       strings_length(0), strings(NULL)
  71:./lib/ros_lib/rosserial_msgs/RequestParam.h ****     {
  72:./lib/ros_lib/rosserial_msgs/RequestParam.h ****     }
  73:./lib/ros_lib/rosserial_msgs/RequestParam.h **** 
  74:./lib/ros_lib/rosserial_msgs/RequestParam.h ****     virtual int serialize(unsigned char *outbuffer) const
  75:./lib/ros_lib/rosserial_msgs/RequestParam.h ****     {
  76:./lib/ros_lib/rosserial_msgs/RequestParam.h ****       int offset = 0;
  77:./lib/ros_lib/rosserial_msgs/RequestParam.h ****       *(outbuffer + offset++) = ints_length;
  78:./lib/ros_lib/rosserial_msgs/RequestParam.h ****       *(outbuffer + offset++) = 0;
  79:./lib/ros_lib/rosserial_msgs/RequestParam.h ****       *(outbuffer + offset++) = 0;
  80:./lib/ros_lib/rosserial_msgs/RequestParam.h ****       *(outbuffer + offset++) = 0;
  81:./lib/ros_lib/rosserial_msgs/RequestParam.h ****       for( uint8_t i = 0; i < ints_length; i++){
  82:./lib/ros_lib/rosserial_msgs/RequestParam.h ****       union {
  83:./lib/ros_lib/rosserial_msgs/RequestParam.h ****         int32_t real;
  84:./lib/ros_lib/rosserial_msgs/RequestParam.h ****         uint32_t base;
  85:./lib/ros_lib/rosserial_msgs/RequestParam.h ****       } u_intsi;
  86:./lib/ros_lib/rosserial_msgs/RequestParam.h ****       u_intsi.real = this->ints[i];
  87:./lib/ros_lib/rosserial_msgs/RequestParam.h ****       *(outbuffer + offset + 0) = (u_intsi.base >> (8 * 0)) & 0xFF;
  88:./lib/ros_lib/rosserial_msgs/RequestParam.h ****       *(outbuffer + offset + 1) = (u_intsi.base >> (8 * 1)) & 0xFF;
  89:./lib/ros_lib/rosserial_msgs/RequestParam.h ****       *(outbuffer + offset + 2) = (u_intsi.base >> (8 * 2)) & 0xFF;
  90:./lib/ros_lib/rosserial_msgs/RequestParam.h ****       *(outbuffer + offset + 3) = (u_intsi.base >> (8 * 3)) & 0xFF;
  91:./lib/ros_lib/rosserial_msgs/RequestParam.h ****       offset += sizeof(this->ints[i]);
  92:./lib/ros_lib/rosserial_msgs/RequestParam.h ****       }
  93:./lib/ros_lib/rosserial_msgs/RequestParam.h ****       *(outbuffer + offset++) = floats_length;
  94:./lib/ros_lib/rosserial_msgs/RequestParam.h ****       *(outbuffer + offset++) = 0;
  95:./lib/ros_lib/rosserial_msgs/RequestParam.h ****       *(outbuffer + offset++) = 0;
  96:./lib/ros_lib/rosserial_msgs/RequestParam.h ****       *(outbuffer + offset++) = 0;
  97:./lib/ros_lib/rosserial_msgs/RequestParam.h ****       for( uint8_t i = 0; i < floats_length; i++){
  98:./lib/ros_lib/rosserial_msgs/RequestParam.h ****       union {
  99:./lib/ros_lib/rosserial_msgs/RequestParam.h ****         float real;
 100:./lib/ros_lib/rosserial_msgs/RequestParam.h ****         uint32_t base;
 101:./lib/ros_lib/rosserial_msgs/RequestParam.h ****       } u_floatsi;
 102:./lib/ros_lib/rosserial_msgs/RequestParam.h ****       u_floatsi.real = this->floats[i];
 103:./lib/ros_lib/rosserial_msgs/RequestParam.h ****       *(outbuffer + offset + 0) = (u_floatsi.base >> (8 * 0)) & 0xFF;
 104:./lib/ros_lib/rosserial_msgs/RequestParam.h ****       *(outbuffer + offset + 1) = (u_floatsi.base >> (8 * 1)) & 0xFF;
 105:./lib/ros_lib/rosserial_msgs/RequestParam.h ****       *(outbuffer + offset + 2) = (u_floatsi.base >> (8 * 2)) & 0xFF;
 106:./lib/ros_lib/rosserial_msgs/RequestParam.h ****       *(outbuffer + offset + 3) = (u_floatsi.base >> (8 * 3)) & 0xFF;
 107:./lib/ros_lib/rosserial_msgs/RequestParam.h ****       offset += sizeof(this->floats[i]);
 108:./lib/ros_lib/rosserial_msgs/RequestParam.h ****       }
 109:./lib/ros_lib/rosserial_msgs/RequestParam.h ****       *(outbuffer + offset++) = strings_length;
 110:./lib/ros_lib/rosserial_msgs/RequestParam.h ****       *(outbuffer + offset++) = 0;
 111:./lib/ros_lib/rosserial_msgs/RequestParam.h ****       *(outbuffer + offset++) = 0;
 112:./lib/ros_lib/rosserial_msgs/RequestParam.h ****       *(outbuffer + offset++) = 0;
 113:./lib/ros_lib/rosserial_msgs/RequestParam.h ****       for( uint8_t i = 0; i < strings_length; i++){
 114:./lib/ros_lib/rosserial_msgs/RequestParam.h ****       uint32_t length_stringsi = strlen(this->strings[i]);
 115:./lib/ros_lib/rosserial_msgs/RequestParam.h ****       memcpy(outbuffer + offset, &length_stringsi, sizeof(uint32_t));
 116:./lib/ros_lib/rosserial_msgs/RequestParam.h ****       offset += 4;
 117:./lib/ros_lib/rosserial_msgs/RequestParam.h ****       memcpy(outbuffer + offset, this->strings[i], length_stringsi);
 118:./lib/ros_lib/rosserial_msgs/RequestParam.h ****       offset += length_stringsi;
 119:./lib/ros_lib/rosserial_msgs/RequestParam.h ****       }
 120:./lib/ros_lib/rosserial_msgs/RequestParam.h ****       return offset;
 121:./lib/ros_lib/rosserial_msgs/RequestParam.h ****     }
 122:./lib/ros_lib/rosserial_msgs/RequestParam.h **** 
 123:./lib/ros_lib/rosserial_msgs/RequestParam.h ****     virtual int deserialize(unsigned char *inbuffer)
 124:./lib/ros_lib/rosserial_msgs/RequestParam.h ****     {
 125:./lib/ros_lib/rosserial_msgs/RequestParam.h ****       int offset = 0;
 126:./lib/ros_lib/rosserial_msgs/RequestParam.h ****       uint8_t ints_lengthT = *(inbuffer + offset++);
 127:./lib/ros_lib/rosserial_msgs/RequestParam.h ****       if(ints_lengthT > ints_length)
 128:./lib/ros_lib/rosserial_msgs/RequestParam.h ****         this->ints = (int32_t*)realloc(this->ints, ints_lengthT * sizeof(int32_t));
 129:./lib/ros_lib/rosserial_msgs/RequestParam.h ****       offset += 3;
 130:./lib/ros_lib/rosserial_msgs/RequestParam.h ****       ints_length = ints_lengthT;
 131:./lib/ros_lib/rosserial_msgs/RequestParam.h ****       for( uint8_t i = 0; i < ints_length; i++){
 132:./lib/ros_lib/rosserial_msgs/RequestParam.h ****       union {
 133:./lib/ros_lib/rosserial_msgs/RequestParam.h ****         int32_t real;
 134:./lib/ros_lib/rosserial_msgs/RequestParam.h ****         uint32_t base;
 135:./lib/ros_lib/rosserial_msgs/RequestParam.h ****       } u_st_ints;
 136:./lib/ros_lib/rosserial_msgs/RequestParam.h ****       u_st_ints.base = 0;
 137:./lib/ros_lib/rosserial_msgs/RequestParam.h ****       u_st_ints.base |= ((uint32_t) (*(inbuffer + offset + 0))) << (8 * 0);
 138:./lib/ros_lib/rosserial_msgs/RequestParam.h ****       u_st_ints.base |= ((uint32_t) (*(inbuffer + offset + 1))) << (8 * 1);
 139:./lib/ros_lib/rosserial_msgs/RequestParam.h ****       u_st_ints.base |= ((uint32_t) (*(inbuffer + offset + 2))) << (8 * 2);
 140:./lib/ros_lib/rosserial_msgs/RequestParam.h ****       u_st_ints.base |= ((uint32_t) (*(inbuffer + offset + 3))) << (8 * 3);
 141:./lib/ros_lib/rosserial_msgs/RequestParam.h ****       this->st_ints = u_st_ints.real;
 142:./lib/ros_lib/rosserial_msgs/RequestParam.h ****       offset += sizeof(this->st_ints);
 143:./lib/ros_lib/rosserial_msgs/RequestParam.h ****         memcpy( &(this->ints[i]), &(this->st_ints), sizeof(int32_t));
 144:./lib/ros_lib/rosserial_msgs/RequestParam.h ****       }
 145:./lib/ros_lib/rosserial_msgs/RequestParam.h ****       uint8_t floats_lengthT = *(inbuffer + offset++);
 146:./lib/ros_lib/rosserial_msgs/RequestParam.h ****       if(floats_lengthT > floats_length)
 147:./lib/ros_lib/rosserial_msgs/RequestParam.h ****         this->floats = (float*)realloc(this->floats, floats_lengthT * sizeof(float));
 148:./lib/ros_lib/rosserial_msgs/RequestParam.h ****       offset += 3;
 149:./lib/ros_lib/rosserial_msgs/RequestParam.h ****       floats_length = floats_lengthT;
 150:./lib/ros_lib/rosserial_msgs/RequestParam.h ****       for( uint8_t i = 0; i < floats_length; i++){
 151:./lib/ros_lib/rosserial_msgs/RequestParam.h ****       union {
 152:./lib/ros_lib/rosserial_msgs/RequestParam.h ****         float real;
 153:./lib/ros_lib/rosserial_msgs/RequestParam.h ****         uint32_t base;
 154:./lib/ros_lib/rosserial_msgs/RequestParam.h ****       } u_st_floats;
 155:./lib/ros_lib/rosserial_msgs/RequestParam.h ****       u_st_floats.base = 0;
 156:./lib/ros_lib/rosserial_msgs/RequestParam.h ****       u_st_floats.base |= ((uint32_t) (*(inbuffer + offset + 0))) << (8 * 0);
 157:./lib/ros_lib/rosserial_msgs/RequestParam.h ****       u_st_floats.base |= ((uint32_t) (*(inbuffer + offset + 1))) << (8 * 1);
 158:./lib/ros_lib/rosserial_msgs/RequestParam.h ****       u_st_floats.base |= ((uint32_t) (*(inbuffer + offset + 2))) << (8 * 2);
 159:./lib/ros_lib/rosserial_msgs/RequestParam.h ****       u_st_floats.base |= ((uint32_t) (*(inbuffer + offset + 3))) << (8 * 3);
 160:./lib/ros_lib/rosserial_msgs/RequestParam.h ****       this->st_floats = u_st_floats.real;
 161:./lib/ros_lib/rosserial_msgs/RequestParam.h ****       offset += sizeof(this->st_floats);
 162:./lib/ros_lib/rosserial_msgs/RequestParam.h ****         memcpy( &(this->floats[i]), &(this->st_floats), sizeof(float));
 163:./lib/ros_lib/rosserial_msgs/RequestParam.h ****       }
 164:./lib/ros_lib/rosserial_msgs/RequestParam.h ****       uint8_t strings_lengthT = *(inbuffer + offset++);
 165:./lib/ros_lib/rosserial_msgs/RequestParam.h ****       if(strings_lengthT > strings_length)
 166:./lib/ros_lib/rosserial_msgs/RequestParam.h ****         this->strings = (char**)realloc(this->strings, strings_lengthT * sizeof(char*));
 167:./lib/ros_lib/rosserial_msgs/RequestParam.h ****       offset += 3;
 168:./lib/ros_lib/rosserial_msgs/RequestParam.h ****       strings_length = strings_lengthT;
 169:./lib/ros_lib/rosserial_msgs/RequestParam.h ****       for( uint8_t i = 0; i < strings_length; i++){
 170:./lib/ros_lib/rosserial_msgs/RequestParam.h ****       uint32_t length_st_strings;
 171:./lib/ros_lib/rosserial_msgs/RequestParam.h ****       memcpy(&length_st_strings, (inbuffer + offset), sizeof(uint32_t));
 172:./lib/ros_lib/rosserial_msgs/RequestParam.h ****       offset += 4;
 173:./lib/ros_lib/rosserial_msgs/RequestParam.h ****       for(unsigned int k= offset; k< offset+length_st_strings; ++k){
 174:./lib/ros_lib/rosserial_msgs/RequestParam.h ****           inbuffer[k-1]=inbuffer[k];
 175:./lib/ros_lib/rosserial_msgs/RequestParam.h ****       }
 176:./lib/ros_lib/rosserial_msgs/RequestParam.h ****       inbuffer[offset+length_st_strings-1]=0;
 177:./lib/ros_lib/rosserial_msgs/RequestParam.h ****       this->st_strings = (char *)(inbuffer + offset-1);
 178:./lib/ros_lib/rosserial_msgs/RequestParam.h ****       offset += length_st_strings;
 179:./lib/ros_lib/rosserial_msgs/RequestParam.h ****         memcpy( &(this->strings[i]), &(this->st_strings), sizeof(char*));
 180:./lib/ros_lib/rosserial_msgs/RequestParam.h ****       }
 181:./lib/ros_lib/rosserial_msgs/RequestParam.h ****      return offset;
 182:./lib/ros_lib/rosserial_msgs/RequestParam.h ****     }
 183:./lib/ros_lib/rosserial_msgs/RequestParam.h **** 
 184:./lib/ros_lib/rosserial_msgs/RequestParam.h ****     const char * getType(){ return REQUESTPARAM; };
 310              		.loc 4 184 0
 311              		.cfi_startproc
 312              		@ args = 0, pretend = 0, frame = 0
 313              		@ frame_needed = 0, uses_anonymous_args = 0
 314              		@ link register save eliminated.
 315              	.LVL20:
 316              		.loc 4 184 0
 317 0000 0048     		ldr	r0, .L22
 318              	.LVL21:
 319 0002 7047     		bx	lr
 320              	.L23:
 321              		.align	2
 322              	.L22:
 323 0004 00000000 		.word	.LANCHOR0
 324              		.cfi_endproc
 325              	.LFE84:
 326              		.cantunwind
 327              		.fnend
 329              		.section	.text._ZN14rosserial_msgs20RequestParamResponse6getMD5Ev,"axG",%progbits,_ZN14rosserial_m
 330              		.align	1
 331              		.weak	_ZN14rosserial_msgs20RequestParamResponse6getMD5Ev
 332              		.thumb
 333              		.thumb_func
 335              	_ZN14rosserial_msgs20RequestParamResponse6getMD5Ev:
 336              		.fnstart
 337              	.LFB85:
 185:./lib/ros_lib/rosserial_msgs/RequestParam.h ****     const char * getMD5(){ return "9f0e98bda65981986ddf53afa7a40e49"; };
 338              		.loc 4 185 0
 339              		.cfi_startproc
 340              		@ args = 0, pretend = 0, frame = 0
 341              		@ frame_needed = 0, uses_anonymous_args = 0
 342              		@ link register save eliminated.
 343              	.LVL22:
 344              		.loc 4 185 0
 345 0000 0048     		ldr	r0, .L25
 346              	.LVL23:
 347 0002 7047     		bx	lr
 348              	.L26:
 349              		.align	2
 350              	.L25:
 351 0004 9D000000 		.word	.LC6
 352              		.cfi_endproc
 353              	.LFE85:
 354              		.cantunwind
 355              		.fnend
 357              		.section	.text._ZNK8std_msgs7Float329serializeEPh,"axG",%progbits,_ZNK8std_msgs7Float329serializeE
 358              		.align	1
 359              		.weak	_ZNK8std_msgs7Float329serializeEPh
 360              		.thumb
 361              		.thumb_func
 363              	_ZNK8std_msgs7Float329serializeEPh:
 364              		.fnstart
 365              	.LFB159:
 366              		.file 5 "./lib/ros_lib/std_msgs/Float32.h"
   1:./lib/ros_lib/std_msgs/Float32.h **** #ifndef _ROS_std_msgs_Float32_h
   2:./lib/ros_lib/std_msgs/Float32.h **** #define _ROS_std_msgs_Float32_h
   3:./lib/ros_lib/std_msgs/Float32.h **** 
   4:./lib/ros_lib/std_msgs/Float32.h **** #include <stdint.h>
   5:./lib/ros_lib/std_msgs/Float32.h **** #include <string.h>
   6:./lib/ros_lib/std_msgs/Float32.h **** #include <stdlib.h>
   7:./lib/ros_lib/std_msgs/Float32.h **** #include "ros/msg.h"
   8:./lib/ros_lib/std_msgs/Float32.h **** 
   9:./lib/ros_lib/std_msgs/Float32.h **** namespace std_msgs
  10:./lib/ros_lib/std_msgs/Float32.h **** {
  11:./lib/ros_lib/std_msgs/Float32.h **** 
  12:./lib/ros_lib/std_msgs/Float32.h ****   class Float32 : public ros::Msg
  13:./lib/ros_lib/std_msgs/Float32.h ****   {
  14:./lib/ros_lib/std_msgs/Float32.h ****     public:
  15:./lib/ros_lib/std_msgs/Float32.h ****       float data;
  16:./lib/ros_lib/std_msgs/Float32.h **** 
  17:./lib/ros_lib/std_msgs/Float32.h ****     Float32():
  18:./lib/ros_lib/std_msgs/Float32.h ****       data(0)
  19:./lib/ros_lib/std_msgs/Float32.h ****     {
  20:./lib/ros_lib/std_msgs/Float32.h ****     }
  21:./lib/ros_lib/std_msgs/Float32.h **** 
  22:./lib/ros_lib/std_msgs/Float32.h ****     virtual int serialize(unsigned char *outbuffer) const
 367              		.loc 5 22 0
 368              		.cfi_startproc
 369              		@ args = 0, pretend = 0, frame = 0
 370              		@ frame_needed = 0, uses_anonymous_args = 0
 371              		@ link register save eliminated.
 372              	.LVL24:
  23:./lib/ros_lib/std_msgs/Float32.h ****     {
  24:./lib/ros_lib/std_msgs/Float32.h ****       int offset = 0;
  25:./lib/ros_lib/std_msgs/Float32.h ****       union {
  26:./lib/ros_lib/std_msgs/Float32.h ****         float real;
  27:./lib/ros_lib/std_msgs/Float32.h ****         uint32_t base;
  28:./lib/ros_lib/std_msgs/Float32.h ****       } u_data;
  29:./lib/ros_lib/std_msgs/Float32.h ****       u_data.real = this->data;
  30:./lib/ros_lib/std_msgs/Float32.h ****       *(outbuffer + offset + 0) = (u_data.base >> (8 * 0)) & 0xFF;
 373              		.loc 5 30 0
 374 0000 4368     		ldr	r3, [r0, #4]
  31:./lib/ros_lib/std_msgs/Float32.h ****       *(outbuffer + offset + 1) = (u_data.base >> (8 * 1)) & 0xFF;
  32:./lib/ros_lib/std_msgs/Float32.h ****       *(outbuffer + offset + 2) = (u_data.base >> (8 * 2)) & 0xFF;
  33:./lib/ros_lib/std_msgs/Float32.h ****       *(outbuffer + offset + 3) = (u_data.base >> (8 * 3)) & 0xFF;
  34:./lib/ros_lib/std_msgs/Float32.h ****       offset += sizeof(this->data);
  35:./lib/ros_lib/std_msgs/Float32.h ****       return offset;
  36:./lib/ros_lib/std_msgs/Float32.h ****     }
 375              		.loc 5 36 0
 376 0002 0420     		movs	r0, #4
 377              	.LVL25:
  31:./lib/ros_lib/std_msgs/Float32.h ****       *(outbuffer + offset + 1) = (u_data.base >> (8 * 1)) & 0xFF;
 378              		.loc 5 31 0
 379 0004 1A0A     		lsrs	r2, r3, #8
  30:./lib/ros_lib/std_msgs/Float32.h ****       *(outbuffer + offset + 1) = (u_data.base >> (8 * 1)) & 0xFF;
 380              		.loc 5 30 0
 381 0006 0B70     		strb	r3, [r1]
 382              	.LVL26:
  31:./lib/ros_lib/std_msgs/Float32.h ****       *(outbuffer + offset + 1) = (u_data.base >> (8 * 1)) & 0xFF;
 383              		.loc 5 31 0
 384 0008 4A70     		strb	r2, [r1, #1]
  32:./lib/ros_lib/std_msgs/Float32.h ****       *(outbuffer + offset + 3) = (u_data.base >> (8 * 3)) & 0xFF;
 385              		.loc 5 32 0
 386 000a 1A0C     		lsrs	r2, r3, #16
  33:./lib/ros_lib/std_msgs/Float32.h ****       offset += sizeof(this->data);
 387              		.loc 5 33 0
 388 000c 1B0E     		lsrs	r3, r3, #24
  32:./lib/ros_lib/std_msgs/Float32.h ****       *(outbuffer + offset + 3) = (u_data.base >> (8 * 3)) & 0xFF;
 389              		.loc 5 32 0
 390 000e 8A70     		strb	r2, [r1, #2]
  33:./lib/ros_lib/std_msgs/Float32.h ****       offset += sizeof(this->data);
 391              		.loc 5 33 0
 392 0010 CB70     		strb	r3, [r1, #3]
 393              	.LVL27:
 394              		.loc 5 36 0
 395 0012 7047     		bx	lr
 396              		.cfi_endproc
 397              	.LFE159:
 398              		.cantunwind
 399              		.fnend
 401              		.section	.text._ZN8std_msgs7Float3211deserializeEPh,"axG",%progbits,_ZN8std_msgs7Float3211deserial
 402              		.align	1
 403              		.weak	_ZN8std_msgs7Float3211deserializeEPh
 404              		.thumb
 405              		.thumb_func
 407              	_ZN8std_msgs7Float3211deserializeEPh:
 408              		.fnstart
 409              	.LFB160:
  37:./lib/ros_lib/std_msgs/Float32.h **** 
  38:./lib/ros_lib/std_msgs/Float32.h ****     virtual int deserialize(unsigned char *inbuffer)
 410              		.loc 5 38 0
 411              		.cfi_startproc
 412              		@ args = 0, pretend = 0, frame = 0
 413              		@ frame_needed = 0, uses_anonymous_args = 0
 414              		@ link register save eliminated.
 415              	.LVL28:
  39:./lib/ros_lib/std_msgs/Float32.h ****     {
  40:./lib/ros_lib/std_msgs/Float32.h ****       int offset = 0;
  41:./lib/ros_lib/std_msgs/Float32.h ****       union {
  42:./lib/ros_lib/std_msgs/Float32.h ****         float real;
  43:./lib/ros_lib/std_msgs/Float32.h ****         uint32_t base;
  44:./lib/ros_lib/std_msgs/Float32.h ****       } u_data;
  45:./lib/ros_lib/std_msgs/Float32.h ****       u_data.base = 0;
  46:./lib/ros_lib/std_msgs/Float32.h ****       u_data.base |= ((uint32_t) (*(inbuffer + offset + 0))) << (8 * 0);
  47:./lib/ros_lib/std_msgs/Float32.h ****       u_data.base |= ((uint32_t) (*(inbuffer + offset + 1))) << (8 * 1);
  48:./lib/ros_lib/std_msgs/Float32.h ****       u_data.base |= ((uint32_t) (*(inbuffer + offset + 2))) << (8 * 2);
  49:./lib/ros_lib/std_msgs/Float32.h ****       u_data.base |= ((uint32_t) (*(inbuffer + offset + 3))) << (8 * 3);
  50:./lib/ros_lib/std_msgs/Float32.h ****       this->data = u_data.real;
 416              		.loc 5 50 0
 417 0000 0B68     		ldr	r3, [r1]	@ unaligned
 418 0002 4360     		str	r3, [r0, #4]	@ float
 419              	.LVL29:
  51:./lib/ros_lib/std_msgs/Float32.h ****       offset += sizeof(this->data);
  52:./lib/ros_lib/std_msgs/Float32.h ****      return offset;
  53:./lib/ros_lib/std_msgs/Float32.h ****     }
 420              		.loc 5 53 0
 421 0004 0420     		movs	r0, #4
 422              	.LVL30:
 423 0006 7047     		bx	lr
 424              		.cfi_endproc
 425              	.LFE160:
 426              		.cantunwind
 427              		.fnend
 429              		.section	.text._ZN8std_msgs7Float327getTypeEv,"axG",%progbits,_ZN8std_msgs7Float327getTypeEv,comda
 430              		.align	1
 431              		.weak	_ZN8std_msgs7Float327getTypeEv
 432              		.thumb
 433              		.thumb_func
 435              	_ZN8std_msgs7Float327getTypeEv:
 436              		.fnstart
 437              	.LFB161:
  54:./lib/ros_lib/std_msgs/Float32.h **** 
  55:./lib/ros_lib/std_msgs/Float32.h ****     const char * getType(){ return "std_msgs/Float32"; };
 438              		.loc 5 55 0
 439              		.cfi_startproc
 440              		@ args = 0, pretend = 0, frame = 0
 441              		@ frame_needed = 0, uses_anonymous_args = 0
 442              		@ link register save eliminated.
 443              	.LVL31:
 444              		.loc 5 55 0
 445 0000 0048     		ldr	r0, .L30
 446              	.LVL32:
 447 0002 7047     		bx	lr
 448              	.L31:
 449              		.align	2
 450              	.L30:
 451 0004 BE000000 		.word	.LC7
 452              		.cfi_endproc
 453              	.LFE161:
 454              		.cantunwind
 455              		.fnend
 457              		.section	.text._ZN8std_msgs7Float326getMD5Ev,"axG",%progbits,_ZN8std_msgs7Float326getMD5Ev,comdat
 458              		.align	1
 459              		.weak	_ZN8std_msgs7Float326getMD5Ev
 460              		.thumb
 461              		.thumb_func
 463              	_ZN8std_msgs7Float326getMD5Ev:
 464              		.fnstart
 465              	.LFB162:
  56:./lib/ros_lib/std_msgs/Float32.h ****     const char * getMD5(){ return "73fcbf46b49191e672908e50842a83d4"; };
 466              		.loc 5 56 0
 467              		.cfi_startproc
 468              		@ args = 0, pretend = 0, frame = 0
 469              		@ frame_needed = 0, uses_anonymous_args = 0
 470              		@ link register save eliminated.
 471              	.LVL33:
 472              		.loc 5 56 0
 473 0000 0048     		ldr	r0, .L33
 474              	.LVL34:
 475 0002 7047     		bx	lr
 476              	.L34:
 477              		.align	2
 478              	.L33:
 479 0004 CF000000 		.word	.LC8
 480              		.cfi_endproc
 481              	.LFE162:
 482              		.cantunwind
 483              		.fnend
 485              		.section	.text._ZNK8std_msgs5UInt89serializeEPh,"axG",%progbits,_ZNK8std_msgs5UInt89serializeEPh,c
 486              		.align	1
 487              		.weak	_ZNK8std_msgs5UInt89serializeEPh
 488              		.thumb
 489              		.thumb_func
 491              	_ZNK8std_msgs5UInt89serializeEPh:
 492              		.fnstart
 493              	.LFB166:
 494              		.file 6 "./lib/ros_lib/std_msgs/UInt8.h"
   1:./lib/ros_lib/std_msgs/UInt8.h **** #ifndef _ROS_std_msgs_UInt8_h
   2:./lib/ros_lib/std_msgs/UInt8.h **** #define _ROS_std_msgs_UInt8_h
   3:./lib/ros_lib/std_msgs/UInt8.h **** 
   4:./lib/ros_lib/std_msgs/UInt8.h **** #include <stdint.h>
   5:./lib/ros_lib/std_msgs/UInt8.h **** #include <string.h>
   6:./lib/ros_lib/std_msgs/UInt8.h **** #include <stdlib.h>
   7:./lib/ros_lib/std_msgs/UInt8.h **** #include "ros/msg.h"
   8:./lib/ros_lib/std_msgs/UInt8.h **** 
   9:./lib/ros_lib/std_msgs/UInt8.h **** namespace std_msgs
  10:./lib/ros_lib/std_msgs/UInt8.h **** {
  11:./lib/ros_lib/std_msgs/UInt8.h **** 
  12:./lib/ros_lib/std_msgs/UInt8.h ****   class UInt8 : public ros::Msg
  13:./lib/ros_lib/std_msgs/UInt8.h ****   {
  14:./lib/ros_lib/std_msgs/UInt8.h ****     public:
  15:./lib/ros_lib/std_msgs/UInt8.h ****       uint8_t data;
  16:./lib/ros_lib/std_msgs/UInt8.h **** 
  17:./lib/ros_lib/std_msgs/UInt8.h ****     UInt8():
  18:./lib/ros_lib/std_msgs/UInt8.h ****       data(0)
  19:./lib/ros_lib/std_msgs/UInt8.h ****     {
  20:./lib/ros_lib/std_msgs/UInt8.h ****     }
  21:./lib/ros_lib/std_msgs/UInt8.h **** 
  22:./lib/ros_lib/std_msgs/UInt8.h ****     virtual int serialize(unsigned char *outbuffer) const
 495              		.loc 6 22 0
 496              		.cfi_startproc
 497              		@ args = 0, pretend = 0, frame = 0
 498              		@ frame_needed = 0, uses_anonymous_args = 0
 499              		@ link register save eliminated.
 500              	.LVL35:
  23:./lib/ros_lib/std_msgs/UInt8.h ****     {
  24:./lib/ros_lib/std_msgs/UInt8.h ****       int offset = 0;
  25:./lib/ros_lib/std_msgs/UInt8.h ****       *(outbuffer + offset + 0) = (this->data >> (8 * 0)) & 0xFF;
 501              		.loc 6 25 0
 502 0000 0379     		ldrb	r3, [r0, #4]	@ zero_extendqisi2
  26:./lib/ros_lib/std_msgs/UInt8.h ****       offset += sizeof(this->data);
  27:./lib/ros_lib/std_msgs/UInt8.h ****       return offset;
  28:./lib/ros_lib/std_msgs/UInt8.h ****     }
 503              		.loc 6 28 0
 504 0002 0120     		movs	r0, #1
 505              	.LVL36:
  25:./lib/ros_lib/std_msgs/UInt8.h ****       offset += sizeof(this->data);
 506              		.loc 6 25 0
 507 0004 0B70     		strb	r3, [r1]
 508              	.LVL37:
 509              		.loc 6 28 0
 510 0006 7047     		bx	lr
 511              		.cfi_endproc
 512              	.LFE166:
 513              		.cantunwind
 514              		.fnend
 516              		.section	.text._ZN8std_msgs5UInt811deserializeEPh,"axG",%progbits,_ZN8std_msgs5UInt811deserializeE
 517              		.align	1
 518              		.weak	_ZN8std_msgs5UInt811deserializeEPh
 519              		.thumb
 520              		.thumb_func
 522              	_ZN8std_msgs5UInt811deserializeEPh:
 523              		.fnstart
 524              	.LFB167:
  29:./lib/ros_lib/std_msgs/UInt8.h **** 
  30:./lib/ros_lib/std_msgs/UInt8.h ****     virtual int deserialize(unsigned char *inbuffer)
 525              		.loc 6 30 0
 526              		.cfi_startproc
 527              		@ args = 0, pretend = 0, frame = 0
 528              		@ frame_needed = 0, uses_anonymous_args = 0
 529              		@ link register save eliminated.
 530              	.LVL38:
  31:./lib/ros_lib/std_msgs/UInt8.h ****     {
  32:./lib/ros_lib/std_msgs/UInt8.h ****       int offset = 0;
  33:./lib/ros_lib/std_msgs/UInt8.h ****       this->data =  ((uint8_t) (*(inbuffer + offset)));
 531              		.loc 6 33 0
 532 0000 0B78     		ldrb	r3, [r1]	@ zero_extendqisi2
 533 0002 0371     		strb	r3, [r0, #4]
 534              	.LVL39:
  34:./lib/ros_lib/std_msgs/UInt8.h ****       offset += sizeof(this->data);
  35:./lib/ros_lib/std_msgs/UInt8.h ****      return offset;
  36:./lib/ros_lib/std_msgs/UInt8.h ****     }
 535              		.loc 6 36 0
 536 0004 0120     		movs	r0, #1
 537              	.LVL40:
 538 0006 7047     		bx	lr
 539              		.cfi_endproc
 540              	.LFE167:
 541              		.cantunwind
 542              		.fnend
 544              		.section	.text._ZN8std_msgs5UInt87getTypeEv,"axG",%progbits,_ZN8std_msgs5UInt87getTypeEv,comdat
 545              		.align	1
 546              		.weak	_ZN8std_msgs5UInt87getTypeEv
 547              		.thumb
 548              		.thumb_func
 550              	_ZN8std_msgs5UInt87getTypeEv:
 551              		.fnstart
 552              	.LFB168:
  37:./lib/ros_lib/std_msgs/UInt8.h **** 
  38:./lib/ros_lib/std_msgs/UInt8.h ****     const char * getType(){ return "std_msgs/UInt8"; };
 553              		.loc 6 38 0
 554              		.cfi_startproc
 555              		@ args = 0, pretend = 0, frame = 0
 556              		@ frame_needed = 0, uses_anonymous_args = 0
 557              		@ link register save eliminated.
 558              	.LVL41:
 559              		.loc 6 38 0
 560 0000 0048     		ldr	r0, .L38
 561              	.LVL42:
 562 0002 7047     		bx	lr
 563              	.L39:
 564              		.align	2
 565              	.L38:
 566 0004 F0000000 		.word	.LC9
 567              		.cfi_endproc
 568              	.LFE168:
 569              		.cantunwind
 570              		.fnend
 572              		.section	.text._ZN8std_msgs5UInt86getMD5Ev,"axG",%progbits,_ZN8std_msgs5UInt86getMD5Ev,comdat
 573              		.align	1
 574              		.weak	_ZN8std_msgs5UInt86getMD5Ev
 575              		.thumb
 576              		.thumb_func
 578              	_ZN8std_msgs5UInt86getMD5Ev:
 579              		.fnstart
 580              	.LFB169:
  39:./lib/ros_lib/std_msgs/UInt8.h ****     const char * getMD5(){ return "7c8164229e7d2c17eb95e9231617fdee"; };
 581              		.loc 6 39 0
 582              		.cfi_startproc
 583              		@ args = 0, pretend = 0, frame = 0
 584              		@ frame_needed = 0, uses_anonymous_args = 0
 585              		@ link register save eliminated.
 586              	.LVL43:
 587              		.loc 6 39 0
 588 0000 0048     		ldr	r0, .L41
 589              	.LVL44:
 590 0002 7047     		bx	lr
 591              	.L42:
 592              		.align	2
 593              	.L41:
 594 0004 FF000000 		.word	.LC10
 595              		.cfi_endproc
 596              	.LFE169:
 597              		.cantunwind
 598              		.fnend
 600              		.section	.text._ZN8std_msgs6Header7getTypeEv,"axG",%progbits,_ZN8std_msgs6Header7getTypeEv,comdat
 601              		.align	1
 602              		.weak	_ZN8std_msgs6Header7getTypeEv
 603              		.thumb
 604              		.thumb_func
 606              	_ZN8std_msgs6Header7getTypeEv:
 607              		.fnstart
 608              	.LFB175:
 609              		.file 7 "./lib/ros_lib/std_msgs/Header.h"
   1:./lib/ros_lib/std_msgs/Header.h **** #ifndef _ROS_std_msgs_Header_h
   2:./lib/ros_lib/std_msgs/Header.h **** #define _ROS_std_msgs_Header_h
   3:./lib/ros_lib/std_msgs/Header.h **** 
   4:./lib/ros_lib/std_msgs/Header.h **** #include <stdint.h>
   5:./lib/ros_lib/std_msgs/Header.h **** #include <string.h>
   6:./lib/ros_lib/std_msgs/Header.h **** #include <stdlib.h>
   7:./lib/ros_lib/std_msgs/Header.h **** #include "ros/msg.h"
   8:./lib/ros_lib/std_msgs/Header.h **** #include "ros/time.h"
   9:./lib/ros_lib/std_msgs/Header.h **** 
  10:./lib/ros_lib/std_msgs/Header.h **** namespace std_msgs
  11:./lib/ros_lib/std_msgs/Header.h **** {
  12:./lib/ros_lib/std_msgs/Header.h **** 
  13:./lib/ros_lib/std_msgs/Header.h ****   class Header : public ros::Msg
  14:./lib/ros_lib/std_msgs/Header.h ****   {
  15:./lib/ros_lib/std_msgs/Header.h ****     public:
  16:./lib/ros_lib/std_msgs/Header.h ****       uint32_t seq;
  17:./lib/ros_lib/std_msgs/Header.h ****       ros::Time stamp;
  18:./lib/ros_lib/std_msgs/Header.h ****       const char* frame_id;
  19:./lib/ros_lib/std_msgs/Header.h **** 
  20:./lib/ros_lib/std_msgs/Header.h ****     Header():
  21:./lib/ros_lib/std_msgs/Header.h ****       seq(0),
  22:./lib/ros_lib/std_msgs/Header.h ****       stamp(),
  23:./lib/ros_lib/std_msgs/Header.h ****       frame_id("")
  24:./lib/ros_lib/std_msgs/Header.h ****     {
  25:./lib/ros_lib/std_msgs/Header.h ****     }
  26:./lib/ros_lib/std_msgs/Header.h **** 
  27:./lib/ros_lib/std_msgs/Header.h ****     virtual int serialize(unsigned char *outbuffer) const
  28:./lib/ros_lib/std_msgs/Header.h ****     {
  29:./lib/ros_lib/std_msgs/Header.h ****       int offset = 0;
  30:./lib/ros_lib/std_msgs/Header.h ****       *(outbuffer + offset + 0) = (this->seq >> (8 * 0)) & 0xFF;
  31:./lib/ros_lib/std_msgs/Header.h ****       *(outbuffer + offset + 1) = (this->seq >> (8 * 1)) & 0xFF;
  32:./lib/ros_lib/std_msgs/Header.h ****       *(outbuffer + offset + 2) = (this->seq >> (8 * 2)) & 0xFF;
  33:./lib/ros_lib/std_msgs/Header.h ****       *(outbuffer + offset + 3) = (this->seq >> (8 * 3)) & 0xFF;
  34:./lib/ros_lib/std_msgs/Header.h ****       offset += sizeof(this->seq);
  35:./lib/ros_lib/std_msgs/Header.h ****       *(outbuffer + offset + 0) = (this->stamp.sec >> (8 * 0)) & 0xFF;
  36:./lib/ros_lib/std_msgs/Header.h ****       *(outbuffer + offset + 1) = (this->stamp.sec >> (8 * 1)) & 0xFF;
  37:./lib/ros_lib/std_msgs/Header.h ****       *(outbuffer + offset + 2) = (this->stamp.sec >> (8 * 2)) & 0xFF;
  38:./lib/ros_lib/std_msgs/Header.h ****       *(outbuffer + offset + 3) = (this->stamp.sec >> (8 * 3)) & 0xFF;
  39:./lib/ros_lib/std_msgs/Header.h ****       offset += sizeof(this->stamp.sec);
  40:./lib/ros_lib/std_msgs/Header.h ****       *(outbuffer + offset + 0) = (this->stamp.nsec >> (8 * 0)) & 0xFF;
  41:./lib/ros_lib/std_msgs/Header.h ****       *(outbuffer + offset + 1) = (this->stamp.nsec >> (8 * 1)) & 0xFF;
  42:./lib/ros_lib/std_msgs/Header.h ****       *(outbuffer + offset + 2) = (this->stamp.nsec >> (8 * 2)) & 0xFF;
  43:./lib/ros_lib/std_msgs/Header.h ****       *(outbuffer + offset + 3) = (this->stamp.nsec >> (8 * 3)) & 0xFF;
  44:./lib/ros_lib/std_msgs/Header.h ****       offset += sizeof(this->stamp.nsec);
  45:./lib/ros_lib/std_msgs/Header.h ****       uint32_t length_frame_id = strlen(this->frame_id);
  46:./lib/ros_lib/std_msgs/Header.h ****       memcpy(outbuffer + offset, &length_frame_id, sizeof(uint32_t));
  47:./lib/ros_lib/std_msgs/Header.h ****       offset += 4;
  48:./lib/ros_lib/std_msgs/Header.h ****       memcpy(outbuffer + offset, this->frame_id, length_frame_id);
  49:./lib/ros_lib/std_msgs/Header.h ****       offset += length_frame_id;
  50:./lib/ros_lib/std_msgs/Header.h ****       return offset;
  51:./lib/ros_lib/std_msgs/Header.h ****     }
  52:./lib/ros_lib/std_msgs/Header.h **** 
  53:./lib/ros_lib/std_msgs/Header.h ****     virtual int deserialize(unsigned char *inbuffer)
  54:./lib/ros_lib/std_msgs/Header.h ****     {
  55:./lib/ros_lib/std_msgs/Header.h ****       int offset = 0;
  56:./lib/ros_lib/std_msgs/Header.h ****       this->seq =  ((uint32_t) (*(inbuffer + offset)));
  57:./lib/ros_lib/std_msgs/Header.h ****       this->seq |= ((uint32_t) (*(inbuffer + offset + 1))) << (8 * 1);
  58:./lib/ros_lib/std_msgs/Header.h ****       this->seq |= ((uint32_t) (*(inbuffer + offset + 2))) << (8 * 2);
  59:./lib/ros_lib/std_msgs/Header.h ****       this->seq |= ((uint32_t) (*(inbuffer + offset + 3))) << (8 * 3);
  60:./lib/ros_lib/std_msgs/Header.h ****       offset += sizeof(this->seq);
  61:./lib/ros_lib/std_msgs/Header.h ****       this->stamp.sec =  ((uint32_t) (*(inbuffer + offset)));
  62:./lib/ros_lib/std_msgs/Header.h ****       this->stamp.sec |= ((uint32_t) (*(inbuffer + offset + 1))) << (8 * 1);
  63:./lib/ros_lib/std_msgs/Header.h ****       this->stamp.sec |= ((uint32_t) (*(inbuffer + offset + 2))) << (8 * 2);
  64:./lib/ros_lib/std_msgs/Header.h ****       this->stamp.sec |= ((uint32_t) (*(inbuffer + offset + 3))) << (8 * 3);
  65:./lib/ros_lib/std_msgs/Header.h ****       offset += sizeof(this->stamp.sec);
  66:./lib/ros_lib/std_msgs/Header.h ****       this->stamp.nsec =  ((uint32_t) (*(inbuffer + offset)));
  67:./lib/ros_lib/std_msgs/Header.h ****       this->stamp.nsec |= ((uint32_t) (*(inbuffer + offset + 1))) << (8 * 1);
  68:./lib/ros_lib/std_msgs/Header.h ****       this->stamp.nsec |= ((uint32_t) (*(inbuffer + offset + 2))) << (8 * 2);
  69:./lib/ros_lib/std_msgs/Header.h ****       this->stamp.nsec |= ((uint32_t) (*(inbuffer + offset + 3))) << (8 * 3);
  70:./lib/ros_lib/std_msgs/Header.h ****       offset += sizeof(this->stamp.nsec);
  71:./lib/ros_lib/std_msgs/Header.h ****       uint32_t length_frame_id;
  72:./lib/ros_lib/std_msgs/Header.h ****       memcpy(&length_frame_id, (inbuffer + offset), sizeof(uint32_t));
  73:./lib/ros_lib/std_msgs/Header.h ****       offset += 4;
  74:./lib/ros_lib/std_msgs/Header.h ****       for(unsigned int k= offset; k< offset+length_frame_id; ++k){
  75:./lib/ros_lib/std_msgs/Header.h ****           inbuffer[k-1]=inbuffer[k];
  76:./lib/ros_lib/std_msgs/Header.h ****       }
  77:./lib/ros_lib/std_msgs/Header.h ****       inbuffer[offset+length_frame_id-1]=0;
  78:./lib/ros_lib/std_msgs/Header.h ****       this->frame_id = (char *)(inbuffer + offset-1);
  79:./lib/ros_lib/std_msgs/Header.h ****       offset += length_frame_id;
  80:./lib/ros_lib/std_msgs/Header.h ****      return offset;
  81:./lib/ros_lib/std_msgs/Header.h ****     }
  82:./lib/ros_lib/std_msgs/Header.h **** 
  83:./lib/ros_lib/std_msgs/Header.h ****     const char * getType(){ return "std_msgs/Header"; };
 610              		.loc 7 83 0
 611              		.cfi_startproc
 612              		@ args = 0, pretend = 0, frame = 0
 613              		@ frame_needed = 0, uses_anonymous_args = 0
 614              		@ link register save eliminated.
 615              	.LVL45:
 616              		.loc 7 83 0
 617 0000 0048     		ldr	r0, .L44
 618              	.LVL46:
 619 0002 7047     		bx	lr
 620              	.L45:
 621              		.align	2
 622              	.L44:
 623 0004 20010000 		.word	.LC11
 624              		.cfi_endproc
 625              	.LFE175:
 626              		.cantunwind
 627              		.fnend
 629              		.section	.text._ZN8std_msgs6Header6getMD5Ev,"axG",%progbits,_ZN8std_msgs6Header6getMD5Ev,comdat
 630              		.align	1
 631              		.weak	_ZN8std_msgs6Header6getMD5Ev
 632              		.thumb
 633              		.thumb_func
 635              	_ZN8std_msgs6Header6getMD5Ev:
 636              		.fnstart
 637              	.LFB176:
  84:./lib/ros_lib/std_msgs/Header.h ****     const char * getMD5(){ return "2176decaecbce78abc3b96ef049fabed"; };
 638              		.loc 7 84 0
 639              		.cfi_startproc
 640              		@ args = 0, pretend = 0, frame = 0
 641              		@ frame_needed = 0, uses_anonymous_args = 0
 642              		@ link register save eliminated.
 643              	.LVL47:
 644              		.loc 7 84 0
 645 0000 0048     		ldr	r0, .L47
 646              	.LVL48:
 647 0002 7047     		bx	lr
 648              	.L48:
 649              		.align	2
 650              	.L47:
 651 0004 30010000 		.word	.LC12
 652              		.cfi_endproc
 653              	.LFE176:
 654              		.cantunwind
 655              		.fnend
 657              		.section	.text._ZN12roberto_msgs10MotorState7getTypeEv,"axG",%progbits,_ZN12roberto_msgs10MotorSta
 658              		.align	1
 659              		.weak	_ZN12roberto_msgs10MotorState7getTypeEv
 660              		.thumb
 661              		.thumb_func
 663              	_ZN12roberto_msgs10MotorState7getTypeEv:
 664              		.fnstart
 665              	.LFB182:
 666              		.file 8 "./lib/ros_lib/roberto_msgs/MotorState.h"
   1:./lib/ros_lib/roberto_msgs/MotorState.h **** #ifndef _ROS_roberto_msgs_MotorState_h
   2:./lib/ros_lib/roberto_msgs/MotorState.h **** #define _ROS_roberto_msgs_MotorState_h
   3:./lib/ros_lib/roberto_msgs/MotorState.h **** 
   4:./lib/ros_lib/roberto_msgs/MotorState.h **** #include <stdint.h>
   5:./lib/ros_lib/roberto_msgs/MotorState.h **** #include <string.h>
   6:./lib/ros_lib/roberto_msgs/MotorState.h **** #include <stdlib.h>
   7:./lib/ros_lib/roberto_msgs/MotorState.h **** #include "ros/msg.h"
   8:./lib/ros_lib/roberto_msgs/MotorState.h **** #include "std_msgs/Header.h"
   9:./lib/ros_lib/roberto_msgs/MotorState.h **** 
  10:./lib/ros_lib/roberto_msgs/MotorState.h **** namespace roberto_msgs
  11:./lib/ros_lib/roberto_msgs/MotorState.h **** {
  12:./lib/ros_lib/roberto_msgs/MotorState.h **** 
  13:./lib/ros_lib/roberto_msgs/MotorState.h ****   class MotorState : public ros::Msg
  14:./lib/ros_lib/roberto_msgs/MotorState.h ****   {
  15:./lib/ros_lib/roberto_msgs/MotorState.h ****     public:
  16:./lib/ros_lib/roberto_msgs/MotorState.h ****       std_msgs::Header header;
  17:./lib/ros_lib/roberto_msgs/MotorState.h ****       float heading_angle;
  18:./lib/ros_lib/roberto_msgs/MotorState.h ****       float heading_velocity;
  19:./lib/ros_lib/roberto_msgs/MotorState.h ****       float speed;
  20:./lib/ros_lib/roberto_msgs/MotorState.h ****       float acceleration;
  21:./lib/ros_lib/roberto_msgs/MotorState.h ****       uint8_t mode;
  22:./lib/ros_lib/roberto_msgs/MotorState.h ****       enum { DRIVE_MODE_AUTO = 0 };
  23:./lib/ros_lib/roberto_msgs/MotorState.h ****       enum { DRIVE_MODE_PIVOT = 1 };
  24:./lib/ros_lib/roberto_msgs/MotorState.h ****       enum { DRIVE_MODE_SPIN = 2 };
  25:./lib/ros_lib/roberto_msgs/MotorState.h ****       enum { DRIVE_MODE_SIDEWAYS = 3 };
  26:./lib/ros_lib/roberto_msgs/MotorState.h **** 
  27:./lib/ros_lib/roberto_msgs/MotorState.h ****     MotorState():
  28:./lib/ros_lib/roberto_msgs/MotorState.h ****       header(),
  29:./lib/ros_lib/roberto_msgs/MotorState.h ****       heading_angle(0),
  30:./lib/ros_lib/roberto_msgs/MotorState.h ****       heading_velocity(0),
  31:./lib/ros_lib/roberto_msgs/MotorState.h ****       speed(0),
  32:./lib/ros_lib/roberto_msgs/MotorState.h ****       acceleration(0),
  33:./lib/ros_lib/roberto_msgs/MotorState.h ****       mode(0)
  34:./lib/ros_lib/roberto_msgs/MotorState.h ****     {
  35:./lib/ros_lib/roberto_msgs/MotorState.h ****     }
  36:./lib/ros_lib/roberto_msgs/MotorState.h **** 
  37:./lib/ros_lib/roberto_msgs/MotorState.h ****     virtual int serialize(unsigned char *outbuffer) const
  38:./lib/ros_lib/roberto_msgs/MotorState.h ****     {
  39:./lib/ros_lib/roberto_msgs/MotorState.h ****       int offset = 0;
  40:./lib/ros_lib/roberto_msgs/MotorState.h ****       offset += this->header.serialize(outbuffer + offset);
  41:./lib/ros_lib/roberto_msgs/MotorState.h ****       offset += serializeAvrFloat64(outbuffer + offset, this->heading_angle);
  42:./lib/ros_lib/roberto_msgs/MotorState.h ****       offset += serializeAvrFloat64(outbuffer + offset, this->heading_velocity);
  43:./lib/ros_lib/roberto_msgs/MotorState.h ****       offset += serializeAvrFloat64(outbuffer + offset, this->speed);
  44:./lib/ros_lib/roberto_msgs/MotorState.h ****       offset += serializeAvrFloat64(outbuffer + offset, this->acceleration);
  45:./lib/ros_lib/roberto_msgs/MotorState.h ****       *(outbuffer + offset + 0) = (this->mode >> (8 * 0)) & 0xFF;
  46:./lib/ros_lib/roberto_msgs/MotorState.h ****       offset += sizeof(this->mode);
  47:./lib/ros_lib/roberto_msgs/MotorState.h ****       return offset;
  48:./lib/ros_lib/roberto_msgs/MotorState.h ****     }
  49:./lib/ros_lib/roberto_msgs/MotorState.h **** 
  50:./lib/ros_lib/roberto_msgs/MotorState.h ****     virtual int deserialize(unsigned char *inbuffer)
  51:./lib/ros_lib/roberto_msgs/MotorState.h ****     {
  52:./lib/ros_lib/roberto_msgs/MotorState.h ****       int offset = 0;
  53:./lib/ros_lib/roberto_msgs/MotorState.h ****       offset += this->header.deserialize(inbuffer + offset);
  54:./lib/ros_lib/roberto_msgs/MotorState.h ****       offset += deserializeAvrFloat64(inbuffer + offset, &(this->heading_angle));
  55:./lib/ros_lib/roberto_msgs/MotorState.h ****       offset += deserializeAvrFloat64(inbuffer + offset, &(this->heading_velocity));
  56:./lib/ros_lib/roberto_msgs/MotorState.h ****       offset += deserializeAvrFloat64(inbuffer + offset, &(this->speed));
  57:./lib/ros_lib/roberto_msgs/MotorState.h ****       offset += deserializeAvrFloat64(inbuffer + offset, &(this->acceleration));
  58:./lib/ros_lib/roberto_msgs/MotorState.h ****       this->mode =  ((uint8_t) (*(inbuffer + offset)));
  59:./lib/ros_lib/roberto_msgs/MotorState.h ****       offset += sizeof(this->mode);
  60:./lib/ros_lib/roberto_msgs/MotorState.h ****      return offset;
  61:./lib/ros_lib/roberto_msgs/MotorState.h ****     }
  62:./lib/ros_lib/roberto_msgs/MotorState.h **** 
  63:./lib/ros_lib/roberto_msgs/MotorState.h ****     const char * getType(){ return "roberto_msgs/MotorState"; };
 667              		.loc 8 63 0
 668              		.cfi_startproc
 669              		@ args = 0, pretend = 0, frame = 0
 670              		@ frame_needed = 0, uses_anonymous_args = 0
 671              		@ link register save eliminated.
 672              	.LVL49:
 673              		.loc 8 63 0
 674 0000 0048     		ldr	r0, .L50
 675              	.LVL50:
 676 0002 7047     		bx	lr
 677              	.L51:
 678              		.align	2
 679              	.L50:
 680 0004 51010000 		.word	.LC13
 681              		.cfi_endproc
 682              	.LFE182:
 683              		.cantunwind
 684              		.fnend
 686              		.section	.text._ZN12roberto_msgs10MotorState6getMD5Ev,"axG",%progbits,_ZN12roberto_msgs10MotorStat
 687              		.align	1
 688              		.weak	_ZN12roberto_msgs10MotorState6getMD5Ev
 689              		.thumb
 690              		.thumb_func
 692              	_ZN12roberto_msgs10MotorState6getMD5Ev:
 693              		.fnstart
 694              	.LFB183:
  64:./lib/ros_lib/roberto_msgs/MotorState.h ****     const char * getMD5(){ return "e8b5d1162b85151c49e02b8224796c0e"; };
 695              		.loc 8 64 0
 696              		.cfi_startproc
 697              		@ args = 0, pretend = 0, frame = 0
 698              		@ frame_needed = 0, uses_anonymous_args = 0
 699              		@ link register save eliminated.
 700              	.LVL51:
 701              		.loc 8 64 0
 702 0000 0048     		ldr	r0, .L53
 703              	.LVL52:
 704 0002 7047     		bx	lr
 705              	.L54:
 706              		.align	2
 707              	.L53:
 708 0004 69010000 		.word	.LC14
 709              		.cfi_endproc
 710              	.LFE183:
 711              		.cantunwind
 712              		.fnend
 714              		.text
 715              		.align	1
 716              		.global	_Z8motor_cbRKN12roberto_msgs10MotorStateE
 717              		.thumb
 718              		.thumb_func
 720              	_Z8motor_cbRKN12roberto_msgs10MotorStateE:
 721              		.fnstart
 722              	.LFB185:
 723              		.file 9 "src/main.cpp"
   1:src/main.cpp  **** #include <stm32f10x.h>
   2:src/main.cpp  **** 
   3:src/main.cpp  **** #include <stdio.h>
   4:src/main.cpp  **** 
   5:src/main.cpp  **** #include "motor.h"
   6:src/main.cpp  **** #include "motorSettings.h"
   7:src/main.cpp  **** #include "led.h"
   8:src/main.cpp  **** #include "pid.h"
   9:src/main.cpp  **** #include "encoder.h"
  10:src/main.cpp  **** #include "stm32_time.h"
  11:src/main.cpp  **** 
  12:src/main.cpp  **** 
  13:src/main.cpp  **** #include <ros.h>
  14:src/main.cpp  **** #include <std_msgs/String.h>
  15:src/main.cpp  **** #include <std_msgs/Float32.h>
  16:src/main.cpp  **** #include <std_msgs/UInt8.h>
  17:src/main.cpp  **** #include <roberto_msgs/MotorState.h>
  18:src/main.cpp  **** 
  19:src/main.cpp  **** 
  20:src/main.cpp  **** 
  21:src/main.cpp  **** /* Private function prototypes -----------------------------------------------*/
  22:src/main.cpp  **** 
  23:src/main.cpp  **** 
  24:src/main.cpp  **** __IO uint8_t Rx_Idx = 0x00;
  25:src/main.cpp  **** uint8_t slaveAddress;
  26:src/main.cpp  **** uint8_t RxBuffer [RXBUFFERSIZE] = {0};
  27:src/main.cpp  **** __IO uint8_t NumberOfByteToReceive = 0x00;
  28:src/main.cpp  **** __IO uint8_t GenerateStartStatus = 0x00;
  29:src/main.cpp  **** 
  30:src/main.cpp  **** 
  31:src/main.cpp  **** 
  32:src/main.cpp  **** ros::NodeHandle nh;
  33:src/main.cpp  **** 
  34:src/main.cpp  **** void led_cb( const std_msgs::UInt8& cmd_msg){
  35:src/main.cpp  ****   led_set(cmd_msg.data);
  36:src/main.cpp  **** }
  37:src/main.cpp  **** 
  38:src/main.cpp  **** 
  39:src/main.cpp  **** 
  40:src/main.cpp  **** void motor_cb( const roberto_msgs::MotorState& cmd_msg){
 724              		.loc 9 40 0
 725              		.cfi_startproc
 726              		@ args = 0, pretend = 0, frame = 0
 727              		@ frame_needed = 0, uses_anonymous_args = 0
 728              		@ link register save eliminated.
 729              	.LVL53:
 730 0000 7047     		bx	lr
 731              		.cfi_endproc
 732              	.LFE185:
 733              		.cantunwind
 734              		.fnend
 736              		.section	.text._ZN3ros10SubscriberIN8std_msgs5UInt8EE8callbackEPh,"axG",%progbits,_ZN3ros10Subscri
 737              		.align	1
 738              		.weak	_ZN3ros10SubscriberIN8std_msgs5UInt8EE8callbackEPh
 739              		.thumb
 740              		.thumb_func
 742              	_ZN3ros10SubscriberIN8std_msgs5UInt8EE8callbackEPh:
 743              		.fnstart
 744              	.LFB216:
 745              		.file 10 "./lib/ros_lib/ros/subscriber.h"
   1:./lib/ros_lib/ros/subscriber.h **** /* 
   2:./lib/ros_lib/ros/subscriber.h ****  * Software License Agreement (BSD License)
   3:./lib/ros_lib/ros/subscriber.h ****  *
   4:./lib/ros_lib/ros/subscriber.h ****  * Copyright (c) 2011, Willow Garage, Inc.
   5:./lib/ros_lib/ros/subscriber.h ****  * All rights reserved.
   6:./lib/ros_lib/ros/subscriber.h ****  *
   7:./lib/ros_lib/ros/subscriber.h ****  * Redistribution and use in source and binary forms, with or without
   8:./lib/ros_lib/ros/subscriber.h ****  * modification, are permitted provided that the following conditions
   9:./lib/ros_lib/ros/subscriber.h ****  * are met:
  10:./lib/ros_lib/ros/subscriber.h ****  *
  11:./lib/ros_lib/ros/subscriber.h ****  *  * Redistributions of source code must retain the above copyright
  12:./lib/ros_lib/ros/subscriber.h ****  *    notice, this list of conditions and the following disclaimer.
  13:./lib/ros_lib/ros/subscriber.h ****  *  * Redistributions in binary form must reproduce the above
  14:./lib/ros_lib/ros/subscriber.h ****  *    copyright notice, this list of conditions and the following
  15:./lib/ros_lib/ros/subscriber.h ****  *    disclaimer in the documentation and/or other materials provided
  16:./lib/ros_lib/ros/subscriber.h ****  *    with the distribution.
  17:./lib/ros_lib/ros/subscriber.h ****  *  * Neither the name of Willow Garage, Inc. nor the names of its
  18:./lib/ros_lib/ros/subscriber.h ****  *    contributors may be used to endorse or promote prducts derived
  19:./lib/ros_lib/ros/subscriber.h ****  *    from this software without specific prior written permission.
  20:./lib/ros_lib/ros/subscriber.h ****  *
  21:./lib/ros_lib/ros/subscriber.h ****  * THIS SOFTWARE IS PROVIDED BY THE COPYRIGHT HOLDERS AND CONTRIBUTORS
  22:./lib/ros_lib/ros/subscriber.h ****  * "AS IS" AND ANY EXPRESS OR IMPLIED WARRANTIES, INCLUDING, BUT NOT
  23:./lib/ros_lib/ros/subscriber.h ****  * LIMITED TO, THE IMPLIED WARRANTIES OF MERCHANTABILITY AND FITNESS
  24:./lib/ros_lib/ros/subscriber.h ****  * FOR A PARTICULAR PURPOSE ARE DISCLAIMED. IN NO EVENT SHALL THE
  25:./lib/ros_lib/ros/subscriber.h ****  * COPYRIGHT OWNER OR CONTRIBUTORS BE LIABLE FOR ANY DIRECT, INDIRECT,
  26:./lib/ros_lib/ros/subscriber.h ****  * INCIDENTAL, SPECIAL, EXEMPLARY, OR CONSEQUENTIAL DAMAGES (INCLUDING,
  27:./lib/ros_lib/ros/subscriber.h ****  * BUT NOT LIMITED TO, PROCUREMENT OF SUBSTITUTE GOODS OR SERVICES;
  28:./lib/ros_lib/ros/subscriber.h ****  * LOSS OF USE, DATA, OR PROFITS; OR BUSINESS INTERRUPTION) HOWEVER
  29:./lib/ros_lib/ros/subscriber.h ****  * CAUSED AND ON ANY THEORY OF LIABILITY, WHETHER IN CONTRACT, STRICT
  30:./lib/ros_lib/ros/subscriber.h ****  * LIABILITY, OR TORT (INCLUDING NEGLIGENCE OR OTHERWISE) ARISING IN
  31:./lib/ros_lib/ros/subscriber.h ****  * ANY WAY OUT OF THE USE OF THIS SOFTWARE, EVEN IF ADVISED OF THE
  32:./lib/ros_lib/ros/subscriber.h ****  * POSSIBILITY OF SUCH DAMAGE.
  33:./lib/ros_lib/ros/subscriber.h ****  */
  34:./lib/ros_lib/ros/subscriber.h **** 
  35:./lib/ros_lib/ros/subscriber.h **** #ifndef ROS_SUBSCRIBER_H_
  36:./lib/ros_lib/ros/subscriber.h **** #define ROS_SUBSCRIBER_H_
  37:./lib/ros_lib/ros/subscriber.h **** 
  38:./lib/ros_lib/ros/subscriber.h **** #include "rosserial_msgs/TopicInfo.h"
  39:./lib/ros_lib/ros/subscriber.h **** 
  40:./lib/ros_lib/ros/subscriber.h **** namespace ros {
  41:./lib/ros_lib/ros/subscriber.h **** 
  42:./lib/ros_lib/ros/subscriber.h ****   /* Base class for objects subscribers. */
  43:./lib/ros_lib/ros/subscriber.h ****   class Subscriber_
  44:./lib/ros_lib/ros/subscriber.h ****   {
  45:./lib/ros_lib/ros/subscriber.h ****     public:
  46:./lib/ros_lib/ros/subscriber.h ****       virtual void callback(unsigned char *data)=0;
  47:./lib/ros_lib/ros/subscriber.h ****       virtual int getEndpointType()=0;
  48:./lib/ros_lib/ros/subscriber.h **** 
  49:./lib/ros_lib/ros/subscriber.h ****       // id_ is set by NodeHandle when we advertise 
  50:./lib/ros_lib/ros/subscriber.h ****       int id_;
  51:./lib/ros_lib/ros/subscriber.h **** 
  52:./lib/ros_lib/ros/subscriber.h ****       virtual const char * getMsgType()=0;
  53:./lib/ros_lib/ros/subscriber.h ****       virtual const char * getMsgMD5()=0;
  54:./lib/ros_lib/ros/subscriber.h ****       const char * topic_;
  55:./lib/ros_lib/ros/subscriber.h ****   };
  56:./lib/ros_lib/ros/subscriber.h **** 
  57:./lib/ros_lib/ros/subscriber.h **** 
  58:./lib/ros_lib/ros/subscriber.h ****   /* Actual subscriber, templated on message type. */
  59:./lib/ros_lib/ros/subscriber.h ****   template<typename MsgT>
  60:./lib/ros_lib/ros/subscriber.h ****   class Subscriber: public Subscriber_{
  61:./lib/ros_lib/ros/subscriber.h ****     public:
  62:./lib/ros_lib/ros/subscriber.h ****       typedef void(*CallbackT)(const MsgT&);
  63:./lib/ros_lib/ros/subscriber.h ****       MsgT msg;
  64:./lib/ros_lib/ros/subscriber.h **** 
  65:./lib/ros_lib/ros/subscriber.h ****       Subscriber(const char * topic_name, CallbackT cb, int endpoint=rosserial_msgs::TopicInfo::ID_
  66:./lib/ros_lib/ros/subscriber.h ****         cb_(cb),
  67:./lib/ros_lib/ros/subscriber.h ****         endpoint_(endpoint)
  68:./lib/ros_lib/ros/subscriber.h ****       {
  69:./lib/ros_lib/ros/subscriber.h ****         topic_ = topic_name;
  70:./lib/ros_lib/ros/subscriber.h ****       };
  71:./lib/ros_lib/ros/subscriber.h **** 
  72:./lib/ros_lib/ros/subscriber.h ****       virtual void callback(unsigned char* data){
 746              		.loc 10 72 0
 747              		.cfi_startproc
 748              		@ args = 0, pretend = 0, frame = 0
 749              		@ frame_needed = 0, uses_anonymous_args = 0
 750              		@ link register save eliminated.
 751              	.LVL54:
 752              	.LBB150:
 753              	.LBB151:
  33:./lib/ros_lib/std_msgs/UInt8.h ****       offset += sizeof(this->data);
 754              		.loc 6 33 0
 755 0000 0B78     		ldrb	r3, [r1]	@ zero_extendqisi2
 756              	.LBE151:
 757              	.LBE150:
  73:./lib/ros_lib/ros/subscriber.h ****         msg.deserialize(data);
  74:./lib/ros_lib/ros/subscriber.h ****         this->cb_(msg);
 758              		.loc 10 74 0
 759 0002 0C30     		adds	r0, r0, #12
 760              	.LVL55:
 761              	.LBB153:
 762              	.LBB152:
  33:./lib/ros_lib/std_msgs/UInt8.h ****       offset += sizeof(this->data);
 763              		.loc 6 33 0
 764 0004 0371     		strb	r3, [r0, #4]
 765              	.LVL56:
 766              	.LBE152:
 767              	.LBE153:
 768              		.loc 10 74 0
 769 0006 8368     		ldr	r3, [r0, #8]
 770 0008 1847     		bx	r3	@ indirect register sibling call
 771              	.LVL57:
 772              		.cfi_endproc
 773              	.LFE216:
 774              		.cantunwind
 775              		.fnend
 777              		.section	.text._ZN3ros10SubscriberIN8std_msgs5UInt8EE15getEndpointTypeEv,"axG",%progbits,_ZN3ros10
 778              		.align	1
 779              		.weak	_ZN3ros10SubscriberIN8std_msgs5UInt8EE15getEndpointTypeEv
 780              		.thumb
 781              		.thumb_func
 783              	_ZN3ros10SubscriberIN8std_msgs5UInt8EE15getEndpointTypeEv:
 784              		.fnstart
 785              	.LFB217:
  75:./lib/ros_lib/ros/subscriber.h ****       }
  76:./lib/ros_lib/ros/subscriber.h **** 
  77:./lib/ros_lib/ros/subscriber.h ****       virtual const char * getMsgType(){ return this->msg.getType(); }
  78:./lib/ros_lib/ros/subscriber.h ****       virtual const char * getMsgMD5(){ return this->msg.getMD5(); }
  79:./lib/ros_lib/ros/subscriber.h ****       virtual int getEndpointType(){ return endpoint_; }
 786              		.loc 10 79 0
 787              		.cfi_startproc
 788              		@ args = 0, pretend = 0, frame = 0
 789              		@ frame_needed = 0, uses_anonymous_args = 0
 790              		@ link register save eliminated.
 791              	.LVL58:
 792              		.loc 10 79 0
 793 0000 8069     		ldr	r0, [r0, #24]
 794              	.LVL59:
 795 0002 7047     		bx	lr
 796              		.cfi_endproc
 797              	.LFE217:
 798              		.cantunwind
 799              		.fnend
 801              		.section	.text._ZN3ros10SubscriberIN8std_msgs5UInt8EE10getMsgTypeEv,"axG",%progbits,_ZN3ros10Subsc
 802              		.align	1
 803              		.weak	_ZN3ros10SubscriberIN8std_msgs5UInt8EE10getMsgTypeEv
 804              		.thumb
 805              		.thumb_func
 807              	_ZN3ros10SubscriberIN8std_msgs5UInt8EE10getMsgTypeEv:
 808              		.fnstart
 809              	.LFB218:
  77:./lib/ros_lib/ros/subscriber.h ****       virtual const char * getMsgMD5(){ return this->msg.getMD5(); }
 810              		.loc 10 77 0
 811              		.cfi_startproc
 812              		@ args = 0, pretend = 0, frame = 0
 813              		@ frame_needed = 0, uses_anonymous_args = 0
 814              		@ link register save eliminated.
 815              	.LVL60:
  77:./lib/ros_lib/ros/subscriber.h ****       virtual const char * getMsgMD5(){ return this->msg.getMD5(); }
 816              		.loc 10 77 0
 817 0000 0048     		ldr	r0, .L59
 818              	.LVL61:
 819 0002 7047     		bx	lr
 820              	.L60:
 821              		.align	2
 822              	.L59:
 823 0004 F0000000 		.word	.LC9
 824              		.cfi_endproc
 825              	.LFE218:
 826              		.cantunwind
 827              		.fnend
 829              		.section	.text._ZN3ros10SubscriberIN8std_msgs5UInt8EE9getMsgMD5Ev,"axG",%progbits,_ZN3ros10Subscri
 830              		.align	1
 831              		.weak	_ZN3ros10SubscriberIN8std_msgs5UInt8EE9getMsgMD5Ev
 832              		.thumb
 833              		.thumb_func
 835              	_ZN3ros10SubscriberIN8std_msgs5UInt8EE9getMsgMD5Ev:
 836              		.fnstart
 837              	.LFB219:
  78:./lib/ros_lib/ros/subscriber.h ****       virtual int getEndpointType(){ return endpoint_; }
 838              		.loc 10 78 0
 839              		.cfi_startproc
 840              		@ args = 0, pretend = 0, frame = 0
 841              		@ frame_needed = 0, uses_anonymous_args = 0
 842              		@ link register save eliminated.
 843              	.LVL62:
  78:./lib/ros_lib/ros/subscriber.h ****       virtual int getEndpointType(){ return endpoint_; }
 844              		.loc 10 78 0
 845 0000 0048     		ldr	r0, .L62
 846              	.LVL63:
 847 0002 7047     		bx	lr
 848              	.L63:
 849              		.align	2
 850              	.L62:
 851 0004 FF000000 		.word	.LC10
 852              		.cfi_endproc
 853              	.LFE219:
 854              		.cantunwind
 855              		.fnend
 857              		.section	.text._ZN3ros10SubscriberIN12roberto_msgs10MotorStateEE15getEndpointTypeEv,"axG",%progbit
 858              		.align	1
 859              		.weak	_ZN3ros10SubscriberIN12roberto_msgs10MotorStateEE15getEndpointTypeEv
 860              		.thumb
 861              		.thumb_func
 863              	_ZN3ros10SubscriberIN12roberto_msgs10MotorStateEE15getEndpointTypeEv:
 864              		.fnstart
 865              	.LFB221:
 866              		.loc 10 79 0
 867              		.cfi_startproc
 868              		@ args = 0, pretend = 0, frame = 0
 869              		@ frame_needed = 0, uses_anonymous_args = 0
 870              		@ link register save eliminated.
 871              	.LVL64:
 872              		.loc 10 79 0
 873 0000 C06B     		ldr	r0, [r0, #60]
 874              	.LVL65:
 875 0002 7047     		bx	lr
 876              		.cfi_endproc
 877              	.LFE221:
 878              		.cantunwind
 879              		.fnend
 881              		.section	.text._ZN3ros10SubscriberIN12roberto_msgs10MotorStateEE10getMsgTypeEv,"axG",%progbits,_ZN
 882              		.align	1
 883              		.weak	_ZN3ros10SubscriberIN12roberto_msgs10MotorStateEE10getMsgTypeEv
 884              		.thumb
 885              		.thumb_func
 887              	_ZN3ros10SubscriberIN12roberto_msgs10MotorStateEE10getMsgTypeEv:
 888              		.fnstart
 889              	.LFB222:
  77:./lib/ros_lib/ros/subscriber.h ****       virtual const char * getMsgMD5(){ return this->msg.getMD5(); }
 890              		.loc 10 77 0
 891              		.cfi_startproc
 892              		@ args = 0, pretend = 0, frame = 0
 893              		@ frame_needed = 0, uses_anonymous_args = 0
 894              		@ link register save eliminated.
 895              	.LVL66:
  77:./lib/ros_lib/ros/subscriber.h ****       virtual const char * getMsgMD5(){ return this->msg.getMD5(); }
 896              		.loc 10 77 0
 897 0000 0048     		ldr	r0, .L66
 898              	.LVL67:
 899 0002 7047     		bx	lr
 900              	.L67:
 901              		.align	2
 902              	.L66:
 903 0004 51010000 		.word	.LC13
 904              		.cfi_endproc
 905              	.LFE222:
 906              		.cantunwind
 907              		.fnend
 909              		.section	.text._ZN3ros10SubscriberIN12roberto_msgs10MotorStateEE9getMsgMD5Ev,"axG",%progbits,_ZN3r
 910              		.align	1
 911              		.weak	_ZN3ros10SubscriberIN12roberto_msgs10MotorStateEE9getMsgMD5Ev
 912              		.thumb
 913              		.thumb_func
 915              	_ZN3ros10SubscriberIN12roberto_msgs10MotorStateEE9getMsgMD5Ev:
 916              		.fnstart
 917              	.LFB223:
  78:./lib/ros_lib/ros/subscriber.h ****       virtual int getEndpointType(){ return endpoint_; }
 918              		.loc 10 78 0
 919              		.cfi_startproc
 920              		@ args = 0, pretend = 0, frame = 0
 921              		@ frame_needed = 0, uses_anonymous_args = 0
 922              		@ link register save eliminated.
 923              	.LVL68:
  78:./lib/ros_lib/ros/subscriber.h ****       virtual int getEndpointType(){ return endpoint_; }
 924              		.loc 10 78 0
 925 0000 0048     		ldr	r0, .L69
 926              	.LVL69:
 927 0002 7047     		bx	lr
 928              	.L70:
 929              		.align	2
 930              	.L69:
 931 0004 69010000 		.word	.LC14
 932              		.cfi_endproc
 933              	.LFE223:
 934              		.cantunwind
 935              		.fnend
 937              		.section	.text._ZN3ros11NodeHandle_I15ArduinoHardwareLi25ELi25ELi512ELi512EE9connectedEv,"axG",%pr
 938              		.align	1
 939              		.weak	_ZN3ros11NodeHandle_I15ArduinoHardwareLi25ELi25ELi512ELi512EE9connectedEv
 940              		.thumb
 941              		.thumb_func
 943              	_ZN3ros11NodeHandle_I15ArduinoHardwareLi25ELi25ELi512ELi512EE9connectedEv:
 944              		.fnstart
 945              	.LFB224:
 946              		.file 11 "./lib/ros_lib/ros/node_handle.h"
   1:./lib/ros_lib/ros/node_handle.h **** /*
   2:./lib/ros_lib/ros/node_handle.h ****  * Software License Agreement (BSD License)
   3:./lib/ros_lib/ros/node_handle.h ****  *
   4:./lib/ros_lib/ros/node_handle.h ****  * Copyright (c) 2011, Willow Garage, Inc.
   5:./lib/ros_lib/ros/node_handle.h ****  * All rights reserved.
   6:./lib/ros_lib/ros/node_handle.h ****  *
   7:./lib/ros_lib/ros/node_handle.h ****  * Redistribution and use in source and binary forms, with or without
   8:./lib/ros_lib/ros/node_handle.h ****  * modification, are permitted provided that the following conditions
   9:./lib/ros_lib/ros/node_handle.h ****  * are met:
  10:./lib/ros_lib/ros/node_handle.h ****  *
  11:./lib/ros_lib/ros/node_handle.h ****  *  * Redistributions of source code must retain the above copyright
  12:./lib/ros_lib/ros/node_handle.h ****  *    notice, this list of conditions and the following disclaimer.
  13:./lib/ros_lib/ros/node_handle.h ****  *  * Redistributions in binary form must reproduce the above
  14:./lib/ros_lib/ros/node_handle.h ****  *    copyright notice, this list of conditions and the following
  15:./lib/ros_lib/ros/node_handle.h ****  *    disclaimer in the documentation and/or other materials provided
  16:./lib/ros_lib/ros/node_handle.h ****  *    with the distribution.
  17:./lib/ros_lib/ros/node_handle.h ****  *  * Neither the name of Willow Garage, Inc. nor the names of its
  18:./lib/ros_lib/ros/node_handle.h ****  *    contributors may be used to endorse or promote prducts derived
  19:./lib/ros_lib/ros/node_handle.h ****  *    from this software without specific prior written permission.
  20:./lib/ros_lib/ros/node_handle.h ****  *
  21:./lib/ros_lib/ros/node_handle.h ****  * THIS SOFTWARE IS PROVIDED BY THE COPYRIGHT HOLDERS AND CONTRIBUTORS
  22:./lib/ros_lib/ros/node_handle.h ****  * "AS IS" AND ANY EXPRESS OR IMPLIED WARRANTIES, INCLUDING, BUT NOT
  23:./lib/ros_lib/ros/node_handle.h ****  * LIMITED TO, THE IMPLIED WARRANTIES OF MERCHANTABILITY AND FITNESS
  24:./lib/ros_lib/ros/node_handle.h ****  * FOR A PARTICULAR PURPOSE ARE DISCLAIMED. IN NO EVENT SHALL THE
  25:./lib/ros_lib/ros/node_handle.h ****  * COPYRIGHT OWNER OR CONTRIBUTORS BE LIABLE FOR ANY DIRECT, INDIRECT,
  26:./lib/ros_lib/ros/node_handle.h ****  * INCIDENTAL, SPECIAL, EXEMPLARY, OR CONSEQUENTIAL DAMAGES (INCLUDING,
  27:./lib/ros_lib/ros/node_handle.h ****  * BUT NOT LIMITED TO, PROCUREMENT OF SUBSTITUTE GOODS OR SERVICES;
  28:./lib/ros_lib/ros/node_handle.h ****  * LOSS OF USE, DATA, OR PROFITS; OR BUSINESS INTERRUPTION) HOWEVER
  29:./lib/ros_lib/ros/node_handle.h ****  * CAUSED AND ON ANY THEORY OF LIABILITY, WHETHER IN CONTRACT, STRICT
  30:./lib/ros_lib/ros/node_handle.h ****  * LIABILITY, OR TORT (INCLUDING NEGLIGENCE OR OTHERWISE) ARISING IN
  31:./lib/ros_lib/ros/node_handle.h ****  * ANY WAY OUT OF THE USE OF THIS SOFTWARE, EVEN IF ADVISED OF THE
  32:./lib/ros_lib/ros/node_handle.h ****  * POSSIBILITY OF SUCH DAMAGE.
  33:./lib/ros_lib/ros/node_handle.h ****  */
  34:./lib/ros_lib/ros/node_handle.h **** 
  35:./lib/ros_lib/ros/node_handle.h **** #ifndef ROS_NODE_HANDLE_H_
  36:./lib/ros_lib/ros/node_handle.h **** #define ROS_NODE_HANDLE_H_
  37:./lib/ros_lib/ros/node_handle.h **** 
  38:./lib/ros_lib/ros/node_handle.h **** #include <stdint.h>
  39:./lib/ros_lib/ros/node_handle.h **** 
  40:./lib/ros_lib/ros/node_handle.h **** #include "std_msgs/Time.h"
  41:./lib/ros_lib/ros/node_handle.h **** #include "rosserial_msgs/TopicInfo.h"
  42:./lib/ros_lib/ros/node_handle.h **** #include "rosserial_msgs/Log.h"
  43:./lib/ros_lib/ros/node_handle.h **** #include "rosserial_msgs/RequestParam.h"
  44:./lib/ros_lib/ros/node_handle.h **** 
  45:./lib/ros_lib/ros/node_handle.h **** #define SYNC_SECONDS        5
  46:./lib/ros_lib/ros/node_handle.h **** 
  47:./lib/ros_lib/ros/node_handle.h **** #define MODE_FIRST_FF       0
  48:./lib/ros_lib/ros/node_handle.h **** /*
  49:./lib/ros_lib/ros/node_handle.h ****  * The second sync byte is a protocol version. It's value is 0xff for the first
  50:./lib/ros_lib/ros/node_handle.h ****  * version of the rosserial protocol (used up to hydro), 0xfe for the second version
  51:./lib/ros_lib/ros/node_handle.h ****  * (introduced in hydro), 0xfd for the next, and so on. Its purpose is to enable
  52:./lib/ros_lib/ros/node_handle.h ****  * detection of mismatched protocol versions (e.g. hydro rosserial_python with groovy
  53:./lib/ros_lib/ros/node_handle.h ****  * rosserial_arduino. It must be changed in both this file and in
  54:./lib/ros_lib/ros/node_handle.h ****  * rosserial_python/src/rosserial_python/SerialClient.py
  55:./lib/ros_lib/ros/node_handle.h ****  */
  56:./lib/ros_lib/ros/node_handle.h **** #define MODE_PROTOCOL_VER   1
  57:./lib/ros_lib/ros/node_handle.h **** #define PROTOCOL_VER1		0xff // through groovy
  58:./lib/ros_lib/ros/node_handle.h **** #define PROTOCOL_VER2		0xfe // in hydro
  59:./lib/ros_lib/ros/node_handle.h **** #define PROTOCOL_VER 		PROTOCOL_VER2
  60:./lib/ros_lib/ros/node_handle.h **** #define MODE_SIZE_L         2
  61:./lib/ros_lib/ros/node_handle.h **** #define MODE_SIZE_H         3
  62:./lib/ros_lib/ros/node_handle.h **** #define MODE_SIZE_CHECKSUM  4   // checksum for msg size received from size L and H
  63:./lib/ros_lib/ros/node_handle.h **** #define MODE_TOPIC_L        5   // waiting for topic id
  64:./lib/ros_lib/ros/node_handle.h **** #define MODE_TOPIC_H        6
  65:./lib/ros_lib/ros/node_handle.h **** #define MODE_MESSAGE        7
  66:./lib/ros_lib/ros/node_handle.h **** #define MODE_MSG_CHECKSUM   8   // checksum for msg and topic id
  67:./lib/ros_lib/ros/node_handle.h **** 
  68:./lib/ros_lib/ros/node_handle.h **** 
  69:./lib/ros_lib/ros/node_handle.h **** #define MSG_TIMEOUT 20  //20 milliseconds to recieve all of message data
  70:./lib/ros_lib/ros/node_handle.h **** 
  71:./lib/ros_lib/ros/node_handle.h **** #include "msg.h"
  72:./lib/ros_lib/ros/node_handle.h **** 
  73:./lib/ros_lib/ros/node_handle.h **** namespace ros {
  74:./lib/ros_lib/ros/node_handle.h **** 
  75:./lib/ros_lib/ros/node_handle.h ****   class NodeHandleBase_{
  76:./lib/ros_lib/ros/node_handle.h ****     public:
  77:./lib/ros_lib/ros/node_handle.h ****       virtual int publish(int id, const Msg* msg)=0;
  78:./lib/ros_lib/ros/node_handle.h ****       virtual int spinOnce()=0;
  79:./lib/ros_lib/ros/node_handle.h ****       virtual bool connected()=0;
  80:./lib/ros_lib/ros/node_handle.h ****     };
  81:./lib/ros_lib/ros/node_handle.h **** }
  82:./lib/ros_lib/ros/node_handle.h **** 
  83:./lib/ros_lib/ros/node_handle.h **** #include "publisher.h"
  84:./lib/ros_lib/ros/node_handle.h **** #include "subscriber.h"
  85:./lib/ros_lib/ros/node_handle.h **** #include "service_server.h"
  86:./lib/ros_lib/ros/node_handle.h **** #include "service_client.h"
  87:./lib/ros_lib/ros/node_handle.h **** 
  88:./lib/ros_lib/ros/node_handle.h **** namespace ros {
  89:./lib/ros_lib/ros/node_handle.h **** 
  90:./lib/ros_lib/ros/node_handle.h ****   using rosserial_msgs::TopicInfo;
  91:./lib/ros_lib/ros/node_handle.h **** 
  92:./lib/ros_lib/ros/node_handle.h ****   /* Node Handle */
  93:./lib/ros_lib/ros/node_handle.h ****   template<class Hardware,
  94:./lib/ros_lib/ros/node_handle.h ****            int MAX_SUBSCRIBERS=25,
  95:./lib/ros_lib/ros/node_handle.h ****            int MAX_PUBLISHERS=25,
  96:./lib/ros_lib/ros/node_handle.h ****            int INPUT_SIZE=512,
  97:./lib/ros_lib/ros/node_handle.h ****            int OUTPUT_SIZE=512>
  98:./lib/ros_lib/ros/node_handle.h ****   class NodeHandle_ : public NodeHandleBase_
  99:./lib/ros_lib/ros/node_handle.h ****   {
 100:./lib/ros_lib/ros/node_handle.h ****     protected:
 101:./lib/ros_lib/ros/node_handle.h ****       Hardware hardware_;
 102:./lib/ros_lib/ros/node_handle.h **** 
 103:./lib/ros_lib/ros/node_handle.h ****       /* time used for syncing */
 104:./lib/ros_lib/ros/node_handle.h ****       uint32_t rt_time;
 105:./lib/ros_lib/ros/node_handle.h **** 
 106:./lib/ros_lib/ros/node_handle.h ****       /* used for computing current time */
 107:./lib/ros_lib/ros/node_handle.h ****       uint32_t sec_offset, nsec_offset;
 108:./lib/ros_lib/ros/node_handle.h **** 
 109:./lib/ros_lib/ros/node_handle.h ****       uint8_t message_in[INPUT_SIZE];
 110:./lib/ros_lib/ros/node_handle.h ****       uint8_t message_out[OUTPUT_SIZE];
 111:./lib/ros_lib/ros/node_handle.h **** 
 112:./lib/ros_lib/ros/node_handle.h ****       Publisher * publishers[MAX_PUBLISHERS];
 113:./lib/ros_lib/ros/node_handle.h ****       Subscriber_ * subscribers[MAX_SUBSCRIBERS];
 114:./lib/ros_lib/ros/node_handle.h **** 
 115:./lib/ros_lib/ros/node_handle.h ****       /*
 116:./lib/ros_lib/ros/node_handle.h ****        * Setup Functions
 117:./lib/ros_lib/ros/node_handle.h ****        */
 118:./lib/ros_lib/ros/node_handle.h ****     public:
 119:./lib/ros_lib/ros/node_handle.h ****       NodeHandle_() : configured_(false) {
 120:./lib/ros_lib/ros/node_handle.h **** 
 121:./lib/ros_lib/ros/node_handle.h ****         for(unsigned int i=0; i< MAX_PUBLISHERS; i++)
 122:./lib/ros_lib/ros/node_handle.h **** 	   publishers[i] = 0;
 123:./lib/ros_lib/ros/node_handle.h **** 
 124:./lib/ros_lib/ros/node_handle.h ****         for(unsigned int i=0; i< MAX_SUBSCRIBERS; i++)
 125:./lib/ros_lib/ros/node_handle.h **** 	   subscribers[i] = 0;
 126:./lib/ros_lib/ros/node_handle.h **** 
 127:./lib/ros_lib/ros/node_handle.h ****         for(unsigned int i=0; i< INPUT_SIZE; i++)
 128:./lib/ros_lib/ros/node_handle.h **** 	   message_in[i] = 0;
 129:./lib/ros_lib/ros/node_handle.h **** 
 130:./lib/ros_lib/ros/node_handle.h ****         for(unsigned int i=0; i< OUTPUT_SIZE; i++)
 131:./lib/ros_lib/ros/node_handle.h **** 	   message_out[i] = 0;
 132:./lib/ros_lib/ros/node_handle.h **** 
 133:./lib/ros_lib/ros/node_handle.h ****         req_param_resp.ints_length = 0;
 134:./lib/ros_lib/ros/node_handle.h ****         req_param_resp.ints = NULL;
 135:./lib/ros_lib/ros/node_handle.h ****         req_param_resp.floats_length = 0;
 136:./lib/ros_lib/ros/node_handle.h ****         req_param_resp.floats = NULL;
 137:./lib/ros_lib/ros/node_handle.h ****         req_param_resp.ints_length = 0;
 138:./lib/ros_lib/ros/node_handle.h ****         req_param_resp.ints = NULL;
 139:./lib/ros_lib/ros/node_handle.h ****       }
 140:./lib/ros_lib/ros/node_handle.h **** 
 141:./lib/ros_lib/ros/node_handle.h ****       Hardware* getHardware(){
 142:./lib/ros_lib/ros/node_handle.h ****         return &hardware_;
 143:./lib/ros_lib/ros/node_handle.h ****       }
 144:./lib/ros_lib/ros/node_handle.h **** 
 145:./lib/ros_lib/ros/node_handle.h ****       /* Start serial, initialize buffers */
 146:./lib/ros_lib/ros/node_handle.h ****       void initNode(){
 147:./lib/ros_lib/ros/node_handle.h ****         hardware_.init();
 148:./lib/ros_lib/ros/node_handle.h ****         mode_ = 0;
 149:./lib/ros_lib/ros/node_handle.h ****         bytes_ = 0;
 150:./lib/ros_lib/ros/node_handle.h ****         index_ = 0;
 151:./lib/ros_lib/ros/node_handle.h ****         topic_ = 0;
 152:./lib/ros_lib/ros/node_handle.h ****       };
 153:./lib/ros_lib/ros/node_handle.h **** 
 154:./lib/ros_lib/ros/node_handle.h ****       /* Start a named port, which may be network server IP, initialize buffers */
 155:./lib/ros_lib/ros/node_handle.h ****       void initNode(char *portName){
 156:./lib/ros_lib/ros/node_handle.h ****         hardware_.init(portName);
 157:./lib/ros_lib/ros/node_handle.h ****         mode_ = 0;
 158:./lib/ros_lib/ros/node_handle.h ****         bytes_ = 0;
 159:./lib/ros_lib/ros/node_handle.h ****         index_ = 0;
 160:./lib/ros_lib/ros/node_handle.h ****         topic_ = 0;
 161:./lib/ros_lib/ros/node_handle.h ****       };
 162:./lib/ros_lib/ros/node_handle.h **** 
 163:./lib/ros_lib/ros/node_handle.h ****     protected:
 164:./lib/ros_lib/ros/node_handle.h ****       //State machine variables for spinOnce
 165:./lib/ros_lib/ros/node_handle.h ****       int mode_;
 166:./lib/ros_lib/ros/node_handle.h ****       int bytes_;
 167:./lib/ros_lib/ros/node_handle.h ****       int topic_;
 168:./lib/ros_lib/ros/node_handle.h ****       int index_;
 169:./lib/ros_lib/ros/node_handle.h ****       int checksum_;
 170:./lib/ros_lib/ros/node_handle.h **** 
 171:./lib/ros_lib/ros/node_handle.h ****       bool configured_;
 172:./lib/ros_lib/ros/node_handle.h **** 
 173:./lib/ros_lib/ros/node_handle.h ****       /* used for syncing the time */
 174:./lib/ros_lib/ros/node_handle.h ****       uint32_t last_sync_time;
 175:./lib/ros_lib/ros/node_handle.h ****       uint32_t last_sync_receive_time;
 176:./lib/ros_lib/ros/node_handle.h ****       uint32_t last_msg_timeout_time;
 177:./lib/ros_lib/ros/node_handle.h **** 
 178:./lib/ros_lib/ros/node_handle.h ****     public:
 179:./lib/ros_lib/ros/node_handle.h ****       /* This function goes in your loop() function, it handles
 180:./lib/ros_lib/ros/node_handle.h ****        *  serial input and callbacks for subscribers.
 181:./lib/ros_lib/ros/node_handle.h ****        */
 182:./lib/ros_lib/ros/node_handle.h **** 
 183:./lib/ros_lib/ros/node_handle.h **** 
 184:./lib/ros_lib/ros/node_handle.h ****       virtual int spinOnce(){
 185:./lib/ros_lib/ros/node_handle.h **** 
 186:./lib/ros_lib/ros/node_handle.h ****         /* restart if timed out */
 187:./lib/ros_lib/ros/node_handle.h ****         uint32_t c_time = hardware_.time();
 188:./lib/ros_lib/ros/node_handle.h ****         if( (c_time - last_sync_receive_time) > (SYNC_SECONDS*2200) ){
 189:./lib/ros_lib/ros/node_handle.h ****             configured_ = false;
 190:./lib/ros_lib/ros/node_handle.h ****          }
 191:./lib/ros_lib/ros/node_handle.h **** 
 192:./lib/ros_lib/ros/node_handle.h ****         /* reset if message has timed out */
 193:./lib/ros_lib/ros/node_handle.h ****         if ( mode_ != MODE_FIRST_FF){
 194:./lib/ros_lib/ros/node_handle.h ****           if (c_time > last_msg_timeout_time){
 195:./lib/ros_lib/ros/node_handle.h ****             mode_ = MODE_FIRST_FF;
 196:./lib/ros_lib/ros/node_handle.h ****           }
 197:./lib/ros_lib/ros/node_handle.h ****         }
 198:./lib/ros_lib/ros/node_handle.h **** 
 199:./lib/ros_lib/ros/node_handle.h ****         /* while available buffer, read data */
 200:./lib/ros_lib/ros/node_handle.h ****         while( true )
 201:./lib/ros_lib/ros/node_handle.h ****         {
 202:./lib/ros_lib/ros/node_handle.h ****           int data = hardware_.read();
 203:./lib/ros_lib/ros/node_handle.h ****           if( data < 0 )
 204:./lib/ros_lib/ros/node_handle.h ****             break;
 205:./lib/ros_lib/ros/node_handle.h ****           checksum_ += data;
 206:./lib/ros_lib/ros/node_handle.h ****           if( mode_ == MODE_MESSAGE ){        /* message data being recieved */
 207:./lib/ros_lib/ros/node_handle.h ****             message_in[index_++] = data;
 208:./lib/ros_lib/ros/node_handle.h ****             bytes_--;
 209:./lib/ros_lib/ros/node_handle.h ****             if(bytes_ == 0)                  /* is message complete? if so, checksum */
 210:./lib/ros_lib/ros/node_handle.h ****               mode_ = MODE_MSG_CHECKSUM;
 211:./lib/ros_lib/ros/node_handle.h ****           }else if( mode_ == MODE_FIRST_FF ){
 212:./lib/ros_lib/ros/node_handle.h ****             if(data == 0xff){
 213:./lib/ros_lib/ros/node_handle.h ****               mode_++;
 214:./lib/ros_lib/ros/node_handle.h ****               last_msg_timeout_time = c_time + MSG_TIMEOUT;
 215:./lib/ros_lib/ros/node_handle.h ****             }
 216:./lib/ros_lib/ros/node_handle.h ****             else if( hardware_.time() - c_time > (SYNC_SECONDS)){
 217:./lib/ros_lib/ros/node_handle.h ****               /* We have been stuck in spinOnce too long, return error */
 218:./lib/ros_lib/ros/node_handle.h ****               configured_=false;
 219:./lib/ros_lib/ros/node_handle.h ****               return -2;
 220:./lib/ros_lib/ros/node_handle.h ****             }
 221:./lib/ros_lib/ros/node_handle.h ****           }else if( mode_ == MODE_PROTOCOL_VER ){
 222:./lib/ros_lib/ros/node_handle.h ****             if(data == PROTOCOL_VER){
 223:./lib/ros_lib/ros/node_handle.h ****               mode_++;
 224:./lib/ros_lib/ros/node_handle.h ****             }else{
 225:./lib/ros_lib/ros/node_handle.h ****               mode_ = MODE_FIRST_FF;
 226:./lib/ros_lib/ros/node_handle.h ****               if (configured_ == false)
 227:./lib/ros_lib/ros/node_handle.h ****                   requestSyncTime(); 	/* send a msg back showing our protocol version */
 228:./lib/ros_lib/ros/node_handle.h ****             }
 229:./lib/ros_lib/ros/node_handle.h **** 	  }else if( mode_ == MODE_SIZE_L ){   /* bottom half of message size */
 230:./lib/ros_lib/ros/node_handle.h ****             bytes_ = data;
 231:./lib/ros_lib/ros/node_handle.h ****             index_ = 0;
 232:./lib/ros_lib/ros/node_handle.h ****             mode_++;
 233:./lib/ros_lib/ros/node_handle.h ****             checksum_ = data;               /* first byte for calculating size checksum */
 234:./lib/ros_lib/ros/node_handle.h ****           }else if( mode_ == MODE_SIZE_H ){   /* top half of message size */
 235:./lib/ros_lib/ros/node_handle.h ****             bytes_ += data<<8;
 236:./lib/ros_lib/ros/node_handle.h **** 	    mode_++;
 237:./lib/ros_lib/ros/node_handle.h ****           }else if( mode_ == MODE_SIZE_CHECKSUM ){
 238:./lib/ros_lib/ros/node_handle.h ****             if( (checksum_%256) == 255)
 239:./lib/ros_lib/ros/node_handle.h **** 	      mode_++;
 240:./lib/ros_lib/ros/node_handle.h **** 	    else
 241:./lib/ros_lib/ros/node_handle.h **** 	      mode_ = MODE_FIRST_FF;          /* Abandon the frame if the msg len is wrong */
 242:./lib/ros_lib/ros/node_handle.h **** 	  }else if( mode_ == MODE_TOPIC_L ){  /* bottom half of topic id */
 243:./lib/ros_lib/ros/node_handle.h ****             topic_ = data;
 244:./lib/ros_lib/ros/node_handle.h ****             mode_++;
 245:./lib/ros_lib/ros/node_handle.h ****             checksum_ = data;               /* first byte included in checksum */
 246:./lib/ros_lib/ros/node_handle.h ****           }else if( mode_ == MODE_TOPIC_H ){  /* top half of topic id */
 247:./lib/ros_lib/ros/node_handle.h ****             topic_ += data<<8;
 248:./lib/ros_lib/ros/node_handle.h ****             mode_ = MODE_MESSAGE;
 249:./lib/ros_lib/ros/node_handle.h ****             if(bytes_ == 0)
 250:./lib/ros_lib/ros/node_handle.h ****               mode_ = MODE_MSG_CHECKSUM;
 251:./lib/ros_lib/ros/node_handle.h ****           }else if( mode_ == MODE_MSG_CHECKSUM ){ /* do checksum */
 252:./lib/ros_lib/ros/node_handle.h ****             mode_ = MODE_FIRST_FF;
 253:./lib/ros_lib/ros/node_handle.h ****             if( (checksum_%256) == 255){
 254:./lib/ros_lib/ros/node_handle.h ****               if(topic_ == TopicInfo::ID_PUBLISHER){
 255:./lib/ros_lib/ros/node_handle.h ****                 requestSyncTime();
 256:./lib/ros_lib/ros/node_handle.h ****                 negotiateTopics();
 257:./lib/ros_lib/ros/node_handle.h ****                 last_sync_time = c_time;
 258:./lib/ros_lib/ros/node_handle.h ****                 last_sync_receive_time = c_time;
 259:./lib/ros_lib/ros/node_handle.h ****                 return -1;
 260:./lib/ros_lib/ros/node_handle.h ****               }else if(topic_ == TopicInfo::ID_TIME){
 261:./lib/ros_lib/ros/node_handle.h ****                 syncTime(message_in);
 262:./lib/ros_lib/ros/node_handle.h ****               }else if (topic_ == TopicInfo::ID_PARAMETER_REQUEST){
 263:./lib/ros_lib/ros/node_handle.h ****                   req_param_resp.deserialize(message_in);
 264:./lib/ros_lib/ros/node_handle.h ****                   param_recieved= true;
 265:./lib/ros_lib/ros/node_handle.h ****               }else if(topic_ == TopicInfo::ID_TX_STOP){
 266:./lib/ros_lib/ros/node_handle.h ****                   configured_ = false;
 267:./lib/ros_lib/ros/node_handle.h ****               }else{
 268:./lib/ros_lib/ros/node_handle.h ****                 if(subscribers[topic_-100])
 269:./lib/ros_lib/ros/node_handle.h ****                   subscribers[topic_-100]->callback( message_in );
 270:./lib/ros_lib/ros/node_handle.h ****               }
 271:./lib/ros_lib/ros/node_handle.h ****             }
 272:./lib/ros_lib/ros/node_handle.h ****           }
 273:./lib/ros_lib/ros/node_handle.h ****         }
 274:./lib/ros_lib/ros/node_handle.h **** 
 275:./lib/ros_lib/ros/node_handle.h ****         /* occasionally sync time */
 276:./lib/ros_lib/ros/node_handle.h ****         if( configured_ && ((c_time-last_sync_time) > (SYNC_SECONDS*500) )){
 277:./lib/ros_lib/ros/node_handle.h ****           requestSyncTime();
 278:./lib/ros_lib/ros/node_handle.h ****           last_sync_time = c_time;
 279:./lib/ros_lib/ros/node_handle.h ****         }
 280:./lib/ros_lib/ros/node_handle.h **** 
 281:./lib/ros_lib/ros/node_handle.h ****         return 0;
 282:./lib/ros_lib/ros/node_handle.h ****       }
 283:./lib/ros_lib/ros/node_handle.h **** 
 284:./lib/ros_lib/ros/node_handle.h **** 
 285:./lib/ros_lib/ros/node_handle.h ****       /* Are we connected to the PC? */
 286:./lib/ros_lib/ros/node_handle.h ****       virtual bool connected() {
 947              		.loc 11 286 0
 948              		.cfi_startproc
 949              		@ args = 0, pretend = 0, frame = 0
 950              		@ frame_needed = 0, uses_anonymous_args = 0
 951              		@ link register save eliminated.
 952              	.LVL70:
 287:./lib/ros_lib/ros/node_handle.h ****         return configured_;
 288:./lib/ros_lib/ros/node_handle.h ****       };
 953              		.loc 11 288 0
 954 0000 90F8F404 		ldrb	r0, [r0, #1268]	@ zero_extendqisi2
 955              	.LVL71:
 956 0004 7047     		bx	lr
 957              		.cfi_endproc
 958              	.LFE224:
 959              		.cantunwind
 960              		.fnend
 962              		.text
 963              		.align	1
 964              		.global	_Z6led_cbRKN8std_msgs5UInt8E
 965              		.thumb
 966              		.thumb_func
 968              	_Z6led_cbRKN8std_msgs5UInt8E:
 969              		.fnstart
 970              	.LFB184:
  34:src/main.cpp  ****   led_set(cmd_msg.data);
 971              		.loc 9 34 0
 972              		.cfi_startproc
 973              		@ args = 0, pretend = 0, frame = 0
 974              		@ frame_needed = 0, uses_anonymous_args = 0
 975              		@ link register save eliminated.
 976              	.LVL72:
  35:src/main.cpp  **** }
 977              		.loc 9 35 0
 978 0002 0079     		ldrb	r0, [r0, #4]	@ zero_extendqisi2
 979              	.LVL73:
 980 0004 FFF7FEBF 		b	led_set
 981              	.LVL74:
 982              		.cfi_endproc
 983              	.LFE184:
 984              		.cantunwind
 985              		.fnend
 987              		.section	.text._ZNK8std_msgs6Header9serializeEPh,"axG",%progbits,_ZNK8std_msgs6Header9serializeEPh
 988              		.align	1
 989              		.weak	_ZNK8std_msgs6Header9serializeEPh
 990              		.thumb
 991              		.thumb_func
 993              	_ZNK8std_msgs6Header9serializeEPh:
 994              		.fnstart
 995              	.LFB173:
  27:./lib/ros_lib/std_msgs/Header.h ****     {
 996              		.loc 7 27 0
 997              		.cfi_startproc
 998              		@ args = 0, pretend = 0, frame = 8
 999              		@ frame_needed = 0, uses_anonymous_args = 0
 1000              	.LVL75:
  30:./lib/ros_lib/std_msgs/Header.h ****       *(outbuffer + offset + 1) = (this->seq >> (8 * 1)) & 0xFF;
 1001              		.loc 7 30 0
 1002 0000 4368     		ldr	r3, [r0, #4]
  27:./lib/ros_lib/std_msgs/Header.h ****     {
 1003              		.loc 7 27 0
 1004 0002 73B5     		push	{r0, r1, r4, r5, r6, lr}
 1005              	.LCFI0:
 1006              		.cfi_def_cfa_offset 24
 1007              		.cfi_offset 4, -16
 1008              		.cfi_offset 5, -12
 1009              		.cfi_offset 6, -8
 1010              		.cfi_offset 14, -4
  30:./lib/ros_lib/std_msgs/Header.h ****       *(outbuffer + offset + 1) = (this->seq >> (8 * 1)) & 0xFF;
 1011              		.loc 7 30 0
 1012 0004 0B70     		strb	r3, [r1]
  31:./lib/ros_lib/std_msgs/Header.h ****       *(outbuffer + offset + 2) = (this->seq >> (8 * 2)) & 0xFF;
 1013              		.loc 7 31 0
 1014 0006 4368     		ldr	r3, [r0, #4]
  27:./lib/ros_lib/std_msgs/Header.h ****     {
 1015              		.loc 7 27 0
 1016 0008 0546     		mov	r5, r0
  31:./lib/ros_lib/std_msgs/Header.h ****       *(outbuffer + offset + 2) = (this->seq >> (8 * 2)) & 0xFF;
 1017              		.loc 7 31 0
 1018 000a 1B0A     		lsrs	r3, r3, #8
 1019 000c 4B70     		strb	r3, [r1, #1]
  32:./lib/ros_lib/std_msgs/Header.h ****       *(outbuffer + offset + 3) = (this->seq >> (8 * 3)) & 0xFF;
 1020              		.loc 7 32 0
 1021 000e C388     		ldrh	r3, [r0, #6]
  27:./lib/ros_lib/std_msgs/Header.h ****     {
 1022              		.loc 7 27 0
 1023 0010 0C46     		mov	r4, r1
  32:./lib/ros_lib/std_msgs/Header.h ****       *(outbuffer + offset + 3) = (this->seq >> (8 * 3)) & 0xFF;
 1024              		.loc 7 32 0
 1025 0012 8B70     		strb	r3, [r1, #2]
  33:./lib/ros_lib/std_msgs/Header.h ****       offset += sizeof(this->seq);
 1026              		.loc 7 33 0
 1027 0014 C379     		ldrb	r3, [r0, #7]	@ zero_extendqisi2
 1028 0016 CB70     		strb	r3, [r1, #3]
 1029              	.LVL76:
  35:./lib/ros_lib/std_msgs/Header.h ****       *(outbuffer + offset + 1) = (this->stamp.sec >> (8 * 1)) & 0xFF;
 1030              		.loc 7 35 0
 1031 0018 8368     		ldr	r3, [r0, #8]
 1032 001a 0B71     		strb	r3, [r1, #4]
  36:./lib/ros_lib/std_msgs/Header.h ****       *(outbuffer + offset + 2) = (this->stamp.sec >> (8 * 2)) & 0xFF;
 1033              		.loc 7 36 0
 1034 001c 8368     		ldr	r3, [r0, #8]
 1035 001e 1B0A     		lsrs	r3, r3, #8
 1036 0020 4B71     		strb	r3, [r1, #5]
  37:./lib/ros_lib/std_msgs/Header.h ****       *(outbuffer + offset + 3) = (this->stamp.sec >> (8 * 3)) & 0xFF;
 1037              		.loc 7 37 0
 1038 0022 4389     		ldrh	r3, [r0, #10]
 1039 0024 8B71     		strb	r3, [r1, #6]
  38:./lib/ros_lib/std_msgs/Header.h ****       offset += sizeof(this->stamp.sec);
 1040              		.loc 7 38 0
 1041 0026 C37A     		ldrb	r3, [r0, #11]	@ zero_extendqisi2
 1042 0028 CB71     		strb	r3, [r1, #7]
 1043              	.LVL77:
  40:./lib/ros_lib/std_msgs/Header.h ****       *(outbuffer + offset + 1) = (this->stamp.nsec >> (8 * 1)) & 0xFF;
 1044              		.loc 7 40 0
 1045 002a C368     		ldr	r3, [r0, #12]
 1046 002c 0B72     		strb	r3, [r1, #8]
  41:./lib/ros_lib/std_msgs/Header.h ****       *(outbuffer + offset + 2) = (this->stamp.nsec >> (8 * 2)) & 0xFF;
 1047              		.loc 7 41 0
 1048 002e C368     		ldr	r3, [r0, #12]
 1049 0030 1B0A     		lsrs	r3, r3, #8
 1050 0032 4B72     		strb	r3, [r1, #9]
  42:./lib/ros_lib/std_msgs/Header.h ****       *(outbuffer + offset + 3) = (this->stamp.nsec >> (8 * 3)) & 0xFF;
 1051              		.loc 7 42 0
 1052 0034 C389     		ldrh	r3, [r0, #14]
 1053 0036 8B72     		strb	r3, [r1, #10]
  43:./lib/ros_lib/std_msgs/Header.h ****       offset += sizeof(this->stamp.nsec);
 1054              		.loc 7 43 0
 1055 0038 C37B     		ldrb	r3, [r0, #15]	@ zero_extendqisi2
 1056 003a CB72     		strb	r3, [r1, #11]
 1057              	.LVL78:
  45:./lib/ros_lib/std_msgs/Header.h ****       memcpy(outbuffer + offset, &length_frame_id, sizeof(uint32_t));
 1058              		.loc 7 45 0
 1059 003c 0069     		ldr	r0, [r0, #16]
 1060              	.LVL79:
 1061 003e FFF7FEFF 		bl	strlen
 1062              	.LVL80:
 1063 0042 0646     		mov	r6, r0
 1064 0044 02AB     		add	r3, sp, #8
 1065 0046 43F8040D 		str	r0, [r3, #-4]!
  46:./lib/ros_lib/std_msgs/Header.h ****       offset += 4;
 1066              		.loc 7 46 0
 1067 004a 1868     		ldr	r0, [r3]	@ unaligned
  48:./lib/ros_lib/std_msgs/Header.h ****       offset += length_frame_id;
 1068              		.loc 7 48 0
 1069 004c 3246     		mov	r2, r6
  46:./lib/ros_lib/std_msgs/Header.h ****       offset += 4;
 1070              		.loc 7 46 0
 1071 004e E060     		str	r0, [r4, #12]	@ unaligned
 1072              	.LVL81:
  48:./lib/ros_lib/std_msgs/Header.h ****       offset += length_frame_id;
 1073              		.loc 7 48 0
 1074 0050 2969     		ldr	r1, [r5, #16]
 1075 0052 04F11000 		add	r0, r4, #16
 1076 0056 FFF7FEFF 		bl	memcpy
 1077              	.LVL82:
  51:./lib/ros_lib/std_msgs/Header.h **** 
 1078              		.loc 7 51 0
 1079 005a 06F11000 		add	r0, r6, #16
 1080              	.LVL83:
 1081 005e 02B0     		add	sp, sp, #8
 1082              	.LCFI1:
 1083              		.cfi_def_cfa_offset 16
 1084              		@ sp needed
 1085 0060 70BD     		pop	{r4, r5, r6, pc}
 1086              		.cfi_endproc
 1087              	.LFE173:
 1088              		.cantunwind
 1089              		.fnend
 1091              		.section	.text._ZNK14rosserial_msgs20RequestParamResponse9serializeEPh,"axG",%progbits,_ZNK14rosse
 1092              		.align	1
 1093              		.weak	_ZNK14rosserial_msgs20RequestParamResponse9serializeEPh
 1094              		.thumb
 1095              		.thumb_func
 1097              	_ZNK14rosserial_msgs20RequestParamResponse9serializeEPh:
 1098              		.fnstart
 1099              	.LFB82:
  74:./lib/ros_lib/rosserial_msgs/RequestParam.h ****     {
 1100              		.loc 4 74 0
 1101              		.cfi_startproc
 1102              		@ args = 0, pretend = 0, frame = 8
 1103              		@ frame_needed = 0, uses_anonymous_args = 0
 1104              	.LVL84:
 1105 0000 2DE9F743 		push	{r0, r1, r2, r4, r5, r6, r7, r8, r9, lr}
 1106              	.LCFI2:
 1107              		.cfi_def_cfa_offset 40
 1108              		.cfi_offset 4, -28
 1109              		.cfi_offset 5, -24
 1110              		.cfi_offset 6, -20
 1111              		.cfi_offset 7, -16
 1112              		.cfi_offset 8, -12
 1113              		.cfi_offset 9, -8
 1114              		.cfi_offset 14, -4
  77:./lib/ros_lib/rosserial_msgs/RequestParam.h ****       *(outbuffer + offset++) = 0;
 1115              		.loc 4 77 0
 1116 0004 0379     		ldrb	r3, [r0, #4]	@ zero_extendqisi2
  74:./lib/ros_lib/rosserial_msgs/RequestParam.h ****     {
 1117              		.loc 4 74 0
 1118 0006 0746     		mov	r7, r0
  77:./lib/ros_lib/rosserial_msgs/RequestParam.h ****       *(outbuffer + offset++) = 0;
 1119              		.loc 4 77 0
 1120 0008 0B70     		strb	r3, [r1]
 1121              	.LVL85:
  78:./lib/ros_lib/rosserial_msgs/RequestParam.h ****       *(outbuffer + offset++) = 0;
 1122              		.loc 4 78 0
 1123 000a 0023     		movs	r3, #0
  80:./lib/ros_lib/rosserial_msgs/RequestParam.h ****       for( uint8_t i = 0; i < ints_length; i++){
 1124              		.loc 4 80 0
 1125 000c 1A46     		mov	r2, r3
  74:./lib/ros_lib/rosserial_msgs/RequestParam.h ****     {
 1126              		.loc 4 74 0
 1127 000e 0C46     		mov	r4, r1
  78:./lib/ros_lib/rosserial_msgs/RequestParam.h ****       *(outbuffer + offset++) = 0;
 1128              		.loc 4 78 0
 1129 0010 4B70     		strb	r3, [r1, #1]
 1130              	.LVL86:
  79:./lib/ros_lib/rosserial_msgs/RequestParam.h ****       *(outbuffer + offset++) = 0;
 1131              		.loc 4 79 0
 1132 0012 8B70     		strb	r3, [r1, #2]
 1133              	.LVL87:
  80:./lib/ros_lib/rosserial_msgs/RequestParam.h ****       for( uint8_t i = 0; i < ints_length; i++){
 1134              		.loc 4 80 0
 1135 0014 CB70     		strb	r3, [r1, #3]
 1136              	.LVL88:
 1137 0016 0431     		adds	r1, r1, #4
 1138              	.LVL89:
 1139              	.L76:
 1140              	.LBB154:
  81:./lib/ros_lib/rosserial_msgs/RequestParam.h ****       union {
 1141              		.loc 4 81 0 discriminator 3
 1142 0018 3D79     		ldrb	r5, [r7, #4]	@ zero_extendqisi2
 1143 001a 501C     		adds	r0, r2, #1
 1144 001c D2B2     		uxtb	r2, r2
 1145 001e 9542     		cmp	r5, r2
 1146 0020 A1EB0403 		sub	r3, r1, r4
 1147              	.LVL90:
 1148 0024 01F10401 		add	r1, r1, #4
 1149 0028 0FD9     		bls	.L75
 1150              	.LBB155:
  86:./lib/ros_lib/rosserial_msgs/RequestParam.h ****       *(outbuffer + offset + 0) = (u_intsi.base >> (8 * 0)) & 0xFF;
 1151              		.loc 4 86 0 discriminator 2
 1152 002a FB68     		ldr	r3, [r7, #12]
 1153              	.LVL91:
 1154 002c 53F82230 		ldr	r3, [r3, r2, lsl #2]
 1155              	.LVL92:
  88:./lib/ros_lib/rosserial_msgs/RequestParam.h ****       *(outbuffer + offset + 2) = (u_intsi.base >> (8 * 2)) & 0xFF;
 1156              		.loc 4 88 0 discriminator 2
 1157 0030 1A0A     		lsrs	r2, r3, #8
  87:./lib/ros_lib/rosserial_msgs/RequestParam.h ****       *(outbuffer + offset + 1) = (u_intsi.base >> (8 * 1)) & 0xFF;
 1158              		.loc 4 87 0 discriminator 2
 1159 0032 01F8043C 		strb	r3, [r1, #-4]
  88:./lib/ros_lib/rosserial_msgs/RequestParam.h ****       *(outbuffer + offset + 2) = (u_intsi.base >> (8 * 2)) & 0xFF;
 1160              		.loc 4 88 0 discriminator 2
 1161 0036 01F8032C 		strb	r2, [r1, #-3]
  89:./lib/ros_lib/rosserial_msgs/RequestParam.h ****       *(outbuffer + offset + 3) = (u_intsi.base >> (8 * 3)) & 0xFF;
 1162              		.loc 4 89 0 discriminator 2
 1163 003a 1A0C     		lsrs	r2, r3, #16
  90:./lib/ros_lib/rosserial_msgs/RequestParam.h ****       offset += sizeof(this->ints[i]);
 1164              		.loc 4 90 0 discriminator 2
 1165 003c 1B0E     		lsrs	r3, r3, #24
 1166              	.LVL93:
  89:./lib/ros_lib/rosserial_msgs/RequestParam.h ****       *(outbuffer + offset + 3) = (u_intsi.base >> (8 * 3)) & 0xFF;
 1167              		.loc 4 89 0 discriminator 2
 1168 003e 01F8022C 		strb	r2, [r1, #-2]
  90:./lib/ros_lib/rosserial_msgs/RequestParam.h ****       offset += sizeof(this->ints[i]);
 1169              		.loc 4 90 0 discriminator 2
 1170 0042 01F8013C 		strb	r3, [r1, #-1]
 1171              	.LVL94:
 1172              	.LBE155:
  81:./lib/ros_lib/rosserial_msgs/RequestParam.h ****       union {
 1173              		.loc 4 81 0 discriminator 2
 1174 0046 0246     		mov	r2, r0
 1175 0048 E6E7     		b	.L76
 1176              	.LVL95:
 1177              	.L75:
 1178              	.LBE154:
  93:./lib/ros_lib/rosserial_msgs/RequestParam.h ****       *(outbuffer + offset++) = 0;
 1179              		.loc 4 93 0
 1180 004a 3A7C     		ldrb	r2, [r7, #16]	@ zero_extendqisi2
  94:./lib/ros_lib/rosserial_msgs/RequestParam.h ****       *(outbuffer + offset++) = 0;
 1181              		.loc 4 94 0
 1182 004c E118     		adds	r1, r4, r3
  93:./lib/ros_lib/rosserial_msgs/RequestParam.h ****       *(outbuffer + offset++) = 0;
 1183              		.loc 4 93 0
 1184 004e E254     		strb	r2, [r4, r3]
 1185              	.LVL96:
  94:./lib/ros_lib/rosserial_msgs/RequestParam.h ****       *(outbuffer + offset++) = 0;
 1186              		.loc 4 94 0
 1187 0050 0022     		movs	r2, #0
 1188 0052 0433     		adds	r3, r3, #4
 1189              	.LVL97:
 1190 0054 4A70     		strb	r2, [r1, #1]
 1191              	.LVL98:
  95:./lib/ros_lib/rosserial_msgs/RequestParam.h ****       *(outbuffer + offset++) = 0;
 1192              		.loc 4 95 0
 1193 0056 8A70     		strb	r2, [r1, #2]
  96:./lib/ros_lib/rosserial_msgs/RequestParam.h ****       for( uint8_t i = 0; i < floats_length; i++){
 1194              		.loc 4 96 0
 1195 0058 CA70     		strb	r2, [r1, #3]
 1196              	.LVL99:
 1197 005a 2344     		add	r3, r3, r4
 1198              	.LVL100:
 1199              	.L78:
 1200              	.LBB156:
  97:./lib/ros_lib/rosserial_msgs/RequestParam.h ****       union {
 1201              		.loc 4 97 0 discriminator 3
 1202 005c 387C     		ldrb	r0, [r7, #16]	@ zero_extendqisi2
 1203 005e 511C     		adds	r1, r2, #1
 1204 0060 D2B2     		uxtb	r2, r2
 1205 0062 9042     		cmp	r0, r2
 1206 0064 A3EB0406 		sub	r6, r3, r4
 1207              	.LVL101:
 1208 0068 03F10403 		add	r3, r3, #4
 1209 006c 0FD9     		bls	.L77
 1210              	.LBB157:
 102:./lib/ros_lib/rosserial_msgs/RequestParam.h ****       *(outbuffer + offset + 0) = (u_floatsi.base >> (8 * 0)) & 0xFF;
 1211              		.loc 4 102 0 discriminator 2
 1212 006e B869     		ldr	r0, [r7, #24]
 103:./lib/ros_lib/rosserial_msgs/RequestParam.h ****       *(outbuffer + offset + 1) = (u_floatsi.base >> (8 * 1)) & 0xFF;
 1213              		.loc 4 103 0 discriminator 2
 1214 0070 50F82220 		ldr	r2, [r0, r2, lsl #2]
 104:./lib/ros_lib/rosserial_msgs/RequestParam.h ****       *(outbuffer + offset + 2) = (u_floatsi.base >> (8 * 2)) & 0xFF;
 1215              		.loc 4 104 0 discriminator 2
 1216 0074 100A     		lsrs	r0, r2, #8
 103:./lib/ros_lib/rosserial_msgs/RequestParam.h ****       *(outbuffer + offset + 1) = (u_floatsi.base >> (8 * 1)) & 0xFF;
 1217              		.loc 4 103 0 discriminator 2
 1218 0076 03F8042C 		strb	r2, [r3, #-4]
 104:./lib/ros_lib/rosserial_msgs/RequestParam.h ****       *(outbuffer + offset + 2) = (u_floatsi.base >> (8 * 2)) & 0xFF;
 1219              		.loc 4 104 0 discriminator 2
 1220 007a 03F8030C 		strb	r0, [r3, #-3]
 105:./lib/ros_lib/rosserial_msgs/RequestParam.h ****       *(outbuffer + offset + 3) = (u_floatsi.base >> (8 * 3)) & 0xFF;
 1221              		.loc 4 105 0 discriminator 2
 1222 007e 100C     		lsrs	r0, r2, #16
 106:./lib/ros_lib/rosserial_msgs/RequestParam.h ****       offset += sizeof(this->floats[i]);
 1223              		.loc 4 106 0 discriminator 2
 1224 0080 120E     		lsrs	r2, r2, #24
 1225 0082 03F8012C 		strb	r2, [r3, #-1]
 1226              	.LVL102:
 105:./lib/ros_lib/rosserial_msgs/RequestParam.h ****       *(outbuffer + offset + 3) = (u_floatsi.base >> (8 * 3)) & 0xFF;
 1227              		.loc 4 105 0 discriminator 2
 1228 0086 03F8020C 		strb	r0, [r3, #-2]
 1229              	.LBE157:
  97:./lib/ros_lib/rosserial_msgs/RequestParam.h ****       union {
 1230              		.loc 4 97 0 discriminator 2
 1231 008a 0A46     		mov	r2, r1
 1232 008c E6E7     		b	.L78
 1233              	.LVL103:
 1234              	.L77:
 1235              	.LBE156:
 109:./lib/ros_lib/rosserial_msgs/RequestParam.h ****       *(outbuffer + offset++) = 0;
 1236              		.loc 4 109 0
 1237 008e 3B7F     		ldrb	r3, [r7, #28]	@ zero_extendqisi2
 110:./lib/ros_lib/rosserial_msgs/RequestParam.h ****       *(outbuffer + offset++) = 0;
 1238              		.loc 4 110 0
 1239 0090 A219     		adds	r2, r4, r6
 109:./lib/ros_lib/rosserial_msgs/RequestParam.h ****       *(outbuffer + offset++) = 0;
 1240              		.loc 4 109 0
 1241 0092 A355     		strb	r3, [r4, r6]
 1242              	.LVL104:
 110:./lib/ros_lib/rosserial_msgs/RequestParam.h ****       *(outbuffer + offset++) = 0;
 1243              		.loc 4 110 0
 1244 0094 0023     		movs	r3, #0
 1245 0096 5370     		strb	r3, [r2, #1]
 1246              	.LVL105:
 111:./lib/ros_lib/rosserial_msgs/RequestParam.h ****       *(outbuffer + offset++) = 0;
 1247              		.loc 4 111 0
 1248 0098 9370     		strb	r3, [r2, #2]
 112:./lib/ros_lib/rosserial_msgs/RequestParam.h ****       for( uint8_t i = 0; i < strings_length; i++){
 1249              		.loc 4 112 0
 1250 009a 0436     		adds	r6, r6, #4
 1251              	.LVL106:
 1252 009c D370     		strb	r3, [r2, #3]
 1253              	.LVL107:
 1254              	.L80:
 1255              	.LBB158:
 113:./lib/ros_lib/rosserial_msgs/RequestParam.h ****       uint32_t length_stringsi = strlen(this->strings[i]);
 1256              		.loc 4 113 0 discriminator 3
 1257 009e 3A7F     		ldrb	r2, [r7, #28]	@ zero_extendqisi2
 1258 00a0 DDB2     		uxtb	r5, r3
 1259 00a2 AA42     		cmp	r2, r5
 1260 00a4 03F10109 		add	r9, r3, #1
 1261 00a8 15D9     		bls	.L79
 1262              	.LBB159:
 114:./lib/ros_lib/rosserial_msgs/RequestParam.h ****       memcpy(outbuffer + offset, &length_stringsi, sizeof(uint32_t));
 1263              		.loc 4 114 0 discriminator 2
 1264 00aa 7B6A     		ldr	r3, [r7, #36]
 1265              	.LVL108:
 1266 00ac 53F82500 		ldr	r0, [r3, r5, lsl #2]
 1267 00b0 FFF7FEFF 		bl	strlen
 1268              	.LVL109:
 1269 00b4 8046     		mov	r8, r0
 1270 00b6 02AB     		add	r3, sp, #8
 1271 00b8 43F8040D 		str	r0, [r3, #-4]!
 115:./lib/ros_lib/rosserial_msgs/RequestParam.h ****       offset += 4;
 1272              		.loc 4 115 0 discriminator 2
 1273 00bc 1868     		ldr	r0, [r3]	@ unaligned
 117:./lib/ros_lib/rosserial_msgs/RequestParam.h ****       offset += length_stringsi;
 1274              		.loc 4 117 0 discriminator 2
 1275 00be 4246     		mov	r2, r8
 115:./lib/ros_lib/rosserial_msgs/RequestParam.h ****       offset += 4;
 1276              		.loc 4 115 0 discriminator 2
 1277 00c0 A051     		str	r0, [r4, r6]	@ unaligned
 1278              	.LVL110:
 117:./lib/ros_lib/rosserial_msgs/RequestParam.h ****       offset += length_stringsi;
 1279              		.loc 4 117 0 discriminator 2
 1280 00c2 7B6A     		ldr	r3, [r7, #36]
 1281 00c4 0436     		adds	r6, r6, #4
 1282              	.LVL111:
 1283 00c6 53F82510 		ldr	r1, [r3, r5, lsl #2]
 1284 00ca A019     		adds	r0, r4, r6
 1285 00cc FFF7FEFF 		bl	memcpy
 1286              	.LVL112:
 118:./lib/ros_lib/rosserial_msgs/RequestParam.h ****       }
 1287              		.loc 4 118 0 discriminator 2
 1288 00d0 4644     		add	r6, r6, r8
 1289              	.LVL113:
 1290              	.LBE159:
 113:./lib/ros_lib/rosserial_msgs/RequestParam.h ****       uint32_t length_stringsi = strlen(this->strings[i]);
 1291              		.loc 4 113 0 discriminator 2
 1292 00d2 4B46     		mov	r3, r9
 1293 00d4 E3E7     		b	.L80
 1294              	.LVL114:
 1295              	.L79:
 1296              	.LBE158:
 121:./lib/ros_lib/rosserial_msgs/RequestParam.h **** 
 1297              		.loc 4 121 0
 1298 00d6 3046     		mov	r0, r6
 1299 00d8 03B0     		add	sp, sp, #12
 1300              	.LCFI3:
 1301              		.cfi_def_cfa_offset 28
 1302              		@ sp needed
 1303 00da BDE8F083 		pop	{r4, r5, r6, r7, r8, r9, pc}
 1304              		.cfi_endproc
 1305              	.LFE82:
 1306              		.cantunwind
 1307              		.fnend
 1309              		.section	.text._ZNK14rosserial_msgs3Log9serializeEPh,"axG",%progbits,_ZNK14rosserial_msgs3Log9seri
 1310              		.align	1
 1311              		.weak	_ZNK14rosserial_msgs3Log9serializeEPh
 1312              		.thumb
 1313              		.thumb_func
 1315              	_ZNK14rosserial_msgs3Log9serializeEPh:
 1316              		.fnstart
 1317              	.LFB68:
  29:./lib/ros_lib/rosserial_msgs/Log.h ****     {
 1318              		.loc 3 29 0
 1319              		.cfi_startproc
 1320              		@ args = 0, pretend = 0, frame = 8
 1321              		@ frame_needed = 0, uses_anonymous_args = 0
 1322              	.LVL115:
 1323 0000 73B5     		push	{r0, r1, r4, r5, r6, lr}
 1324              	.LCFI4:
 1325              		.cfi_def_cfa_offset 24
 1326              		.cfi_offset 4, -16
 1327              		.cfi_offset 5, -12
 1328              		.cfi_offset 6, -8
 1329              		.cfi_offset 14, -4
  32:./lib/ros_lib/rosserial_msgs/Log.h ****       offset += sizeof(this->level);
 1330              		.loc 3 32 0
 1331 0002 0379     		ldrb	r3, [r0, #4]	@ zero_extendqisi2
  29:./lib/ros_lib/rosserial_msgs/Log.h ****     {
 1332              		.loc 3 29 0
 1333 0004 0646     		mov	r6, r0
  32:./lib/ros_lib/rosserial_msgs/Log.h ****       offset += sizeof(this->level);
 1334              		.loc 3 32 0
 1335 0006 0B70     		strb	r3, [r1]
 1336              	.LVL116:
  34:./lib/ros_lib/rosserial_msgs/Log.h ****       memcpy(outbuffer + offset, &length_msg, sizeof(uint32_t));
 1337              		.loc 3 34 0
 1338 0008 8068     		ldr	r0, [r0, #8]
 1339              	.LVL117:
  29:./lib/ros_lib/rosserial_msgs/Log.h ****     {
 1340              		.loc 3 29 0
 1341 000a 0D46     		mov	r5, r1
  34:./lib/ros_lib/rosserial_msgs/Log.h ****       memcpy(outbuffer + offset, &length_msg, sizeof(uint32_t));
 1342              		.loc 3 34 0
 1343 000c FFF7FEFF 		bl	strlen
 1344              	.LVL118:
 1345 0010 0446     		mov	r4, r0
 1346 0012 02AB     		add	r3, sp, #8
 1347 0014 43F8040D 		str	r0, [r3, #-4]!
  35:./lib/ros_lib/rosserial_msgs/Log.h ****       offset += 4;
 1348              		.loc 3 35 0
 1349 0018 1868     		ldr	r0, [r3]	@ unaligned
  37:./lib/ros_lib/rosserial_msgs/Log.h ****       offset += length_msg;
 1350              		.loc 3 37 0
 1351 001a 2246     		mov	r2, r4
  35:./lib/ros_lib/rosserial_msgs/Log.h ****       offset += 4;
 1352              		.loc 3 35 0
 1353 001c C5F80100 		str	r0, [r5, #1]	@ unaligned
 1354              	.LVL119:
  37:./lib/ros_lib/rosserial_msgs/Log.h ****       offset += length_msg;
 1355              		.loc 3 37 0
 1356 0020 B168     		ldr	r1, [r6, #8]
 1357 0022 681D     		adds	r0, r5, #5
 1358 0024 FFF7FEFF 		bl	memcpy
 1359              	.LVL120:
  40:./lib/ros_lib/rosserial_msgs/Log.h **** 
 1360              		.loc 3 40 0
 1361 0028 601D     		adds	r0, r4, #5
 1362              	.LVL121:
 1363 002a 02B0     		add	sp, sp, #8
 1364              	.LCFI5:
 1365              		.cfi_def_cfa_offset 16
 1366              		@ sp needed
 1367 002c 70BD     		pop	{r4, r5, r6, pc}
 1368              		.cfi_endproc
 1369              	.LFE68:
 1370              		.cantunwind
 1371              		.fnend
 1373              		.section	.text._ZNK14rosserial_msgs9TopicInfo9serializeEPh,"axG",%progbits,_ZNK14rosserial_msgs9To
 1374              		.align	1
 1375              		.weak	_ZNK14rosserial_msgs9TopicInfo9serializeEPh
 1376              		.thumb
 1377              		.thumb_func
 1379              	_ZNK14rosserial_msgs9TopicInfo9serializeEPh:
 1380              		.fnstart
 1381              	.LFB61:
  38:./lib/ros_lib/rosserial_msgs/TopicInfo.h ****     {
 1382              		.loc 2 38 0
 1383              		.cfi_startproc
 1384              		@ args = 0, pretend = 0, frame = 16
 1385              		@ frame_needed = 0, uses_anonymous_args = 0
 1386              	.LVL122:
 1387 0000 2DE9FF41 		push	{r0, r1, r2, r3, r4, r5, r6, r7, r8, lr}
 1388              	.LCFI6:
 1389              		.cfi_def_cfa_offset 40
 1390              		.cfi_offset 4, -24
 1391              		.cfi_offset 5, -20
 1392              		.cfi_offset 6, -16
 1393              		.cfi_offset 7, -12
 1394              		.cfi_offset 8, -8
 1395              		.cfi_offset 14, -4
  41:./lib/ros_lib/rosserial_msgs/TopicInfo.h ****       *(outbuffer + offset + 1) = (this->topic_id >> (8 * 1)) & 0xFF;
 1396              		.loc 2 41 0
 1397 0004 8388     		ldrh	r3, [r0, #4]
  38:./lib/ros_lib/rosserial_msgs/TopicInfo.h ****     {
 1398              		.loc 2 38 0
 1399 0006 0646     		mov	r6, r0
  41:./lib/ros_lib/rosserial_msgs/TopicInfo.h ****       *(outbuffer + offset + 1) = (this->topic_id >> (8 * 1)) & 0xFF;
 1400              		.loc 2 41 0
 1401 0008 0B70     		strb	r3, [r1]
  42:./lib/ros_lib/rosserial_msgs/TopicInfo.h ****       offset += sizeof(this->topic_id);
 1402              		.loc 2 42 0
 1403 000a 8388     		ldrh	r3, [r0, #4]
  38:./lib/ros_lib/rosserial_msgs/TopicInfo.h ****     {
 1404              		.loc 2 38 0
 1405 000c 0D46     		mov	r5, r1
  42:./lib/ros_lib/rosserial_msgs/TopicInfo.h ****       offset += sizeof(this->topic_id);
 1406              		.loc 2 42 0
 1407 000e 1B0A     		lsrs	r3, r3, #8
 1408 0010 4B70     		strb	r3, [r1, #1]
 1409              	.LVL123:
  44:./lib/ros_lib/rosserial_msgs/TopicInfo.h ****       memcpy(outbuffer + offset, &length_topic_name, sizeof(uint32_t));
 1410              		.loc 2 44 0
 1411 0012 8068     		ldr	r0, [r0, #8]
 1412              	.LVL124:
 1413 0014 FFF7FEFF 		bl	strlen
 1414              	.LVL125:
 1415 0018 0446     		mov	r4, r0
 1416 001a 04AB     		add	r3, sp, #16
 1417 001c 43F80C0D 		str	r0, [r3, #-12]!
  45:./lib/ros_lib/rosserial_msgs/TopicInfo.h ****       offset += 4;
 1418              		.loc 2 45 0
 1419 0020 1868     		ldr	r0, [r3]	@ unaligned
  47:./lib/ros_lib/rosserial_msgs/TopicInfo.h ****       offset += length_topic_name;
 1420              		.loc 2 47 0
 1421 0022 2246     		mov	r2, r4
  45:./lib/ros_lib/rosserial_msgs/TopicInfo.h ****       offset += 4;
 1422              		.loc 2 45 0
 1423 0024 C5F80200 		str	r0, [r5, #2]	@ unaligned
 1424              	.LVL126:
  47:./lib/ros_lib/rosserial_msgs/TopicInfo.h ****       offset += length_topic_name;
 1425              		.loc 2 47 0
 1426 0028 B168     		ldr	r1, [r6, #8]
 1427 002a A81D     		adds	r0, r5, #6
 1428 002c FFF7FEFF 		bl	memcpy
 1429              	.LVL127:
  49:./lib/ros_lib/rosserial_msgs/TopicInfo.h ****       memcpy(outbuffer + offset, &length_message_type, sizeof(uint32_t));
 1430              		.loc 2 49 0
 1431 0030 F068     		ldr	r0, [r6, #12]
 1432 0032 FFF7FEFF 		bl	strlen
 1433              	.LVL128:
 1434 0036 0746     		mov	r7, r0
 1435 0038 04AB     		add	r3, sp, #16
 1436 003a 43F8080D 		str	r0, [r3, #-8]!
  50:./lib/ros_lib/rosserial_msgs/TopicInfo.h ****       offset += 4;
 1437              		.loc 2 50 0
 1438 003e 1868     		ldr	r0, [r3]	@ unaligned
  48:./lib/ros_lib/rosserial_msgs/TopicInfo.h ****       uint32_t length_message_type = strlen(this->message_type);
 1439              		.loc 2 48 0
 1440 0040 04F10608 		add	r8, r4, #6
 1441              	.LVL129:
  50:./lib/ros_lib/rosserial_msgs/TopicInfo.h ****       offset += 4;
 1442              		.loc 2 50 0
 1443 0044 45F80800 		str	r0, [r5, r8]	@ unaligned
 1444              	.LVL130:
  52:./lib/ros_lib/rosserial_msgs/TopicInfo.h ****       offset += length_message_type;
 1445              		.loc 2 52 0
 1446 0048 0A34     		adds	r4, r4, #10
 1447 004a 3A46     		mov	r2, r7
 1448 004c F168     		ldr	r1, [r6, #12]
 1449 004e 2819     		adds	r0, r5, r4
 1450 0050 FFF7FEFF 		bl	memcpy
 1451              	.LVL131:
  54:./lib/ros_lib/rosserial_msgs/TopicInfo.h ****       memcpy(outbuffer + offset, &length_md5sum, sizeof(uint32_t));
 1452              		.loc 2 54 0
 1453 0054 3069     		ldr	r0, [r6, #16]
 1454 0056 FFF7FEFF 		bl	strlen
 1455              	.LVL132:
  53:./lib/ros_lib/rosserial_msgs/TopicInfo.h ****       uint32_t length_md5sum = strlen(this->md5sum);
 1456              		.loc 2 53 0
 1457 005a 3C44     		add	r4, r4, r7
 1458              	.LVL133:
  54:./lib/ros_lib/rosserial_msgs/TopicInfo.h ****       memcpy(outbuffer + offset, &length_md5sum, sizeof(uint32_t));
 1459              		.loc 2 54 0
 1460 005c 0746     		mov	r7, r0
 1461 005e 04AB     		add	r3, sp, #16
 1462 0060 43F8040D 		str	r0, [r3, #-4]!
  55:./lib/ros_lib/rosserial_msgs/TopicInfo.h ****       offset += 4;
 1463              		.loc 2 55 0
 1464 0064 1868     		ldr	r0, [r3]	@ unaligned
  57:./lib/ros_lib/rosserial_msgs/TopicInfo.h ****       offset += length_md5sum;
 1465              		.loc 2 57 0
 1466 0066 3A46     		mov	r2, r7
  55:./lib/ros_lib/rosserial_msgs/TopicInfo.h ****       offset += 4;
 1467              		.loc 2 55 0
 1468 0068 2851     		str	r0, [r5, r4]	@ unaligned
 1469              	.LVL134:
  57:./lib/ros_lib/rosserial_msgs/TopicInfo.h ****       offset += length_md5sum;
 1470              		.loc 2 57 0
 1471 006a 0434     		adds	r4, r4, #4
 1472              	.LVL135:
 1473 006c 2819     		adds	r0, r5, r4
 1474 006e 3169     		ldr	r1, [r6, #16]
 1475 0070 FFF7FEFF 		bl	memcpy
 1476              	.LVL136:
  63:./lib/ros_lib/rosserial_msgs/TopicInfo.h ****       *(outbuffer + offset + 0) = (u_buffer_size.base >> (8 * 0)) & 0xFF;
 1477              		.loc 2 63 0
 1478 0074 7369     		ldr	r3, [r6, #20]
  58:./lib/ros_lib/rosserial_msgs/TopicInfo.h ****       union {
 1479              		.loc 2 58 0
 1480 0076 3819     		adds	r0, r7, r4
 1481              	.LVL137:
  64:./lib/ros_lib/rosserial_msgs/TopicInfo.h ****       *(outbuffer + offset + 1) = (u_buffer_size.base >> (8 * 1)) & 0xFF;
 1482              		.loc 2 64 0
 1483 0078 2B54     		strb	r3, [r5, r0]
  65:./lib/ros_lib/rosserial_msgs/TopicInfo.h ****       *(outbuffer + offset + 2) = (u_buffer_size.base >> (8 * 2)) & 0xFF;
 1484              		.loc 2 65 0
 1485 007a 1A0A     		lsrs	r2, r3, #8
 1486 007c 0544     		add	r5, r5, r0
 1487              	.LVL138:
 1488 007e 6A70     		strb	r2, [r5, #1]
  70:./lib/ros_lib/rosserial_msgs/TopicInfo.h **** 
 1489              		.loc 2 70 0
 1490 0080 0430     		adds	r0, r0, #4
 1491              	.LVL139:
  66:./lib/ros_lib/rosserial_msgs/TopicInfo.h ****       *(outbuffer + offset + 3) = (u_buffer_size.base >> (8 * 3)) & 0xFF;
 1492              		.loc 2 66 0
 1493 0082 1A0C     		lsrs	r2, r3, #16
  67:./lib/ros_lib/rosserial_msgs/TopicInfo.h ****       offset += sizeof(this->buffer_size);
 1494              		.loc 2 67 0
 1495 0084 1B0E     		lsrs	r3, r3, #24
 1496              	.LVL140:
  66:./lib/ros_lib/rosserial_msgs/TopicInfo.h ****       *(outbuffer + offset + 3) = (u_buffer_size.base >> (8 * 3)) & 0xFF;
 1497              		.loc 2 66 0
 1498 0086 AA70     		strb	r2, [r5, #2]
  67:./lib/ros_lib/rosserial_msgs/TopicInfo.h ****       offset += sizeof(this->buffer_size);
 1499              		.loc 2 67 0
 1500 0088 EB70     		strb	r3, [r5, #3]
 1501              	.LVL141:
  70:./lib/ros_lib/rosserial_msgs/TopicInfo.h **** 
 1502              		.loc 2 70 0
 1503 008a 04B0     		add	sp, sp, #16
 1504              	.LCFI7:
 1505              		.cfi_def_cfa_offset 24
 1506              		@ sp needed
 1507 008c BDE8F081 		pop	{r4, r5, r6, r7, r8, pc}
 1508              		.cfi_endproc
 1509              	.LFE61:
 1510              		.cantunwind
 1511              		.fnend
 1513              		.section	.text._ZN14rosserial_msgs3Log11deserializeEPh,"axG",%progbits,_ZN14rosserial_msgs3Log11de
 1514              		.align	1
 1515              		.weak	_ZN14rosserial_msgs3Log11deserializeEPh
 1516              		.thumb
 1517              		.thumb_func
 1519              	_ZN14rosserial_msgs3Log11deserializeEPh:
 1520              		.fnstart
 1521              	.LFB69:
  42:./lib/ros_lib/rosserial_msgs/Log.h ****     {
 1522              		.loc 3 42 0
 1523              		.cfi_startproc
 1524              		@ args = 0, pretend = 0, frame = 8
 1525              		@ frame_needed = 0, uses_anonymous_args = 0
 1526              	.LVL142:
  45:./lib/ros_lib/rosserial_msgs/Log.h ****       offset += sizeof(this->level);
 1527              		.loc 3 45 0
 1528 0000 0B46     		mov	r3, r1
  42:./lib/ros_lib/rosserial_msgs/Log.h ****     {
 1529              		.loc 3 42 0
 1530 0002 37B5     		push	{r0, r1, r2, r4, r5, lr}
 1531              	.LCFI8:
 1532              		.cfi_def_cfa_offset 24
 1533              		.cfi_offset 4, -12
 1534              		.cfi_offset 5, -8
 1535              		.cfi_offset 14, -4
  45:./lib/ros_lib/rosserial_msgs/Log.h ****       offset += sizeof(this->level);
 1536              		.loc 3 45 0
 1537 0004 13F8012B 		ldrb	r2, [r3], #1	@ zero_extendqisi2
  42:./lib/ros_lib/rosserial_msgs/Log.h ****     {
 1538              		.loc 3 42 0
 1539 0008 0446     		mov	r4, r0
  45:./lib/ros_lib/rosserial_msgs/Log.h ****       offset += sizeof(this->level);
 1540              		.loc 3 45 0
 1541 000a 0271     		strb	r2, [r0, #4]
 1542              	.LVL143:
  48:./lib/ros_lib/rosserial_msgs/Log.h ****       offset += 4;
 1543              		.loc 3 48 0
 1544 000c 1868     		ldr	r0, [r3]	@ unaligned
 1545              	.LVL144:
 1546 000e 4A1D     		adds	r2, r1, #5
 1547 0010 0190     		str	r0, [sp, #4]	@ unaligned
 1548              	.LVL145:
 1549              	.LBB160:
  50:./lib/ros_lib/rosserial_msgs/Log.h ****           inbuffer[k-1]=inbuffer[k];
 1550              		.loc 3 50 0
 1551 0012 019B     		ldr	r3, [sp, #4]
 1552 0014 581D     		adds	r0, r3, #5
 1553              	.LVL146:
 1554              	.L86:
  50:./lib/ros_lib/rosserial_msgs/Log.h ****           inbuffer[k-1]=inbuffer[k];
 1555              		.loc 3 50 0 is_stmt 0 discriminator 3
 1556 0016 551A     		subs	r5, r2, r1
 1557              	.LVL147:
 1558 0018 A842     		cmp	r0, r5
 1559 001a 04D9     		bls	.L85
  51:./lib/ros_lib/rosserial_msgs/Log.h ****       }
 1560              		.loc 3 51 0 is_stmt 1 discriminator 2
 1561 001c 12F8015B 		ldrb	r5, [r2], #1	@ zero_extendqisi2
 1562              	.LVL148:
 1563 0020 02F8025C 		strb	r5, [r2, #-2]
 1564              	.LVL149:
  50:./lib/ros_lib/rosserial_msgs/Log.h ****           inbuffer[k-1]=inbuffer[k];
 1565              		.loc 3 50 0 discriminator 2
 1566 0024 F7E7     		b	.L86
 1567              	.LVL150:
 1568              	.L85:
 1569              	.LBE160:
  53:./lib/ros_lib/rosserial_msgs/Log.h ****       this->msg = (char *)(inbuffer + offset-1);
 1570              		.loc 3 53 0
 1571 0026 0B44     		add	r3, r3, r1
 1572 0028 0022     		movs	r2, #0
  54:./lib/ros_lib/rosserial_msgs/Log.h ****       offset += length_msg;
 1573              		.loc 3 54 0
 1574 002a 0431     		adds	r1, r1, #4
 1575              	.LVL151:
  53:./lib/ros_lib/rosserial_msgs/Log.h ****       this->msg = (char *)(inbuffer + offset-1);
 1576              		.loc 3 53 0
 1577 002c 1A71     		strb	r2, [r3, #4]
  54:./lib/ros_lib/rosserial_msgs/Log.h ****       offset += length_msg;
 1578              		.loc 3 54 0
 1579 002e A160     		str	r1, [r4, #8]
 1580              	.LVL152:
  57:./lib/ros_lib/rosserial_msgs/Log.h **** 
 1581              		.loc 3 57 0
 1582 0030 03B0     		add	sp, sp, #12
 1583              	.LCFI9:
 1584              		.cfi_def_cfa_offset 12
 1585              		@ sp needed
 1586 0032 30BD     		pop	{r4, r5, pc}
 1587              		.cfi_endproc
 1588              	.LFE69:
 1589              		.cantunwind
 1590              		.fnend
 1592              		.section	.text._ZN8std_msgs6Header11deserializeEPh,"axG",%progbits,_ZN8std_msgs6Header11deserializ
 1593              		.align	1
 1594              		.weak	_ZN8std_msgs6Header11deserializeEPh
 1595              		.thumb
 1596              		.thumb_func
 1598              	_ZN8std_msgs6Header11deserializeEPh:
 1599              		.fnstart
 1600              	.LFB174:
  53:./lib/ros_lib/std_msgs/Header.h ****     {
 1601              		.loc 7 53 0
 1602              		.cfi_startproc
 1603              		@ args = 0, pretend = 0, frame = 8
 1604              		@ frame_needed = 0, uses_anonymous_args = 0
 1605              	.LVL153:
 1606 0000 0346     		mov	r3, r0
 1607 0002 37B5     		push	{r0, r1, r2, r4, r5, lr}
 1608              	.LCFI10:
 1609              		.cfi_def_cfa_offset 24
 1610              		.cfi_offset 4, -12
 1611              		.cfi_offset 5, -8
 1612              		.cfi_offset 14, -4
  56:./lib/ros_lib/std_msgs/Header.h ****       this->seq |= ((uint32_t) (*(inbuffer + offset + 1))) << (8 * 1);
 1613              		.loc 7 56 0
 1614 0004 0A78     		ldrb	r2, [r1]	@ zero_extendqisi2
 1615 0006 01F11004 		add	r4, r1, #16
 1616 000a 4260     		str	r2, [r0, #4]
  57:./lib/ros_lib/std_msgs/Header.h ****       this->seq |= ((uint32_t) (*(inbuffer + offset + 2))) << (8 * 2);
 1617              		.loc 7 57 0
 1618 000c 4878     		ldrb	r0, [r1, #1]	@ zero_extendqisi2
 1619              	.LVL154:
 1620 000e 42EA0022 		orr	r2, r2, r0, lsl #8
 1621 0012 5A60     		str	r2, [r3, #4]
  58:./lib/ros_lib/std_msgs/Header.h ****       this->seq |= ((uint32_t) (*(inbuffer + offset + 3))) << (8 * 3);
 1622              		.loc 7 58 0
 1623 0014 8878     		ldrb	r0, [r1, #2]	@ zero_extendqisi2
 1624 0016 42EA0042 		orr	r2, r2, r0, lsl #16
 1625 001a 5A60     		str	r2, [r3, #4]
  59:./lib/ros_lib/std_msgs/Header.h ****       offset += sizeof(this->seq);
 1626              		.loc 7 59 0
 1627 001c C878     		ldrb	r0, [r1, #3]	@ zero_extendqisi2
 1628 001e 42EA0062 		orr	r2, r2, r0, lsl #24
 1629 0022 5A60     		str	r2, [r3, #4]
 1630              	.LVL155:
  61:./lib/ros_lib/std_msgs/Header.h ****       this->stamp.sec |= ((uint32_t) (*(inbuffer + offset + 1))) << (8 * 1);
 1631              		.loc 7 61 0
 1632 0024 0A79     		ldrb	r2, [r1, #4]	@ zero_extendqisi2
 1633 0026 9A60     		str	r2, [r3, #8]
  62:./lib/ros_lib/std_msgs/Header.h ****       this->stamp.sec |= ((uint32_t) (*(inbuffer + offset + 2))) << (8 * 2);
 1634              		.loc 7 62 0
 1635 0028 4879     		ldrb	r0, [r1, #5]	@ zero_extendqisi2
 1636 002a 42EA0022 		orr	r2, r2, r0, lsl #8
 1637 002e 9A60     		str	r2, [r3, #8]
  63:./lib/ros_lib/std_msgs/Header.h ****       this->stamp.sec |= ((uint32_t) (*(inbuffer + offset + 3))) << (8 * 3);
 1638              		.loc 7 63 0
 1639 0030 8879     		ldrb	r0, [r1, #6]	@ zero_extendqisi2
 1640 0032 42EA0042 		orr	r2, r2, r0, lsl #16
 1641 0036 9A60     		str	r2, [r3, #8]
  64:./lib/ros_lib/std_msgs/Header.h ****       offset += sizeof(this->stamp.sec);
 1642              		.loc 7 64 0
 1643 0038 C879     		ldrb	r0, [r1, #7]	@ zero_extendqisi2
 1644 003a 42EA0062 		orr	r2, r2, r0, lsl #24
 1645 003e 9A60     		str	r2, [r3, #8]
 1646              	.LVL156:
  66:./lib/ros_lib/std_msgs/Header.h ****       this->stamp.nsec |= ((uint32_t) (*(inbuffer + offset + 1))) << (8 * 1);
 1647              		.loc 7 66 0
 1648 0040 0A7A     		ldrb	r2, [r1, #8]	@ zero_extendqisi2
 1649 0042 DA60     		str	r2, [r3, #12]
  67:./lib/ros_lib/std_msgs/Header.h ****       this->stamp.nsec |= ((uint32_t) (*(inbuffer + offset + 2))) << (8 * 2);
 1650              		.loc 7 67 0
 1651 0044 487A     		ldrb	r0, [r1, #9]	@ zero_extendqisi2
 1652 0046 42EA0022 		orr	r2, r2, r0, lsl #8
 1653 004a DA60     		str	r2, [r3, #12]
  68:./lib/ros_lib/std_msgs/Header.h ****       this->stamp.nsec |= ((uint32_t) (*(inbuffer + offset + 3))) << (8 * 3);
 1654              		.loc 7 68 0
 1655 004c 887A     		ldrb	r0, [r1, #10]	@ zero_extendqisi2
 1656 004e 42EA0042 		orr	r2, r2, r0, lsl #16
 1657 0052 DA60     		str	r2, [r3, #12]
  69:./lib/ros_lib/std_msgs/Header.h ****       offset += sizeof(this->stamp.nsec);
 1658              		.loc 7 69 0
 1659 0054 C87A     		ldrb	r0, [r1, #11]	@ zero_extendqisi2
 1660 0056 42EA0062 		orr	r2, r2, r0, lsl #24
 1661 005a DA60     		str	r2, [r3, #12]
 1662              	.LVL157:
  72:./lib/ros_lib/std_msgs/Header.h ****       offset += 4;
 1663              		.loc 7 72 0
 1664 005c C868     		ldr	r0, [r1, #12]	@ unaligned
 1665 005e 0190     		str	r0, [sp, #4]	@ unaligned
 1666              	.LVL158:
 1667              	.LBB161:
  74:./lib/ros_lib/std_msgs/Header.h ****           inbuffer[k-1]=inbuffer[k];
 1668              		.loc 7 74 0
 1669 0060 019A     		ldr	r2, [sp, #4]
 1670 0062 02F11000 		add	r0, r2, #16
 1671              	.LVL159:
 1672              	.L90:
  74:./lib/ros_lib/std_msgs/Header.h ****           inbuffer[k-1]=inbuffer[k];
 1673              		.loc 7 74 0 is_stmt 0 discriminator 3
 1674 0066 651A     		subs	r5, r4, r1
 1675              	.LVL160:
 1676 0068 A842     		cmp	r0, r5
 1677 006a 04D9     		bls	.L89
  75:./lib/ros_lib/std_msgs/Header.h ****       }
 1678              		.loc 7 75 0 is_stmt 1 discriminator 2
 1679 006c 14F8015B 		ldrb	r5, [r4], #1	@ zero_extendqisi2
 1680              	.LVL161:
 1681 0070 04F8025C 		strb	r5, [r4, #-2]
 1682              	.LVL162:
  74:./lib/ros_lib/std_msgs/Header.h ****           inbuffer[k-1]=inbuffer[k];
 1683              		.loc 7 74 0 discriminator 2
 1684 0074 F7E7     		b	.L90
 1685              	.LVL163:
 1686              	.L89:
 1687              	.LBE161:
  77:./lib/ros_lib/std_msgs/Header.h ****       this->frame_id = (char *)(inbuffer + offset-1);
 1688              		.loc 7 77 0
 1689 0076 0A44     		add	r2, r2, r1
 1690 0078 0024     		movs	r4, #0
  78:./lib/ros_lib/std_msgs/Header.h ****       offset += length_frame_id;
 1691              		.loc 7 78 0
 1692 007a 0F31     		adds	r1, r1, #15
 1693              	.LVL164:
  77:./lib/ros_lib/std_msgs/Header.h ****       this->frame_id = (char *)(inbuffer + offset-1);
 1694              		.loc 7 77 0
 1695 007c D473     		strb	r4, [r2, #15]
  78:./lib/ros_lib/std_msgs/Header.h ****       offset += length_frame_id;
 1696              		.loc 7 78 0
 1697 007e 1961     		str	r1, [r3, #16]
 1698              	.LVL165:
  81:./lib/ros_lib/std_msgs/Header.h **** 
 1699              		.loc 7 81 0
 1700 0080 03B0     		add	sp, sp, #12
 1701              	.LCFI11:
 1702              		.cfi_def_cfa_offset 12
 1703              		@ sp needed
 1704 0082 30BD     		pop	{r4, r5, pc}
 1705              		.cfi_endproc
 1706              	.LFE174:
 1707              		.cantunwind
 1708              		.fnend
 1710              		.section	.text._ZN14rosserial_msgs9TopicInfo11deserializeEPh,"axG",%progbits,_ZN14rosserial_msgs9T
 1711              		.align	1
 1712              		.weak	_ZN14rosserial_msgs9TopicInfo11deserializeEPh
 1713              		.thumb
 1714              		.thumb_func
 1716              	_ZN14rosserial_msgs9TopicInfo11deserializeEPh:
 1717              		.fnstart
 1718              	.LFB62:
  72:./lib/ros_lib/rosserial_msgs/TopicInfo.h ****     {
 1719              		.loc 2 72 0
 1720              		.cfi_startproc
 1721              		@ args = 0, pretend = 0, frame = 16
 1722              		@ frame_needed = 0, uses_anonymous_args = 0
 1723              	.LVL166:
  75:./lib/ros_lib/rosserial_msgs/TopicInfo.h ****       this->topic_id |= ((uint16_t) (*(inbuffer + offset + 1))) << (8 * 1);
 1724              		.loc 2 75 0
 1725 0000 0B78     		ldrb	r3, [r1]	@ zero_extendqisi2
  72:./lib/ros_lib/rosserial_msgs/TopicInfo.h ****     {
 1726              		.loc 2 72 0
 1727 0002 30B5     		push	{r4, r5, lr}
 1728              	.LCFI12:
 1729              		.cfi_def_cfa_offset 12
 1730              		.cfi_offset 4, -12
 1731              		.cfi_offset 5, -8
 1732              		.cfi_offset 14, -4
  75:./lib/ros_lib/rosserial_msgs/TopicInfo.h ****       this->topic_id |= ((uint16_t) (*(inbuffer + offset + 1))) << (8 * 1);
 1733              		.loc 2 75 0
 1734 0004 8380     		strh	r3, [r0, #4]	@ movhi
  76:./lib/ros_lib/rosserial_msgs/TopicInfo.h ****       offset += sizeof(this->topic_id);
 1735              		.loc 2 76 0
 1736 0006 4A78     		ldrb	r2, [r1, #1]	@ zero_extendqisi2
  72:./lib/ros_lib/rosserial_msgs/TopicInfo.h ****     {
 1737              		.loc 2 72 0
 1738 0008 0446     		mov	r4, r0
  76:./lib/ros_lib/rosserial_msgs/TopicInfo.h ****       offset += sizeof(this->topic_id);
 1739              		.loc 2 76 0
 1740 000a 43EA0223 		orr	r3, r3, r2, lsl #8
 1741 000e 8380     		strh	r3, [r0, #4]	@ movhi
 1742              	.LVL167:
  79:./lib/ros_lib/rosserial_msgs/TopicInfo.h ****       offset += 4;
 1743              		.loc 2 79 0
 1744 0010 D1F80200 		ldr	r0, [r1, #2]	@ unaligned
 1745              	.LVL168:
  72:./lib/ros_lib/rosserial_msgs/TopicInfo.h ****     {
 1746              		.loc 2 72 0
 1747 0014 85B0     		sub	sp, sp, #20
 1748              	.LCFI13:
 1749              		.cfi_def_cfa_offset 32
  79:./lib/ros_lib/rosserial_msgs/TopicInfo.h ****       offset += 4;
 1750              		.loc 2 79 0
 1751 0016 0190     		str	r0, [sp, #4]	@ unaligned
 1752              	.LVL169:
 1753              	.LBB162:
  81:./lib/ros_lib/rosserial_msgs/TopicInfo.h ****           inbuffer[k-1]=inbuffer[k];
 1754              		.loc 2 81 0
 1755 0018 019D     		ldr	r5, [sp, #4]
 1756 001a 8A1D     		adds	r2, r1, #6
 1757 001c AB1D     		adds	r3, r5, #6
 1758              	.LVL170:
 1759              	.L94:
  81:./lib/ros_lib/rosserial_msgs/TopicInfo.h ****           inbuffer[k-1]=inbuffer[k];
 1760              		.loc 2 81 0 is_stmt 0 discriminator 3
 1761 001e 501A     		subs	r0, r2, r1
 1762              	.LVL171:
 1763 0020 8342     		cmp	r3, r0
 1764 0022 04D9     		bls	.L93
  82:./lib/ros_lib/rosserial_msgs/TopicInfo.h ****       }
 1765              		.loc 2 82 0 is_stmt 1 discriminator 2
 1766 0024 12F8010B 		ldrb	r0, [r2], #1	@ zero_extendqisi2
 1767              	.LVL172:
 1768 0028 02F8020C 		strb	r0, [r2, #-2]
 1769              	.LVL173:
  81:./lib/ros_lib/rosserial_msgs/TopicInfo.h ****           inbuffer[k-1]=inbuffer[k];
 1770              		.loc 2 81 0 discriminator 2
 1771 002c F7E7     		b	.L94
 1772              	.LVL174:
 1773              	.L93:
 1774              	.LBE162:
  84:./lib/ros_lib/rosserial_msgs/TopicInfo.h ****       this->topic_name = (char *)(inbuffer + offset-1);
 1775              		.loc 2 84 0
 1776 002e 4A19     		adds	r2, r1, r5
 1777 0030 0020     		movs	r0, #0
 1778              	.LVL175:
 1779 0032 5071     		strb	r0, [r2, #5]
  85:./lib/ros_lib/rosserial_msgs/TopicInfo.h ****       offset += length_topic_name;
 1780              		.loc 2 85 0
 1781 0034 4A1D     		adds	r2, r1, #5
 1782 0036 A260     		str	r2, [r4, #8]
 1783              	.LVL176:
  88:./lib/ros_lib/rosserial_msgs/TopicInfo.h ****       offset += 4;
 1784              		.loc 2 88 0
 1785 0038 C858     		ldr	r0, [r1, r3]	@ unaligned
 1786              	.LBB163:
  90:./lib/ros_lib/rosserial_msgs/TopicInfo.h ****           inbuffer[k-1]=inbuffer[k];
 1787              		.loc 2 90 0
 1788 003a 1A1D     		adds	r2, r3, #4
 1789              	.LBE163:
  88:./lib/ros_lib/rosserial_msgs/TopicInfo.h ****       offset += 4;
 1790              		.loc 2 88 0
 1791 003c 0290     		str	r0, [sp, #8]	@ unaligned
 1792              	.LVL177:
 1793              	.LBB164:
  90:./lib/ros_lib/rosserial_msgs/TopicInfo.h ****           inbuffer[k-1]=inbuffer[k];
 1794              		.loc 2 90 0
 1795 003e 029B     		ldr	r3, [sp, #8]
 1796 0040 05F10A00 		add	r0, r5, #10
 1797 0044 1344     		add	r3, r3, r2
 1798 0046 0844     		add	r0, r0, r1
 1799              	.LVL178:
 1800              	.L96:
  90:./lib/ros_lib/rosserial_msgs/TopicInfo.h ****           inbuffer[k-1]=inbuffer[k];
 1801              		.loc 2 90 0 is_stmt 0 discriminator 3
 1802 0048 451A     		subs	r5, r0, r1
 1803              	.LVL179:
 1804 004a AB42     		cmp	r3, r5
 1805 004c 04D9     		bls	.L95
  91:./lib/ros_lib/rosserial_msgs/TopicInfo.h ****       }
 1806              		.loc 2 91 0 is_stmt 1 discriminator 2
 1807 004e 10F8015B 		ldrb	r5, [r0], #1	@ zero_extendqisi2
 1808              	.LVL180:
 1809 0052 00F8025C 		strb	r5, [r0, #-2]
 1810              	.LVL181:
  90:./lib/ros_lib/rosserial_msgs/TopicInfo.h ****           inbuffer[k-1]=inbuffer[k];
 1811              		.loc 2 90 0 discriminator 2
 1812 0056 F7E7     		b	.L96
 1813              	.LVL182:
 1814              	.L95:
 1815              	.LBE164:
  94:./lib/ros_lib/rosserial_msgs/TopicInfo.h ****       offset += length_message_type;
 1816              		.loc 2 94 0
 1817 0058 013A     		subs	r2, r2, #1
 1818              	.LVL183:
  93:./lib/ros_lib/rosserial_msgs/TopicInfo.h ****       this->message_type = (char *)(inbuffer + offset-1);
 1819              		.loc 2 93 0
 1820 005a C818     		adds	r0, r1, r3
  94:./lib/ros_lib/rosserial_msgs/TopicInfo.h ****       offset += length_message_type;
 1821              		.loc 2 94 0
 1822 005c 0A44     		add	r2, r2, r1
 1823              	.LVL184:
  93:./lib/ros_lib/rosserial_msgs/TopicInfo.h ****       this->message_type = (char *)(inbuffer + offset-1);
 1824              		.loc 2 93 0
 1825 005e 0025     		movs	r5, #0
 1826              	.LVL185:
 1827 0060 00F8015C 		strb	r5, [r0, #-1]
  94:./lib/ros_lib/rosserial_msgs/TopicInfo.h ****       offset += length_message_type;
 1828              		.loc 2 94 0
 1829 0064 E260     		str	r2, [r4, #12]
 1830              	.LVL186:
  97:./lib/ros_lib/rosserial_msgs/TopicInfo.h ****       offset += 4;
 1831              		.loc 2 97 0
 1832 0066 0068     		ldr	r0, [r0]	@ unaligned
 1833              	.LBB165:
  99:./lib/ros_lib/rosserial_msgs/TopicInfo.h ****           inbuffer[k-1]=inbuffer[k];
 1834              		.loc 2 99 0
 1835 0068 0433     		adds	r3, r3, #4
 1836              	.LVL187:
 1837              	.LBE165:
  97:./lib/ros_lib/rosserial_msgs/TopicInfo.h ****       offset += 4;
 1838              		.loc 2 97 0
 1839 006a 0390     		str	r0, [sp, #12]	@ unaligned
 1840              	.LVL188:
 1841              	.LBB166:
  99:./lib/ros_lib/rosserial_msgs/TopicInfo.h ****           inbuffer[k-1]=inbuffer[k];
 1842              		.loc 2 99 0
 1843 006c 0398     		ldr	r0, [sp, #12]
 1844 006e CA18     		adds	r2, r1, r3
 1845 0070 1844     		add	r0, r0, r3
 1846              	.LVL189:
 1847              	.L98:
  99:./lib/ros_lib/rosserial_msgs/TopicInfo.h ****           inbuffer[k-1]=inbuffer[k];
 1848              		.loc 2 99 0 is_stmt 0 discriminator 3
 1849 0072 551A     		subs	r5, r2, r1
 1850              	.LVL190:
 1851 0074 A842     		cmp	r0, r5
 1852 0076 04D9     		bls	.L97
 100:./lib/ros_lib/rosserial_msgs/TopicInfo.h ****       }
 1853              		.loc 2 100 0 is_stmt 1 discriminator 2
 1854 0078 12F8015B 		ldrb	r5, [r2], #1	@ zero_extendqisi2
 1855              	.LVL191:
 1856 007c 02F8025C 		strb	r5, [r2, #-2]
 1857              	.LVL192:
  99:./lib/ros_lib/rosserial_msgs/TopicInfo.h ****           inbuffer[k-1]=inbuffer[k];
 1858              		.loc 2 99 0 discriminator 2
 1859 0080 F7E7     		b	.L98
 1860              	.LVL193:
 1861              	.L97:
 1862              	.LBE166:
 103:./lib/ros_lib/rosserial_msgs/TopicInfo.h ****       offset += length_md5sum;
 1863              		.loc 2 103 0
 1864 0082 013B     		subs	r3, r3, #1
 102:./lib/ros_lib/rosserial_msgs/TopicInfo.h ****       this->md5sum = (char *)(inbuffer + offset-1);
 1865              		.loc 2 102 0
 1866 0084 0D18     		adds	r5, r1, r0
 1867              	.LVL194:
 103:./lib/ros_lib/rosserial_msgs/TopicInfo.h ****       offset += length_md5sum;
 1868              		.loc 2 103 0
 1869 0086 0B44     		add	r3, r3, r1
 102:./lib/ros_lib/rosserial_msgs/TopicInfo.h ****       this->md5sum = (char *)(inbuffer + offset-1);
 1870              		.loc 2 102 0
 1871 0088 0022     		movs	r2, #0
 1872              	.LVL195:
 1873 008a 05F8012C 		strb	r2, [r5, #-1]
 103:./lib/ros_lib/rosserial_msgs/TopicInfo.h ****       offset += length_md5sum;
 1874              		.loc 2 103 0
 1875 008e 2361     		str	r3, [r4, #16]
 1876              	.LVL196:
 114:./lib/ros_lib/rosserial_msgs/TopicInfo.h ****       offset += sizeof(this->buffer_size);
 1877              		.loc 2 114 0
 1878 0090 AB78     		ldrb	r3, [r5, #2]	@ zero_extendqisi2
 1879 0092 6A78     		ldrb	r2, [r5, #1]	@ zero_extendqisi2
 1880 0094 1B04     		lsls	r3, r3, #16
 1881 0096 43EA0223 		orr	r3, r3, r2, lsl #8
 1882 009a 0A5C     		ldrb	r2, [r1, r0]	@ zero_extendqisi2
 117:./lib/ros_lib/rosserial_msgs/TopicInfo.h **** 
 1883              		.loc 2 117 0
 1884 009c 0430     		adds	r0, r0, #4
 1885              	.LVL197:
 114:./lib/ros_lib/rosserial_msgs/TopicInfo.h ****       offset += sizeof(this->buffer_size);
 1886              		.loc 2 114 0
 1887 009e 1343     		orrs	r3, r3, r2
 1888 00a0 EA78     		ldrb	r2, [r5, #3]	@ zero_extendqisi2
 1889 00a2 43EA0263 		orr	r3, r3, r2, lsl #24
 1890 00a6 6361     		str	r3, [r4, #20]
 1891              	.LVL198:
 117:./lib/ros_lib/rosserial_msgs/TopicInfo.h **** 
 1892              		.loc 2 117 0
 1893 00a8 05B0     		add	sp, sp, #20
 1894              	.LCFI14:
 1895              		.cfi_def_cfa_offset 12
 1896              		@ sp needed
 1897 00aa 30BD     		pop	{r4, r5, pc}
 1898              		.cfi_endproc
 1899              	.LFE62:
 1900              		.cantunwind
 1901              		.fnend
 1903              		.section	.text._ZN14rosserial_msgs20RequestParamResponse11deserializeEPh,"axG",%progbits,_ZN14ross
 1904              		.align	1
 1905              		.weak	_ZN14rosserial_msgs20RequestParamResponse11deserializeEPh
 1906              		.thumb
 1907              		.thumb_func
 1909              	_ZN14rosserial_msgs20RequestParamResponse11deserializeEPh:
 1910              		.fnstart
 1911              	.LFB83:
 123:./lib/ros_lib/rosserial_msgs/RequestParam.h ****     {
 1912              		.loc 4 123 0
 1913              		.cfi_startproc
 1914              		@ args = 0, pretend = 0, frame = 8
 1915              		@ frame_needed = 0, uses_anonymous_args = 0
 1916              	.LVL199:
 1917 0000 F7B5     		push	{r0, r1, r2, r4, r5, r6, r7, lr}
 1918              	.LCFI15:
 1919              		.cfi_def_cfa_offset 32
 1920              		.cfi_offset 4, -20
 1921              		.cfi_offset 5, -16
 1922              		.cfi_offset 6, -12
 1923              		.cfi_offset 7, -8
 1924              		.cfi_offset 14, -4
 126:./lib/ros_lib/rosserial_msgs/RequestParam.h ****       if(ints_lengthT > ints_length)
 1925              		.loc 4 126 0
 1926 0002 0D78     		ldrb	r5, [r1]	@ zero_extendqisi2
 1927              	.LVL200:
 127:./lib/ros_lib/rosserial_msgs/RequestParam.h ****         this->ints = (int32_t*)realloc(this->ints, ints_lengthT * sizeof(int32_t));
 1928              		.loc 4 127 0
 1929 0004 0379     		ldrb	r3, [r0, #4]	@ zero_extendqisi2
 123:./lib/ros_lib/rosserial_msgs/RequestParam.h ****     {
 1930              		.loc 4 123 0
 1931 0006 0446     		mov	r4, r0
 127:./lib/ros_lib/rosserial_msgs/RequestParam.h ****         this->ints = (int32_t*)realloc(this->ints, ints_lengthT * sizeof(int32_t));
 1932              		.loc 4 127 0
 1933 0008 AB42     		cmp	r3, r5
 123:./lib/ros_lib/rosserial_msgs/RequestParam.h ****     {
 1934              		.loc 4 123 0
 1935 000a 0E46     		mov	r6, r1
 127:./lib/ros_lib/rosserial_msgs/RequestParam.h ****         this->ints = (int32_t*)realloc(this->ints, ints_lengthT * sizeof(int32_t));
 1936              		.loc 4 127 0
 1937 000c 04D2     		bcs	.L103
 128:./lib/ros_lib/rosserial_msgs/RequestParam.h ****       offset += 3;
 1938              		.loc 4 128 0
 1939 000e A900     		lsls	r1, r5, #2
 1940              	.LVL201:
 1941 0010 C068     		ldr	r0, [r0, #12]
 1942              	.LVL202:
 1943 0012 FFF7FEFF 		bl	realloc
 1944              	.LVL203:
 1945 0016 E060     		str	r0, [r4, #12]
 1946              	.L103:
 1947              	.LVL204:
 130:./lib/ros_lib/rosserial_msgs/RequestParam.h ****       for( uint8_t i = 0; i < ints_length; i++){
 1948              		.loc 4 130 0
 1949 0018 2571     		strb	r5, [r4, #4]
 1950              	.LVL205:
 1951 001a 321D     		adds	r2, r6, #4
 1952 001c 0021     		movs	r1, #0
 1953              	.LVL206:
 1954              	.L105:
 1955              	.LBB167:
 131:./lib/ros_lib/rosserial_msgs/RequestParam.h ****       union {
 1956              		.loc 4 131 0 discriminator 3
 1957 001e 2379     		ldrb	r3, [r4, #4]	@ zero_extendqisi2
 1958 0020 4F1C     		adds	r7, r1, #1
 1959 0022 C9B2     		uxtb	r1, r1
 1960 0024 8B42     		cmp	r3, r1
 1961 0026 A2EB0605 		sub	r5, r2, r6
 1962              	.LVL207:
 1963 002a 02F10402 		add	r2, r2, #4
 1964 002e 14D9     		bls	.L104
 1965              	.LVL208:
 1966              	.LBB168:
 141:./lib/ros_lib/rosserial_msgs/RequestParam.h ****       offset += sizeof(this->st_ints);
 1967              		.loc 4 141 0 discriminator 2
 1968 0030 12F8023C 		ldrb	r3, [r2, #-2]	@ zero_extendqisi2
 1969              	.LVL209:
 1970 0034 12F8030C 		ldrb	r0, [r2, #-3]	@ zero_extendqisi2
 1971              	.LVL210:
 1972 0038 1B04     		lsls	r3, r3, #16
 1973              	.LVL211:
 1974 003a 43EA0023 		orr	r3, r3, r0, lsl #8
 1975 003e 12F8040C 		ldrb	r0, [r2, #-4]	@ zero_extendqisi2
 1976              	.LVL212:
 1977 0042 0343     		orrs	r3, r3, r0
 1978 0044 12F8010C 		ldrb	r0, [r2, #-1]	@ zero_extendqisi2
 1979 0048 43EA0063 		orr	r3, r3, r0, lsl #24
 1980 004c A360     		str	r3, [r4, #8]
 1981              	.LVL213:
 143:./lib/ros_lib/rosserial_msgs/RequestParam.h ****       }
 1982              		.loc 4 143 0 discriminator 2
 1983 004e A068     		ldr	r0, [r4, #8]	@ unaligned
 1984 0050 E368     		ldr	r3, [r4, #12]
 1985 0052 43F82100 		str	r0, [r3, r1, lsl #2]	@ unaligned
 1986              	.LVL214:
 1987              	.LBE168:
 131:./lib/ros_lib/rosserial_msgs/RequestParam.h ****       union {
 1988              		.loc 4 131 0 discriminator 2
 1989 0056 3946     		mov	r1, r7
 1990 0058 E1E7     		b	.L105
 1991              	.LVL215:
 1992              	.L104:
 1993              	.LBE167:
 145:./lib/ros_lib/rosserial_msgs/RequestParam.h ****       if(floats_lengthT > floats_length)
 1994              		.loc 4 145 0
 1995 005a 775D     		ldrb	r7, [r6, r5]	@ zero_extendqisi2
 1996              	.LVL216:
 146:./lib/ros_lib/rosserial_msgs/RequestParam.h ****         this->floats = (float*)realloc(this->floats, floats_lengthT * sizeof(float));
 1997              		.loc 4 146 0
 1998 005c 237C     		ldrb	r3, [r4, #16]	@ zero_extendqisi2
 1999 005e BB42     		cmp	r3, r7
 2000 0060 04D2     		bcs	.L106
 147:./lib/ros_lib/rosserial_msgs/RequestParam.h ****       offset += 3;
 2001              		.loc 4 147 0
 2002 0062 B900     		lsls	r1, r7, #2
 2003 0064 A069     		ldr	r0, [r4, #24]
 2004 0066 FFF7FEFF 		bl	realloc
 2005              	.LVL217:
 2006 006a A061     		str	r0, [r4, #24]
 2007              	.L106:
 2008              	.LVL218:
 2009 006c 2B1D     		adds	r3, r5, #4
 2010              	.LVL219:
 149:./lib/ros_lib/rosserial_msgs/RequestParam.h ****       for( uint8_t i = 0; i < floats_length; i++){
 2011              		.loc 4 149 0
 2012 006e 2774     		strb	r7, [r4, #16]
 2013              	.LVL220:
 2014 0070 3344     		add	r3, r3, r6
 2015              	.LVL221:
 2016 0072 0022     		movs	r2, #0
 2017              	.LVL222:
 2018              	.L108:
 2019              	.LBB169:
 150:./lib/ros_lib/rosserial_msgs/RequestParam.h ****       union {
 2020              		.loc 4 150 0 discriminator 3
 2021 0074 217C     		ldrb	r1, [r4, #16]	@ zero_extendqisi2
 2022 0076 571C     		adds	r7, r2, #1
 2023 0078 D2B2     		uxtb	r2, r2
 2024 007a 9142     		cmp	r1, r2
 2025 007c A3EB0605 		sub	r5, r3, r6
 2026              	.LVL223:
 2027 0080 03F10403 		add	r3, r3, #4
 2028 0084 14D9     		bls	.L107
 2029              	.LVL224:
 2030              	.LBB170:
 159:./lib/ros_lib/rosserial_msgs/RequestParam.h ****       this->st_floats = u_st_floats.real;
 2031              		.loc 4 159 0 discriminator 2
 2032 0086 13F8021C 		ldrb	r1, [r3, #-2]	@ zero_extendqisi2
 2033 008a 13F8030C 		ldrb	r0, [r3, #-3]	@ zero_extendqisi2
 2034 008e 0904     		lsls	r1, r1, #16
 2035              	.LVL225:
 2036 0090 41EA0021 		orr	r1, r1, r0, lsl #8
 2037              	.LVL226:
 2038 0094 13F8040C 		ldrb	r0, [r3, #-4]	@ zero_extendqisi2
 2039 0098 0143     		orrs	r1, r1, r0
 2040 009a 13F8010C 		ldrb	r0, [r3, #-1]	@ zero_extendqisi2
 2041              	.LVL227:
 160:./lib/ros_lib/rosserial_msgs/RequestParam.h ****       offset += sizeof(this->st_floats);
 2042              		.loc 4 160 0 discriminator 2
 2043 009e 41EA0061 		orr	r1, r1, r0, lsl #24
 2044 00a2 6161     		str	r1, [r4, #20]	@ float
 2045              	.LVL228:
 162:./lib/ros_lib/rosserial_msgs/RequestParam.h ****       }
 2046              		.loc 4 162 0 discriminator 2
 2047 00a4 6069     		ldr	r0, [r4, #20]	@ unaligned
 2048 00a6 A169     		ldr	r1, [r4, #24]
 2049 00a8 41F82200 		str	r0, [r1, r2, lsl #2]	@ unaligned
 2050              	.LVL229:
 2051              	.LBE170:
 150:./lib/ros_lib/rosserial_msgs/RequestParam.h ****       union {
 2052              		.loc 4 150 0 discriminator 2
 2053 00ac 3A46     		mov	r2, r7
 2054 00ae E1E7     		b	.L108
 2055              	.LVL230:
 2056              	.L107:
 2057              	.LBE169:
 164:./lib/ros_lib/rosserial_msgs/RequestParam.h ****       if(strings_lengthT > strings_length)
 2058              		.loc 4 164 0
 2059 00b0 775D     		ldrb	r7, [r6, r5]	@ zero_extendqisi2
 2060              	.LVL231:
 165:./lib/ros_lib/rosserial_msgs/RequestParam.h ****         this->strings = (char**)realloc(this->strings, strings_lengthT * sizeof(char*));
 2061              		.loc 4 165 0
 2062 00b2 237F     		ldrb	r3, [r4, #28]	@ zero_extendqisi2
 2063 00b4 BB42     		cmp	r3, r7
 2064 00b6 04D2     		bcs	.L109
 166:./lib/ros_lib/rosserial_msgs/RequestParam.h ****       offset += 3;
 2065              		.loc 4 166 0
 2066 00b8 B900     		lsls	r1, r7, #2
 2067 00ba 606A     		ldr	r0, [r4, #36]
 2068 00bc FFF7FEFF 		bl	realloc
 2069              	.LVL232:
 2070 00c0 6062     		str	r0, [r4, #36]
 2071              	.L109:
 167:./lib/ros_lib/rosserial_msgs/RequestParam.h ****       strings_length = strings_lengthT;
 2072              		.loc 4 167 0
 2073 00c2 2B1D     		adds	r3, r5, #4
 2074              	.LVL233:
 168:./lib/ros_lib/rosserial_msgs/RequestParam.h ****       for( uint8_t i = 0; i < strings_length; i++){
 2075              		.loc 4 168 0
 2076 00c4 0025     		movs	r5, #0
 2077              	.LBB171:
 2078              	.LBB172:
 176:./lib/ros_lib/rosserial_msgs/RequestParam.h ****       this->st_strings = (char *)(inbuffer + offset-1);
 2079              		.loc 4 176 0
 2080 00c6 AE46     		mov	lr, r5
 2081              	.LBE172:
 2082              	.LBE171:
 168:./lib/ros_lib/rosserial_msgs/RequestParam.h ****       for( uint8_t i = 0; i < strings_length; i++){
 2083              		.loc 4 168 0
 2084 00c8 2777     		strb	r7, [r4, #28]
 2085              	.LVL234:
 2086              	.L113:
 2087              	.LBB176:
 169:./lib/ros_lib/rosserial_msgs/RequestParam.h ****       uint32_t length_st_strings;
 2088              		.loc 4 169 0 discriminator 1
 2089 00ca 227F     		ldrb	r2, [r4, #28]	@ zero_extendqisi2
 2090 00cc EFB2     		uxtb	r7, r5
 2091 00ce BA42     		cmp	r2, r7
 2092 00d0 19D9     		bls	.L110
 2093              	.LBB175:
 171:./lib/ros_lib/rosserial_msgs/RequestParam.h ****       offset += 4;
 2094              		.loc 4 171 0
 2095 00d2 F058     		ldr	r0, [r6, r3]	@ unaligned
 2096              	.LBB173:
 173:./lib/ros_lib/rosserial_msgs/RequestParam.h ****           inbuffer[k-1]=inbuffer[k];
 2097              		.loc 4 173 0
 2098 00d4 1A1D     		adds	r2, r3, #4
 2099              	.LBE173:
 171:./lib/ros_lib/rosserial_msgs/RequestParam.h ****       offset += 4;
 2100              		.loc 4 171 0
 2101 00d6 0190     		str	r0, [sp, #4]	@ unaligned
 2102              	.LVL235:
 2103              	.LBB174:
 173:./lib/ros_lib/rosserial_msgs/RequestParam.h ****           inbuffer[k-1]=inbuffer[k];
 2104              		.loc 4 173 0
 2105 00d8 019B     		ldr	r3, [sp, #4]
 2106 00da B118     		adds	r1, r6, r2
 2107 00dc 1344     		add	r3, r3, r2
 2108              	.LVL236:
 2109              	.L112:
 173:./lib/ros_lib/rosserial_msgs/RequestParam.h ****           inbuffer[k-1]=inbuffer[k];
 2110              		.loc 4 173 0 is_stmt 0 discriminator 3
 2111 00de 881B     		subs	r0, r1, r6
 2112              	.LVL237:
 2113 00e0 8342     		cmp	r3, r0
 2114 00e2 04D9     		bls	.L111
 174:./lib/ros_lib/rosserial_msgs/RequestParam.h ****       }
 2115              		.loc 4 174 0 is_stmt 1 discriminator 2
 2116 00e4 11F8010B 		ldrb	r0, [r1], #1	@ zero_extendqisi2
 2117              	.LVL238:
 2118 00e8 01F8020C 		strb	r0, [r1, #-2]
 2119              	.LVL239:
 173:./lib/ros_lib/rosserial_msgs/RequestParam.h ****           inbuffer[k-1]=inbuffer[k];
 2120              		.loc 4 173 0 discriminator 2
 2121 00ec F7E7     		b	.L112
 2122              	.LVL240:
 2123              	.L111:
 2124              	.LBE174:
 177:./lib/ros_lib/rosserial_msgs/RequestParam.h ****       offset += length_st_strings;
 2125              		.loc 4 177 0 discriminator 2
 2126 00ee 013A     		subs	r2, r2, #1
 2127              	.LVL241:
 176:./lib/ros_lib/rosserial_msgs/RequestParam.h ****       this->st_strings = (char *)(inbuffer + offset-1);
 2128              		.loc 4 176 0 discriminator 2
 2129 00f0 F118     		adds	r1, r6, r3
 177:./lib/ros_lib/rosserial_msgs/RequestParam.h ****       offset += length_st_strings;
 2130              		.loc 4 177 0 discriminator 2
 2131 00f2 3244     		add	r2, r2, r6
 2132              	.LVL242:
 176:./lib/ros_lib/rosserial_msgs/RequestParam.h ****       this->st_strings = (char *)(inbuffer + offset-1);
 2133              		.loc 4 176 0 discriminator 2
 2134 00f4 01F801EC 		strb	lr, [r1, #-1]
 177:./lib/ros_lib/rosserial_msgs/RequestParam.h ****       offset += length_st_strings;
 2135              		.loc 4 177 0 discriminator 2
 2136 00f8 2262     		str	r2, [r4, #32]
 2137              	.LVL243:
 179:./lib/ros_lib/rosserial_msgs/RequestParam.h ****       }
 2138              		.loc 4 179 0 discriminator 2
 2139 00fa 216A     		ldr	r1, [r4, #32]	@ unaligned
 2140 00fc 626A     		ldr	r2, [r4, #36]
 2141 00fe 0135     		adds	r5, r5, #1
 2142              	.LVL244:
 2143 0100 42F82710 		str	r1, [r2, r7, lsl #2]	@ unaligned
 2144              	.LVL245:
 2145              	.LBE175:
 169:./lib/ros_lib/rosserial_msgs/RequestParam.h ****       uint32_t length_st_strings;
 2146              		.loc 4 169 0 discriminator 2
 2147 0104 E1E7     		b	.L113
 2148              	.LVL246:
 2149              	.L110:
 2150              	.LBE176:
 182:./lib/ros_lib/rosserial_msgs/RequestParam.h **** 
 2151              		.loc 4 182 0
 2152 0106 1846     		mov	r0, r3
 2153 0108 03B0     		add	sp, sp, #12
 2154              	.LCFI16:
 2155              		.cfi_def_cfa_offset 20
 2156              		@ sp needed
 2157 010a F0BD     		pop	{r4, r5, r6, r7, pc}
 2158              		.cfi_endproc
 2159              	.LFE83:
 2160              		.cantunwind
 2161              		.fnend
 2163              		.global	__aeabi_fcmplt
 2164              		.section	.text._ZN3ros3Msg19serializeAvrFloat64EPhf,"axG",%progbits,_ZN3ros3Msg19serializeAvrFloat
 2165              		.align	1
 2166              		.weak	_ZN3ros3Msg19serializeAvrFloat64EPhf
 2167              		.thumb
 2168              		.thumb_func
 2170              	_ZN3ros3Msg19serializeAvrFloat64EPhf:
 2171              		.fnstart
 2172              	.LFB29:
 2173              		.file 12 "./lib/ros_lib/ros/msg.h"
   1:./lib/ros_lib/ros/msg.h **** /* 
   2:./lib/ros_lib/ros/msg.h ****  * Software License Agreement (BSD License)
   3:./lib/ros_lib/ros/msg.h ****  *
   4:./lib/ros_lib/ros/msg.h ****  * Copyright (c) 2011, Willow Garage, Inc.
   5:./lib/ros_lib/ros/msg.h ****  * All rights reserved.
   6:./lib/ros_lib/ros/msg.h ****  *
   7:./lib/ros_lib/ros/msg.h ****  * Redistribution and use in source and binary forms, with or without
   8:./lib/ros_lib/ros/msg.h ****  * modification, are permitted provided that the following conditions
   9:./lib/ros_lib/ros/msg.h ****  * are met:
  10:./lib/ros_lib/ros/msg.h ****  *
  11:./lib/ros_lib/ros/msg.h ****  *  * Redistributions of source code must retain the above copyright
  12:./lib/ros_lib/ros/msg.h ****  *    notice, this list of conditions and the following disclaimer.
  13:./lib/ros_lib/ros/msg.h ****  *  * Redistributions in binary form must reproduce the above
  14:./lib/ros_lib/ros/msg.h ****  *    copyright notice, this list of conditions and the following
  15:./lib/ros_lib/ros/msg.h ****  *    disclaimer in the documentation and/or other materials provided
  16:./lib/ros_lib/ros/msg.h ****  *    with the distribution.
  17:./lib/ros_lib/ros/msg.h ****  *  * Neither the name of Willow Garage, Inc. nor the names of its
  18:./lib/ros_lib/ros/msg.h ****  *    contributors may be used to endorse or promote prducts derived
  19:./lib/ros_lib/ros/msg.h ****  *    from this software without specific prior written permission.
  20:./lib/ros_lib/ros/msg.h ****  *
  21:./lib/ros_lib/ros/msg.h ****  * THIS SOFTWARE IS PROVIDED BY THE COPYRIGHT HOLDERS AND CONTRIBUTORS
  22:./lib/ros_lib/ros/msg.h ****  * "AS IS" AND ANY EXPRESS OR IMPLIED WARRANTIES, INCLUDING, BUT NOT
  23:./lib/ros_lib/ros/msg.h ****  * LIMITED TO, THE IMPLIED WARRANTIES OF MERCHANTABILITY AND FITNESS
  24:./lib/ros_lib/ros/msg.h ****  * FOR A PARTICULAR PURPOSE ARE DISCLAIMED. IN NO EVENT SHALL THE
  25:./lib/ros_lib/ros/msg.h ****  * COPYRIGHT OWNER OR CONTRIBUTORS BE LIABLE FOR ANY DIRECT, INDIRECT,
  26:./lib/ros_lib/ros/msg.h ****  * INCIDENTAL, SPECIAL, EXEMPLARY, OR CONSEQUENTIAL DAMAGES (INCLUDING,
  27:./lib/ros_lib/ros/msg.h ****  * BUT NOT LIMITED TO, PROCUREMENT OF SUBSTITUTE GOODS OR SERVICES;
  28:./lib/ros_lib/ros/msg.h ****  * LOSS OF USE, DATA, OR PROFITS; OR BUSINESS INTERRUPTION) HOWEVER
  29:./lib/ros_lib/ros/msg.h ****  * CAUSED AND ON ANY THEORY OF LIABILITY, WHETHER IN CONTRACT, STRICT
  30:./lib/ros_lib/ros/msg.h ****  * LIABILITY, OR TORT (INCLUDING NEGLIGENCE OR OTHERWISE) ARISING IN
  31:./lib/ros_lib/ros/msg.h ****  * ANY WAY OUT OF THE USE OF THIS SOFTWARE, EVEN IF ADVISED OF THE
  32:./lib/ros_lib/ros/msg.h ****  * POSSIBILITY OF SUCH DAMAGE.
  33:./lib/ros_lib/ros/msg.h ****  */
  34:./lib/ros_lib/ros/msg.h **** 
  35:./lib/ros_lib/ros/msg.h **** #ifndef _ROS_MSG_H_
  36:./lib/ros_lib/ros/msg.h **** #define _ROS_MSG_H_
  37:./lib/ros_lib/ros/msg.h **** 
  38:./lib/ros_lib/ros/msg.h **** #include <stdint.h>
  39:./lib/ros_lib/ros/msg.h **** 
  40:./lib/ros_lib/ros/msg.h **** namespace ros {
  41:./lib/ros_lib/ros/msg.h **** 
  42:./lib/ros_lib/ros/msg.h **** /* Base Message Type */
  43:./lib/ros_lib/ros/msg.h **** class Msg
  44:./lib/ros_lib/ros/msg.h **** {
  45:./lib/ros_lib/ros/msg.h **** public:
  46:./lib/ros_lib/ros/msg.h ****   virtual int serialize(unsigned char *outbuffer) const = 0;
  47:./lib/ros_lib/ros/msg.h ****   virtual int deserialize(unsigned char *data) = 0;
  48:./lib/ros_lib/ros/msg.h ****   virtual const char * getType() = 0;
  49:./lib/ros_lib/ros/msg.h ****   virtual const char * getMD5() = 0;
  50:./lib/ros_lib/ros/msg.h **** 
  51:./lib/ros_lib/ros/msg.h ****   /**
  52:./lib/ros_lib/ros/msg.h ****    * @brief This tricky function handles promoting a 32bit float to a 64bit
  53:./lib/ros_lib/ros/msg.h ****    *        double, so that AVR can publish messages containing float64
  54:./lib/ros_lib/ros/msg.h ****    *        fields, despite AVV having no native support for double.
  55:./lib/ros_lib/ros/msg.h ****    *
  56:./lib/ros_lib/ros/msg.h ****    * @param[out] outbuffer pointer for buffer to serialize to.
  57:./lib/ros_lib/ros/msg.h ****    * @param[in] f value to serialize.
  58:./lib/ros_lib/ros/msg.h ****    *
  59:./lib/ros_lib/ros/msg.h ****    * @return number of bytes to advance the buffer pointer.
  60:./lib/ros_lib/ros/msg.h ****    *
  61:./lib/ros_lib/ros/msg.h ****    */
  62:./lib/ros_lib/ros/msg.h ****   static int serializeAvrFloat64(unsigned char* outbuffer, const float f)
 2174              		.loc 12 62 0
 2175              		.cfi_startproc
 2176              		@ args = 0, pretend = 0, frame = 0
 2177              		@ frame_needed = 0, uses_anonymous_args = 0
 2178              	.LVL247:
 2179 0000 38B5     		push	{r3, r4, r5, lr}
 2180              	.LCFI17:
 2181              		.cfi_def_cfa_offset 16
 2182              		.cfi_offset 3, -16
 2183              		.cfi_offset 4, -12
 2184              		.cfi_offset 5, -8
 2185              		.cfi_offset 14, -4
  63:./lib/ros_lib/ros/msg.h ****   {
  64:./lib/ros_lib/ros/msg.h ****     const int32_t* val = (int32_t*) &f;
  65:./lib/ros_lib/ros/msg.h ****     int32_t exp = ((*val >> 23) & 255);
 2186              		.loc 12 65 0
 2187 0002 C1F3C753 		ubfx	r3, r1, #23, #8
 2188              	.LVL248:
  62:./lib/ros_lib/ros/msg.h ****   {
 2189              		.loc 12 62 0
 2190 0006 0546     		mov	r5, r0
 2191              		.loc 12 65 0
 2192 0008 0A46     		mov	r2, r1
  62:./lib/ros_lib/ros/msg.h ****   {
 2193              		.loc 12 62 0
 2194 000a 0846     		mov	r0, r1
 2195              	.LVL249:
  66:./lib/ros_lib/ros/msg.h ****     if (exp != 0)
 2196              		.loc 12 66 0
 2197 000c 0BB1     		cbz	r3, .L116
  67:./lib/ros_lib/ros/msg.h ****     {
  68:./lib/ros_lib/ros/msg.h ****       exp += 1023 - 127;
 2198              		.loc 12 68 0
 2199 000e 03F56073 		add	r3, r3, #896
 2200              	.LVL250:
 2201              	.L116:
  69:./lib/ros_lib/ros/msg.h ****     }
  70:./lib/ros_lib/ros/msg.h **** 
  71:./lib/ros_lib/ros/msg.h ****     int32_t sig = *val;
  72:./lib/ros_lib/ros/msg.h ****     *(outbuffer++) = 0;
 2202              		.loc 12 72 0
 2203 0012 0021     		movs	r1, #0
 2204              	.LVL251:
 2205 0014 2970     		strb	r1, [r5]
 2206              	.LVL252:
  73:./lib/ros_lib/ros/msg.h ****     *(outbuffer++) = 0;
 2207              		.loc 12 73 0
 2208 0016 6970     		strb	r1, [r5, #1]
 2209              	.LVL253:
  74:./lib/ros_lib/ros/msg.h ****     *(outbuffer++) = 0;
 2210              		.loc 12 74 0
 2211 0018 A970     		strb	r1, [r5, #2]
 2212              	.LVL254:
  75:./lib/ros_lib/ros/msg.h ****     *(outbuffer++) = (sig << 5) & 0xff;
 2213              		.loc 12 75 0
 2214 001a 5101     		lsls	r1, r2, #5
 2215 001c E970     		strb	r1, [r5, #3]
 2216              	.LVL255:
  76:./lib/ros_lib/ros/msg.h ****     *(outbuffer++) = (sig >> 3) & 0xff;
 2217              		.loc 12 76 0
 2218 001e D110     		asrs	r1, r2, #3
 2219 0020 2971     		strb	r1, [r5, #4]
 2220              	.LVL256:
  77:./lib/ros_lib/ros/msg.h ****     *(outbuffer++) = (sig >> 11) & 0xff;
 2221              		.loc 12 77 0
 2222 0022 D112     		asrs	r1, r2, #11
  78:./lib/ros_lib/ros/msg.h ****     *(outbuffer++) = ((exp << 4) & 0xF0) | ((sig >> 19) & 0x0F);
 2223              		.loc 12 78 0
 2224 0024 C2F3C342 		ubfx	r2, r2, #19, #4
 2225 0028 42EA0312 		orr	r2, r2, r3, lsl #4
  77:./lib/ros_lib/ros/msg.h ****     *(outbuffer++) = (sig >> 11) & 0xff;
 2226              		.loc 12 77 0
 2227 002c 6971     		strb	r1, [r5, #5]
 2228              	.LVL257:
 2229              		.loc 12 78 0
 2230 002e AA71     		strb	r2, [r5, #6]
 2231              	.LVL258:
  79:./lib/ros_lib/ros/msg.h ****     *(outbuffer++) = (exp >> 4) & 0x7F;
  80:./lib/ros_lib/ros/msg.h **** 
  81:./lib/ros_lib/ros/msg.h ****     // Mark negative bit as necessary.
  82:./lib/ros_lib/ros/msg.h ****     if (f < 0)
 2232              		.loc 12 82 0
 2233 0030 0021     		movs	r1, #0
  79:./lib/ros_lib/ros/msg.h ****     *(outbuffer++) = (exp >> 4) & 0x7F;
 2234              		.loc 12 79 0
 2235 0032 C3F30714 		ubfx	r4, r3, #4, #8
 2236              		.loc 12 82 0
 2237 0036 FFF7FEFF 		bl	__aeabi_fcmplt
 2238              	.LVL259:
 2239 003a 08B9     		cbnz	r0, .L117
  79:./lib/ros_lib/ros/msg.h ****     *(outbuffer++) = (exp >> 4) & 0x7F;
 2240              		.loc 12 79 0
 2241 003c EC71     		strb	r4, [r5, #7]
 2242 003e 02E0     		b	.L118
 2243              	.L117:
  83:./lib/ros_lib/ros/msg.h ****     {
  84:./lib/ros_lib/ros/msg.h ****       *(outbuffer - 1) |= 0x80;
 2244              		.loc 12 84 0
 2245 0040 64F07F03 		orn	r3, r4, #127
 2246 0044 EB71     		strb	r3, [r5, #7]
 2247              	.L118:
  85:./lib/ros_lib/ros/msg.h ****     }
  86:./lib/ros_lib/ros/msg.h **** 
  87:./lib/ros_lib/ros/msg.h ****     return 8;
  88:./lib/ros_lib/ros/msg.h ****   }
 2248              		.loc 12 88 0
 2249 0046 0820     		movs	r0, #8
 2250 0048 38BD     		pop	{r3, r4, r5, pc}
 2251              		.cfi_endproc
 2252              	.LFE29:
 2253              		.cantunwind
 2254              		.fnend
 2256              		.section	.text._ZNK12roberto_msgs10MotorState9serializeEPh,"axG",%progbits,_ZNK12roberto_msgs10Mot
 2257              		.align	1
 2258              		.weak	_ZNK12roberto_msgs10MotorState9serializeEPh
 2259              		.thumb
 2260              		.thumb_func
 2262              	_ZNK12roberto_msgs10MotorState9serializeEPh:
 2263              		.fnstart
 2264              	.LFB180:
  37:./lib/ros_lib/roberto_msgs/MotorState.h ****     {
 2265              		.loc 8 37 0
 2266              		.cfi_startproc
 2267              		@ args = 0, pretend = 0, frame = 0
 2268              		@ frame_needed = 0, uses_anonymous_args = 0
 2269              	.LVL260:
 2270 0000 70B5     		push	{r4, r5, r6, lr}
 2271              	.LCFI18:
 2272              		.cfi_def_cfa_offset 16
 2273              		.cfi_offset 4, -16
 2274              		.cfi_offset 5, -12
 2275              		.cfi_offset 6, -8
 2276              		.cfi_offset 14, -4
  37:./lib/ros_lib/roberto_msgs/MotorState.h ****     {
 2277              		.loc 8 37 0
 2278 0002 0546     		mov	r5, r0
  40:./lib/ros_lib/roberto_msgs/MotorState.h ****       offset += serializeAvrFloat64(outbuffer + offset, this->heading_angle);
 2279              		.loc 8 40 0
 2280 0004 0430     		adds	r0, r0, #4
 2281              	.LVL261:
  37:./lib/ros_lib/roberto_msgs/MotorState.h ****     {
 2282              		.loc 8 37 0
 2283 0006 0E46     		mov	r6, r1
  40:./lib/ros_lib/roberto_msgs/MotorState.h ****       offset += serializeAvrFloat64(outbuffer + offset, this->heading_angle);
 2284              		.loc 8 40 0
 2285 0008 FFF7FEFF 		bl	_ZNK8std_msgs6Header9serializeEPh
 2286              	.LVL262:
  41:./lib/ros_lib/roberto_msgs/MotorState.h ****       offset += serializeAvrFloat64(outbuffer + offset, this->heading_velocity);
 2287              		.loc 8 41 0
 2288 000c A969     		ldr	r1, [r5, #24]	@ float
  40:./lib/ros_lib/roberto_msgs/MotorState.h ****       offset += serializeAvrFloat64(outbuffer + offset, this->heading_angle);
 2289              		.loc 8 40 0
 2290 000e 0446     		mov	r4, r0
 2291              	.LVL263:
  41:./lib/ros_lib/roberto_msgs/MotorState.h ****       offset += serializeAvrFloat64(outbuffer + offset, this->heading_velocity);
 2292              		.loc 8 41 0
 2293 0010 3018     		adds	r0, r6, r0
 2294              	.LVL264:
 2295 0012 FFF7FEFF 		bl	_ZN3ros3Msg19serializeAvrFloat64EPhf
 2296              	.LVL265:
 2297 0016 0444     		add	r4, r4, r0
 2298              	.LVL266:
  42:./lib/ros_lib/roberto_msgs/MotorState.h ****       offset += serializeAvrFloat64(outbuffer + offset, this->speed);
 2299              		.loc 8 42 0
 2300 0018 E969     		ldr	r1, [r5, #28]	@ float
 2301 001a 3019     		adds	r0, r6, r4
 2302 001c FFF7FEFF 		bl	_ZN3ros3Msg19serializeAvrFloat64EPhf
 2303              	.LVL267:
 2304 0020 0444     		add	r4, r4, r0
 2305              	.LVL268:
  43:./lib/ros_lib/roberto_msgs/MotorState.h ****       offset += serializeAvrFloat64(outbuffer + offset, this->acceleration);
 2306              		.loc 8 43 0
 2307 0022 296A     		ldr	r1, [r5, #32]	@ float
 2308 0024 3019     		adds	r0, r6, r4
 2309 0026 FFF7FEFF 		bl	_ZN3ros3Msg19serializeAvrFloat64EPhf
 2310              	.LVL269:
 2311 002a 0444     		add	r4, r4, r0
 2312              	.LVL270:
  44:./lib/ros_lib/roberto_msgs/MotorState.h ****       *(outbuffer + offset + 0) = (this->mode >> (8 * 0)) & 0xFF;
 2313              		.loc 8 44 0
 2314 002c 696A     		ldr	r1, [r5, #36]	@ float
 2315 002e 3019     		adds	r0, r6, r4
 2316 0030 FFF7FEFF 		bl	_ZN3ros3Msg19serializeAvrFloat64EPhf
 2317              	.LVL271:
  45:./lib/ros_lib/roberto_msgs/MotorState.h ****       offset += sizeof(this->mode);
 2318              		.loc 8 45 0
 2319 0034 95F82830 		ldrb	r3, [r5, #40]	@ zero_extendqisi2
 2320 0038 2044     		add	r0, r0, r4
 2321              	.LVL272:
 2322 003a 3354     		strb	r3, [r6, r0]
 2323              	.LVL273:
  48:./lib/ros_lib/roberto_msgs/MotorState.h **** 
 2324              		.loc 8 48 0
 2325 003c 0130     		adds	r0, r0, #1
 2326              	.LVL274:
 2327 003e 70BD     		pop	{r4, r5, r6, pc}
 2328              		.cfi_endproc
 2329              	.LFE180:
 2330              		.cantunwind
 2331              		.fnend
 2333              		.section	.text._ZN3ros3Msg21deserializeAvrFloat64EPKhPf,"axG",%progbits,_ZN3ros3Msg21deserializeAv
 2334              		.align	1
 2335              		.weak	_ZN3ros3Msg21deserializeAvrFloat64EPKhPf
 2336              		.thumb
 2337              		.thumb_func
 2339              	_ZN3ros3Msg21deserializeAvrFloat64EPKhPf:
 2340              		.fnstart
 2341              	.LFB30:
  89:./lib/ros_lib/ros/msg.h **** 
  90:./lib/ros_lib/ros/msg.h ****   /**
  91:./lib/ros_lib/ros/msg.h ****    * @brief This tricky function handles demoting a 64bit double to a
  92:./lib/ros_lib/ros/msg.h ****    *        32bit float, so that AVR can understand messages containing
  93:./lib/ros_lib/ros/msg.h ****    *        float64 fields, despite AVR having no native support for double.
  94:./lib/ros_lib/ros/msg.h ****    *
  95:./lib/ros_lib/ros/msg.h ****    * @param[in] inbuffer pointer for buffer to deserialize from.
  96:./lib/ros_lib/ros/msg.h ****    * @param[out] f pointer to place the deserialized value in.
  97:./lib/ros_lib/ros/msg.h ****    *
  98:./lib/ros_lib/ros/msg.h ****    * @return number of bytes to advance the buffer pointer.
  99:./lib/ros_lib/ros/msg.h ****    */
 100:./lib/ros_lib/ros/msg.h ****   static int deserializeAvrFloat64(const unsigned char* inbuffer, float* f)
 2342              		.loc 12 100 0
 2343              		.cfi_startproc
 2344              		@ args = 0, pretend = 0, frame = 0
 2345              		@ frame_needed = 0, uses_anonymous_args = 0
 2346              	.LVL275:
 2347 0000 30B5     		push	{r4, r5, lr}
 2348              	.LCFI19:
 2349              		.cfi_def_cfa_offset 12
 2350              		.cfi_offset 4, -12
 2351              		.cfi_offset 5, -8
 2352              		.cfi_offset 14, -4
 101:./lib/ros_lib/ros/msg.h ****   {
 102:./lib/ros_lib/ros/msg.h ****     uint32_t* val = (uint32_t*)f;
 103:./lib/ros_lib/ros/msg.h ****     inbuffer += 3;
 104:./lib/ros_lib/ros/msg.h **** 
 105:./lib/ros_lib/ros/msg.h ****     // Copy truncated mantissa.
 106:./lib/ros_lib/ros/msg.h ****     *val = ((uint32_t)(*(inbuffer++)) >> 5 & 0x07);
 2353              		.loc 12 106 0
 2354 0002 C378     		ldrb	r3, [r0, #3]	@ zero_extendqisi2
 2355 0004 5B09     		lsrs	r3, r3, #5
 2356 0006 0B60     		str	r3, [r1]
 2357              	.LVL276:
 107:./lib/ros_lib/ros/msg.h ****     *val |= ((uint32_t)(*(inbuffer++)) & 0xff) << 3;
 2358              		.loc 12 107 0
 2359 0008 0279     		ldrb	r2, [r0, #4]	@ zero_extendqisi2
 2360 000a 43EAC203 		orr	r3, r3, r2, lsl #3
 2361 000e 0B60     		str	r3, [r1]
 2362              	.LVL277:
 108:./lib/ros_lib/ros/msg.h ****     *val |= ((uint32_t)(*(inbuffer++)) & 0xff) << 11;
 2363              		.loc 12 108 0
 2364 0010 4279     		ldrb	r2, [r0, #5]	@ zero_extendqisi2
 2365 0012 43EAC222 		orr	r2, r3, r2, lsl #11
 2366 0016 0A60     		str	r2, [r1]
 109:./lib/ros_lib/ros/msg.h ****     *val |= ((uint32_t)(*inbuffer) & 0x0f) << 19;
 2367              		.loc 12 109 0
 2368 0018 8379     		ldrb	r3, [r0, #6]	@ zero_extendqisi2
 2369 001a DB04     		lsls	r3, r3, #19
 2370 001c 03F4F003 		and	r3, r3, #7864320
 2371 0020 1343     		orrs	r3, r3, r2
 2372 0022 0B60     		str	r3, [r1]
 2373              	.LVL278:
 110:./lib/ros_lib/ros/msg.h **** 
 111:./lib/ros_lib/ros/msg.h ****     // Copy truncated exponent.
 112:./lib/ros_lib/ros/msg.h ****     uint32_t exp = ((uint32_t)(*(inbuffer++)) & 0xf0)>>4;
 113:./lib/ros_lib/ros/msg.h ****     exp |= ((uint32_t)(*inbuffer) & 0x7f) << 4;
 2374              		.loc 12 113 0
 2375 0024 C479     		ldrb	r4, [r0, #7]	@ zero_extendqisi2
 112:./lib/ros_lib/ros/msg.h ****     exp |= ((uint32_t)(*inbuffer) & 0x7f) << 4;
 2376              		.loc 12 112 0
 2377 0026 8579     		ldrb	r5, [r0, #6]	@ zero_extendqisi2
 2378              	.LVL279:
 2379              		.loc 12 113 0
 2380 0028 2401     		lsls	r4, r4, #4
 2381 002a 04F4FE62 		and	r2, r4, #2032
 2382              	.LVL280:
 114:./lib/ros_lib/ros/msg.h ****     if (exp != 0)
 2383              		.loc 12 114 0
 2384 002e 52EA1512 		orrs	r2, r2, r5, lsr #4
 2385              	.LVL281:
 115:./lib/ros_lib/ros/msg.h ****     {
 116:./lib/ros_lib/ros/msg.h ****       *val |= ((exp) - 1023 + 127) << 23;
 2386              		.loc 12 116 0
 2387 0032 1EBF     		ittt	ne
 2388 0034 A2F56072 		subne	r2, r2, #896
 2389              	.LVL282:
 2390 0038 43EAC253 		orrne	r3, r3, r2, lsl #23
 2391 003c 0B60     		strne	r3, [r1]
 2392              	.LVL283:
 117:./lib/ros_lib/ros/msg.h ****     }  
 118:./lib/ros_lib/ros/msg.h **** 
 119:./lib/ros_lib/ros/msg.h ****     // Copy negative sign.
 120:./lib/ros_lib/ros/msg.h ****     *val |= ((uint32_t)(*(inbuffer++)) & 0x80) << 24;
 2393              		.loc 12 120 0
 2394 003e C379     		ldrb	r3, [r0, #7]	@ zero_extendqisi2
 121:./lib/ros_lib/ros/msg.h **** 
 122:./lib/ros_lib/ros/msg.h ****     return 8;
 123:./lib/ros_lib/ros/msg.h ****   }
 2395              		.loc 12 123 0
 2396 0040 0820     		movs	r0, #8
 2397              	.LVL284:
 120:./lib/ros_lib/ros/msg.h **** 
 2398              		.loc 12 120 0
 2399 0042 23F07F02 		bic	r2, r3, #127
 2400 0046 0B68     		ldr	r3, [r1]
 2401 0048 43EA0263 		orr	r3, r3, r2, lsl #24
 2402 004c 0B60     		str	r3, [r1]
 2403              		.loc 12 123 0
 2404 004e 30BD     		pop	{r4, r5, pc}
 2405              		.cfi_endproc
 2406              	.LFE30:
 2407              		.cantunwind
 2408              		.fnend
 2410              		.section	.text._ZN12roberto_msgs10MotorState11deserializeEPh,"axG",%progbits,_ZN12roberto_msgs10Mo
 2411              		.align	1
 2412              		.weak	_ZN12roberto_msgs10MotorState11deserializeEPh
 2413              		.thumb
 2414              		.thumb_func
 2416              	_ZN12roberto_msgs10MotorState11deserializeEPh:
 2417              		.fnstart
 2418              	.LFB181:
  50:./lib/ros_lib/roberto_msgs/MotorState.h ****     {
 2419              		.loc 8 50 0
 2420              		.cfi_startproc
 2421              		@ args = 0, pretend = 0, frame = 0
 2422              		@ frame_needed = 0, uses_anonymous_args = 0
 2423              	.LVL285:
 2424 0000 70B5     		push	{r4, r5, r6, lr}
 2425              	.LCFI20:
 2426              		.cfi_def_cfa_offset 16
 2427              		.cfi_offset 4, -16
 2428              		.cfi_offset 5, -12
 2429              		.cfi_offset 6, -8
 2430              		.cfi_offset 14, -4
  50:./lib/ros_lib/roberto_msgs/MotorState.h ****     {
 2431              		.loc 8 50 0
 2432 0002 0546     		mov	r5, r0
  53:./lib/ros_lib/roberto_msgs/MotorState.h ****       offset += deserializeAvrFloat64(inbuffer + offset, &(this->heading_angle));
 2433              		.loc 8 53 0
 2434 0004 0430     		adds	r0, r0, #4
 2435              	.LVL286:
  50:./lib/ros_lib/roberto_msgs/MotorState.h ****     {
 2436              		.loc 8 50 0
 2437 0006 0E46     		mov	r6, r1
  53:./lib/ros_lib/roberto_msgs/MotorState.h ****       offset += deserializeAvrFloat64(inbuffer + offset, &(this->heading_angle));
 2438              		.loc 8 53 0
 2439 0008 FFF7FEFF 		bl	_ZN8std_msgs6Header11deserializeEPh
 2440              	.LVL287:
  54:./lib/ros_lib/roberto_msgs/MotorState.h ****       offset += deserializeAvrFloat64(inbuffer + offset, &(this->heading_velocity));
 2441              		.loc 8 54 0
 2442 000c 05F11801 		add	r1, r5, #24
  53:./lib/ros_lib/roberto_msgs/MotorState.h ****       offset += deserializeAvrFloat64(inbuffer + offset, &(this->heading_angle));
 2443              		.loc 8 53 0
 2444 0010 0446     		mov	r4, r0
 2445              	.LVL288:
  54:./lib/ros_lib/roberto_msgs/MotorState.h ****       offset += deserializeAvrFloat64(inbuffer + offset, &(this->heading_velocity));
 2446              		.loc 8 54 0
 2447 0012 3018     		adds	r0, r6, r0
 2448              	.LVL289:
 2449 0014 FFF7FEFF 		bl	_ZN3ros3Msg21deserializeAvrFloat64EPKhPf
 2450              	.LVL290:
 2451 0018 0444     		add	r4, r4, r0
 2452              	.LVL291:
  55:./lib/ros_lib/roberto_msgs/MotorState.h ****       offset += deserializeAvrFloat64(inbuffer + offset, &(this->speed));
 2453              		.loc 8 55 0
 2454 001a 05F11C01 		add	r1, r5, #28
 2455 001e 3019     		adds	r0, r6, r4
 2456 0020 FFF7FEFF 		bl	_ZN3ros3Msg21deserializeAvrFloat64EPKhPf
 2457              	.LVL292:
 2458 0024 0444     		add	r4, r4, r0
 2459              	.LVL293:
  56:./lib/ros_lib/roberto_msgs/MotorState.h ****       offset += deserializeAvrFloat64(inbuffer + offset, &(this->acceleration));
 2460              		.loc 8 56 0
 2461 0026 05F12001 		add	r1, r5, #32
 2462 002a 3019     		adds	r0, r6, r4
 2463 002c FFF7FEFF 		bl	_ZN3ros3Msg21deserializeAvrFloat64EPKhPf
 2464              	.LVL294:
 2465 0030 0444     		add	r4, r4, r0
 2466              	.LVL295:
  57:./lib/ros_lib/roberto_msgs/MotorState.h ****       this->mode =  ((uint8_t) (*(inbuffer + offset)));
 2467              		.loc 8 57 0
 2468 0032 05F12401 		add	r1, r5, #36
 2469 0036 3019     		adds	r0, r6, r4
 2470 0038 FFF7FEFF 		bl	_ZN3ros3Msg21deserializeAvrFloat64EPKhPf
 2471              	.LVL296:
  58:./lib/ros_lib/roberto_msgs/MotorState.h ****       offset += sizeof(this->mode);
 2472              		.loc 8 58 0
 2473 003c 2044     		add	r0, r0, r4
 2474              	.LVL297:
 2475 003e 335C     		ldrb	r3, [r6, r0]	@ zero_extendqisi2
  61:./lib/ros_lib/roberto_msgs/MotorState.h **** 
 2476              		.loc 8 61 0
 2477 0040 0130     		adds	r0, r0, #1
 2478              	.LVL298:
  58:./lib/ros_lib/roberto_msgs/MotorState.h ****       offset += sizeof(this->mode);
 2479              		.loc 8 58 0
 2480 0042 85F82830 		strb	r3, [r5, #40]
 2481              	.LVL299:
  61:./lib/ros_lib/roberto_msgs/MotorState.h **** 
 2482              		.loc 8 61 0
 2483 0046 70BD     		pop	{r4, r5, r6, pc}
 2484              		.cfi_endproc
 2485              	.LFE181:
 2486              		.cantunwind
 2487              		.fnend
 2489              		.section	.text._ZN3ros10SubscriberIN12roberto_msgs10MotorStateEE8callbackEPh,"axG",%progbits,_ZN3r
 2490              		.align	1
 2491              		.weak	_ZN3ros10SubscriberIN12roberto_msgs10MotorStateEE8callbackEPh
 2492              		.thumb
 2493              		.thumb_func
 2495              	_ZN3ros10SubscriberIN12roberto_msgs10MotorStateEE8callbackEPh:
 2496              		.fnstart
 2497              	.LFB220:
  72:./lib/ros_lib/ros/subscriber.h ****         msg.deserialize(data);
 2498              		.loc 10 72 0
 2499              		.cfi_startproc
 2500              		@ args = 0, pretend = 0, frame = 0
 2501              		@ frame_needed = 0, uses_anonymous_args = 0
 2502              	.LVL300:
 2503 0000 70B5     		push	{r4, r5, r6, lr}
 2504              	.LCFI21:
 2505              		.cfi_def_cfa_offset 16
 2506              		.cfi_offset 4, -16
 2507              		.cfi_offset 5, -12
 2508              		.cfi_offset 6, -8
 2509              		.cfi_offset 14, -4
  72:./lib/ros_lib/ros/subscriber.h ****         msg.deserialize(data);
 2510              		.loc 10 72 0
 2511 0002 0546     		mov	r5, r0
  73:./lib/ros_lib/ros/subscriber.h ****         this->cb_(msg);
 2512              		.loc 10 73 0
 2513 0004 00F10C04 		add	r4, r0, #12
 2514 0008 2046     		mov	r0, r4
 2515              	.LVL301:
 2516 000a FFF7FEFF 		bl	_ZN12roberto_msgs10MotorState11deserializeEPh
 2517              	.LVL302:
  74:./lib/ros_lib/ros/subscriber.h ****       }
 2518              		.loc 10 74 0
 2519 000e AB6B     		ldr	r3, [r5, #56]
 2520 0010 2046     		mov	r0, r4
  75:./lib/ros_lib/ros/subscriber.h **** 
 2521              		.loc 10 75 0
 2522 0012 BDE87040 		pop	{r4, r5, r6, lr}
 2523              	.LCFI22:
 2524              		.cfi_restore 14
 2525              		.cfi_restore 6
 2526              		.cfi_restore 5
 2527              		.cfi_restore 4
 2528              		.cfi_def_cfa_offset 0
 2529              	.LVL303:
  74:./lib/ros_lib/ros/subscriber.h ****       }
 2530              		.loc 10 74 0
 2531 0016 1847     		bx	r3	@ indirect register sibling call
 2532              	.LVL304:
 2533              		.cfi_endproc
 2534              	.LFE220:
 2535              		.cantunwind
 2536              		.fnend
 2538              		.section	.text._ZN15ArduinoHardware4initEv,"axG",%progbits,_ZN15ArduinoHardware4initEv,comdat
 2539              		.align	1
 2540              		.weak	_ZN15ArduinoHardware4initEv
 2541              		.thumb
 2542              		.thumb_func
 2544              	_ZN15ArduinoHardware4initEv:
 2545              		.fnstart
 2546              	.LFB144:
 2547              		.file 13 "./lib/ros_lib/ArduinoHardware.h"
   1:./lib/ros_lib/ArduinoHardware.h **** /* 
   2:./lib/ros_lib/ArduinoHardware.h ****  * Software License Agreement (BSD License)
   3:./lib/ros_lib/ArduinoHardware.h ****  *
   4:./lib/ros_lib/ArduinoHardware.h ****  * Copyright (c) 2011, Willow Garage, Inc.
   5:./lib/ros_lib/ArduinoHardware.h ****  * All rights reserved.
   6:./lib/ros_lib/ArduinoHardware.h ****  *
   7:./lib/ros_lib/ArduinoHardware.h ****  * Redistribution and use in source and binary forms, with or without
   8:./lib/ros_lib/ArduinoHardware.h ****  * modification, are permitted provided that the following conditions
   9:./lib/ros_lib/ArduinoHardware.h ****  * are met:
  10:./lib/ros_lib/ArduinoHardware.h ****  *
  11:./lib/ros_lib/ArduinoHardware.h ****  *  * Redistributions of source code must retain the above copyright
  12:./lib/ros_lib/ArduinoHardware.h ****  *    notice, this list of conditions and the following disclaimer.
  13:./lib/ros_lib/ArduinoHardware.h ****  *  * Redistributions in binary form must reproduce the above
  14:./lib/ros_lib/ArduinoHardware.h ****  *    copyright notice, this list of conditions and the following
  15:./lib/ros_lib/ArduinoHardware.h ****  *    disclaimer in the documentation and/or other materials provided
  16:./lib/ros_lib/ArduinoHardware.h ****  *    with the distribution.
  17:./lib/ros_lib/ArduinoHardware.h ****  *  * Neither the name of Willow Garage, Inc. nor the names of its
  18:./lib/ros_lib/ArduinoHardware.h ****  *    contributors may be used to endorse or promote prducts derived
  19:./lib/ros_lib/ArduinoHardware.h ****  *    from this software without specific prior written permission.
  20:./lib/ros_lib/ArduinoHardware.h ****  *
  21:./lib/ros_lib/ArduinoHardware.h ****  * THIS SOFTWARE IS PROVIDED BY THE COPYRIGHT HOLDERS AND CONTRIBUTORS
  22:./lib/ros_lib/ArduinoHardware.h ****  * "AS IS" AND ANY EXPRESS OR IMPLIED WARRANTIES, INCLUDING, BUT NOT
  23:./lib/ros_lib/ArduinoHardware.h ****  * LIMITED TO, THE IMPLIED WARRANTIES OF MERCHANTABILITY AND FITNESS
  24:./lib/ros_lib/ArduinoHardware.h ****  * FOR A PARTICULAR PURPOSE ARE DISCLAIMED. IN NO EVENT SHALL THE
  25:./lib/ros_lib/ArduinoHardware.h ****  * COPYRIGHT OWNER OR CONTRIBUTORS BE LIABLE FOR ANY DIRECT, INDIRECT,
  26:./lib/ros_lib/ArduinoHardware.h ****  * INCIDENTAL, SPECIAL, EXEMPLARY, OR CONSEQUENTIAL DAMAGES (INCLUDING,
  27:./lib/ros_lib/ArduinoHardware.h ****  * BUT NOT LIMITED TO, PROCUREMENT OF SUBSTITUTE GOODS OR SERVICES;
  28:./lib/ros_lib/ArduinoHardware.h ****  * LOSS OF USE, DATA, OR PROFITS; OR BUSINESS INTERRUPTION) HOWEVER
  29:./lib/ros_lib/ArduinoHardware.h ****  * CAUSED AND ON ANY THEORY OF LIABILITY, WHETHER IN CONTRACT, STRICT
  30:./lib/ros_lib/ArduinoHardware.h ****  * LIABILITY, OR TORT (INCLUDING NEGLIGENCE OR OTHERWISE) ARISING IN
  31:./lib/ros_lib/ArduinoHardware.h ****  * ANY WAY OUT OF THE USE OF THIS SOFTWARE, EVEN IF ADVISED OF THE
  32:./lib/ros_lib/ArduinoHardware.h ****  * POSSIBILITY OF SUCH DAMAGE.
  33:./lib/ros_lib/ArduinoHardware.h ****  */
  34:./lib/ros_lib/ArduinoHardware.h **** 
  35:./lib/ros_lib/ArduinoHardware.h **** #ifndef ROS_ARDUINO_HARDWARE_H_
  36:./lib/ros_lib/ArduinoHardware.h **** #define ROS_ARDUINO_HARDWARE_H_
  37:./lib/ros_lib/ArduinoHardware.h **** 
  38:./lib/ros_lib/ArduinoHardware.h **** #include "stm32f10x.h"
  39:./lib/ros_lib/ArduinoHardware.h **** #include "stm32_time.h"
  40:./lib/ros_lib/ArduinoHardware.h **** #include "led.h"
  41:./lib/ros_lib/ArduinoHardware.h **** 
  42:./lib/ros_lib/ArduinoHardware.h **** #define BUFFER_SIZE 512
  43:./lib/ros_lib/ArduinoHardware.h **** 
  44:./lib/ros_lib/ArduinoHardware.h **** 
  45:./lib/ros_lib/ArduinoHardware.h **** volatile uint16_t USART_FIFO[BUFFER_SIZE];
  46:./lib/ros_lib/ArduinoHardware.h **** volatile uint32_t USART_CNTIN;
  47:./lib/ros_lib/ArduinoHardware.h **** volatile uint32_t USART_CNTOUT;
  48:./lib/ros_lib/ArduinoHardware.h **** 
  49:./lib/ros_lib/ArduinoHardware.h **** class ArduinoHardware {
  50:./lib/ros_lib/ArduinoHardware.h ****   public:
  51:./lib/ros_lib/ArduinoHardware.h ****     ArduinoHardware(USART_TypeDef* io , long baud= 115200){
  52:./lib/ros_lib/ArduinoHardware.h ****       iostream = io;
  53:./lib/ros_lib/ArduinoHardware.h ****       baud_ = baud;
  54:./lib/ros_lib/ArduinoHardware.h ****       USART_CNTIN = 0;
  55:./lib/ros_lib/ArduinoHardware.h ****       USART_CNTOUT = 0;
  56:./lib/ros_lib/ArduinoHardware.h ****     }
  57:./lib/ros_lib/ArduinoHardware.h ****     ArduinoHardware()
  58:./lib/ros_lib/ArduinoHardware.h ****     {
  59:./lib/ros_lib/ArduinoHardware.h ****       /* Leonardo support */
  60:./lib/ros_lib/ArduinoHardware.h ****       iostream = USART1;
  61:./lib/ros_lib/ArduinoHardware.h ****       baud_ = 115200;
  62:./lib/ros_lib/ArduinoHardware.h ****       USART_CNTIN = 0;
  63:./lib/ros_lib/ArduinoHardware.h ****       USART_CNTOUT = 0;
  64:./lib/ros_lib/ArduinoHardware.h ****     }
  65:./lib/ros_lib/ArduinoHardware.h ****     ArduinoHardware(ArduinoHardware& h){
  66:./lib/ros_lib/ArduinoHardware.h ****       this->iostream = iostream;
  67:./lib/ros_lib/ArduinoHardware.h ****       this->baud_ = h.baud_;
  68:./lib/ros_lib/ArduinoHardware.h ****       USART_CNTIN = 0;
  69:./lib/ros_lib/ArduinoHardware.h ****       USART_CNTOUT = 0;
  70:./lib/ros_lib/ArduinoHardware.h ****     }
  71:./lib/ros_lib/ArduinoHardware.h ****   
  72:./lib/ros_lib/ArduinoHardware.h ****     void setBaud(long baud){
  73:./lib/ros_lib/ArduinoHardware.h ****       this->baud_= baud;
  74:./lib/ros_lib/ArduinoHardware.h ****     }
  75:./lib/ros_lib/ArduinoHardware.h ****   
  76:./lib/ros_lib/ArduinoHardware.h ****     int getBaud(){return baud_;}
  77:./lib/ros_lib/ArduinoHardware.h **** 
  78:./lib/ros_lib/ArduinoHardware.h ****     void init(){
 2548              		.loc 13 78 0
 2549              		.cfi_startproc
 2550              		@ args = 0, pretend = 0, frame = 24
 2551              		@ frame_needed = 0, uses_anonymous_args = 0
 2552              	.LVL305:
 2553 0000 70B5     		push	{r4, r5, r6, lr}
 2554              		.save {r4, r5, r6, lr}
 2555              	.LCFI23:
 2556              		.cfi_def_cfa_offset 16
 2557              		.cfi_offset 4, -16
 2558              		.cfi_offset 5, -12
 2559              		.cfi_offset 6, -8
 2560              		.cfi_offset 14, -4
 2561 0002 0446     		mov	r4, r0
 2562              		.pad #24
 2563 0004 86B0     		sub	sp, sp, #24
 2564              	.LCFI24:
 2565              		.cfi_def_cfa_offset 40
  79:./lib/ros_lib/ArduinoHardware.h ****       USART_InitTypeDef usart1_init_struct;
  80:./lib/ros_lib/ArduinoHardware.h ****       /* Bit configuration structure for GPIOA PIN9 and PIN10 */
  81:./lib/ros_lib/ArduinoHardware.h ****       GPIO_InitTypeDef gpioa_init_struct;
  82:./lib/ros_lib/ArduinoHardware.h **** 
  83:./lib/ros_lib/ArduinoHardware.h ****       /* Enalbe clock for USART1, AFIO and GPIOA */
  84:./lib/ros_lib/ArduinoHardware.h ****       RCC_APB2PeriphClockCmd(RCC_APB2Periph_USART1 | RCC_APB2Periph_AFIO | 
  85:./lib/ros_lib/ArduinoHardware.h ****                            RCC_APB2Periph_GPIOA, ENABLE);
  86:./lib/ros_lib/ArduinoHardware.h ****                             
  87:./lib/ros_lib/ArduinoHardware.h ****       /* GPIOA PIN9 alternative function Tx */
  88:./lib/ros_lib/ArduinoHardware.h ****       gpioa_init_struct.GPIO_Pin = GPIO_Pin_9;
  89:./lib/ros_lib/ArduinoHardware.h ****       gpioa_init_struct.GPIO_Speed = GPIO_Speed_50MHz;
  90:./lib/ros_lib/ArduinoHardware.h ****       gpioa_init_struct.GPIO_Mode = GPIO_Mode_AF_PP;
  91:./lib/ros_lib/ArduinoHardware.h ****       GPIO_Init(GPIOA, &gpioa_init_struct);
 2566              		.loc 13 91 0
 2567 0006 214D     		ldr	r5, .L131
  85:./lib/ros_lib/ArduinoHardware.h ****                             
 2568              		.loc 13 85 0
 2569 0008 0121     		movs	r1, #1
 2570 000a 44F20500 		movw	r0, #16389
 2571              	.LVL306:
 2572 000e FFF7FEFF 		bl	RCC_APB2PeriphClockCmd
 2573              	.LVL307:
  88:./lib/ros_lib/ArduinoHardware.h ****       gpioa_init_struct.GPIO_Speed = GPIO_Speed_50MHz;
 2574              		.loc 13 88 0
 2575 0012 4FF40073 		mov	r3, #512
 2576 0016 ADF80430 		strh	r3, [sp, #4]	@ movhi
  89:./lib/ros_lib/ArduinoHardware.h ****       gpioa_init_struct.GPIO_Mode = GPIO_Mode_AF_PP;
 2577              		.loc 13 89 0
 2578 001a 0326     		movs	r6, #3
  90:./lib/ros_lib/ArduinoHardware.h ****       GPIO_Init(GPIOA, &gpioa_init_struct);
 2579              		.loc 13 90 0
 2580 001c 1823     		movs	r3, #24
 2581              		.loc 13 91 0
 2582 001e 01A9     		add	r1, sp, #4
 2583 0020 2846     		mov	r0, r5
  90:./lib/ros_lib/ArduinoHardware.h ****       GPIO_Init(GPIOA, &gpioa_init_struct);
 2584              		.loc 13 90 0
 2585 0022 8DF80730 		strb	r3, [sp, #7]
  89:./lib/ros_lib/ArduinoHardware.h ****       gpioa_init_struct.GPIO_Mode = GPIO_Mode_AF_PP;
 2586              		.loc 13 89 0
 2587 0026 8DF80660 		strb	r6, [sp, #6]
 2588              		.loc 13 91 0
 2589 002a FFF7FEFF 		bl	GPIO_Init
 2590              	.LVL308:
  92:./lib/ros_lib/ArduinoHardware.h ****       /* GPIOA PIN9 alternative function Rx */
  93:./lib/ros_lib/ArduinoHardware.h ****       gpioa_init_struct.GPIO_Pin = GPIO_Pin_10;
 2591              		.loc 13 93 0
 2592 002e 4FF48063 		mov	r3, #1024
 2593 0032 ADF80430 		strh	r3, [sp, #4]	@ movhi
  94:./lib/ros_lib/ArduinoHardware.h ****       gpioa_init_struct.GPIO_Speed = GPIO_Speed_50MHz;
  95:./lib/ros_lib/ArduinoHardware.h ****       gpioa_init_struct.GPIO_Mode = GPIO_Mode_IN_FLOATING;
 2594              		.loc 13 95 0
 2595 0036 0423     		movs	r3, #4
  96:./lib/ros_lib/ArduinoHardware.h ****       GPIO_Init(GPIOA, &gpioa_init_struct);
 2596              		.loc 13 96 0
 2597 0038 0DEB0301 		add	r1, sp, r3
 2598 003c 2846     		mov	r0, r5
  95:./lib/ros_lib/ArduinoHardware.h ****       GPIO_Init(GPIOA, &gpioa_init_struct);
 2599              		.loc 13 95 0
 2600 003e 8DF80730 		strb	r3, [sp, #7]
  94:./lib/ros_lib/ArduinoHardware.h ****       gpioa_init_struct.GPIO_Speed = GPIO_Speed_50MHz;
 2601              		.loc 13 94 0
 2602 0042 8DF80660 		strb	r6, [sp, #6]
 2603              		.loc 13 96 0
 2604 0046 FFF7FEFF 		bl	GPIO_Init
 2605              	.LVL309:
  97:./lib/ros_lib/ArduinoHardware.h **** 
  98:./lib/ros_lib/ArduinoHardware.h ****       /* Enable USART1 */
  99:./lib/ros_lib/ArduinoHardware.h ****       USART_Cmd(iostream, ENABLE);  
 2606              		.loc 13 99 0
 2607 004a 2068     		ldr	r0, [r4]
 2608 004c 0121     		movs	r1, #1
 2609 004e FFF7FEFF 		bl	USART_Cmd
 2610              	.LVL310:
 100:./lib/ros_lib/ArduinoHardware.h ****       /* Baud rate 115200, 8-bit data, One stop bit
 101:./lib/ros_lib/ArduinoHardware.h ****       * No parity, Do both Rx and Tx, No HW flow control
 102:./lib/ros_lib/ArduinoHardware.h ****       */
 103:./lib/ros_lib/ArduinoHardware.h ****       usart1_init_struct.USART_BaudRate = baud_;   
 2611              		.loc 13 103 0
 2612 0052 6368     		ldr	r3, [r4, #4]
 104:./lib/ros_lib/ArduinoHardware.h ****       usart1_init_struct.USART_WordLength = USART_WordLength_8b;  
 105:./lib/ros_lib/ArduinoHardware.h ****       usart1_init_struct.USART_StopBits = USART_StopBits_1;   
 106:./lib/ros_lib/ArduinoHardware.h ****       usart1_init_struct.USART_Parity = USART_Parity_No ;
 107:./lib/ros_lib/ArduinoHardware.h ****       usart1_init_struct.USART_Mode = USART_Mode_Rx | USART_Mode_Tx;
 2613              		.loc 13 107 0
 2614 0054 0C22     		movs	r2, #12
 103:./lib/ros_lib/ArduinoHardware.h ****       usart1_init_struct.USART_WordLength = USART_WordLength_8b;  
 2615              		.loc 13 103 0
 2616 0056 0293     		str	r3, [sp, #8]
 108:./lib/ros_lib/ArduinoHardware.h ****       usart1_init_struct.USART_HardwareFlowControl = USART_HardwareFlowControl_None;
 109:./lib/ros_lib/ArduinoHardware.h ****       /* Configure USART1 */
 110:./lib/ros_lib/ArduinoHardware.h ****       USART_Init(iostream, &usart1_init_struct);
 2617              		.loc 13 110 0
 2618 0058 02A9     		add	r1, sp, #8
 104:./lib/ros_lib/ArduinoHardware.h ****       usart1_init_struct.USART_StopBits = USART_StopBits_1;   
 2619              		.loc 13 104 0
 2620 005a 0023     		movs	r3, #0
 2621              		.loc 13 110 0
 2622 005c 2068     		ldr	r0, [r4]
 104:./lib/ros_lib/ArduinoHardware.h ****       usart1_init_struct.USART_StopBits = USART_StopBits_1;   
 2623              		.loc 13 104 0
 2624 005e ADF80C30 		strh	r3, [sp, #12]	@ movhi
 105:./lib/ros_lib/ArduinoHardware.h ****       usart1_init_struct.USART_Parity = USART_Parity_No ;
 2625              		.loc 13 105 0
 2626 0062 ADF80E30 		strh	r3, [sp, #14]	@ movhi
 106:./lib/ros_lib/ArduinoHardware.h ****       usart1_init_struct.USART_Mode = USART_Mode_Rx | USART_Mode_Tx;
 2627              		.loc 13 106 0
 2628 0066 ADF81030 		strh	r3, [sp, #16]	@ movhi
 108:./lib/ros_lib/ArduinoHardware.h ****       /* Configure USART1 */
 2629              		.loc 13 108 0
 2630 006a ADF81430 		strh	r3, [sp, #20]	@ movhi
 107:./lib/ros_lib/ArduinoHardware.h ****       usart1_init_struct.USART_HardwareFlowControl = USART_HardwareFlowControl_None;
 2631              		.loc 13 107 0
 2632 006e ADF81220 		strh	r2, [sp, #18]	@ movhi
 2633              		.loc 13 110 0
 2634 0072 FFF7FEFF 		bl	USART_Init
 2635              	.LVL311:
 111:./lib/ros_lib/ArduinoHardware.h ****       /* Enable RXNE interrupt */
 112:./lib/ros_lib/ArduinoHardware.h ****       USART_ITConfig(iostream, USART_IT_RXNE, ENABLE);
 2636              		.loc 13 112 0
 2637 0076 0122     		movs	r2, #1
 2638 0078 40F22551 		movw	r1, #1317
 2639 007c 2068     		ldr	r0, [r4]
 2640 007e FFF7FEFF 		bl	USART_ITConfig
 2641              	.LVL312:
 2642              	.LBB177:
 2643              	.LBB178:
 2644              		.file 14 "./lib/CMSIS/CM3/CoreSupport/core_cm3.h"
   1:./lib/CMSIS/CM3/CoreSupport/core_cm3.h **** /**************************************************************************//**
   2:./lib/CMSIS/CM3/CoreSupport/core_cm3.h ****  * @file     core_cm3.h
   3:./lib/CMSIS/CM3/CoreSupport/core_cm3.h ****  * @brief    CMSIS Cortex-M3 Core Peripheral Access Layer Header File
   4:./lib/CMSIS/CM3/CoreSupport/core_cm3.h ****  * @version  V1.30
   5:./lib/CMSIS/CM3/CoreSupport/core_cm3.h ****  * @date     30. October 2009
   6:./lib/CMSIS/CM3/CoreSupport/core_cm3.h ****  *
   7:./lib/CMSIS/CM3/CoreSupport/core_cm3.h ****  * @note
   8:./lib/CMSIS/CM3/CoreSupport/core_cm3.h ****  * Copyright (C) 2009 ARM Limited. All rights reserved.
   9:./lib/CMSIS/CM3/CoreSupport/core_cm3.h ****  *
  10:./lib/CMSIS/CM3/CoreSupport/core_cm3.h ****  * @par
  11:./lib/CMSIS/CM3/CoreSupport/core_cm3.h ****  * ARM Limited (ARM) is supplying this software for use with Cortex-M 
  12:./lib/CMSIS/CM3/CoreSupport/core_cm3.h ****  * processor based microcontrollers.  This file can be freely distributed 
  13:./lib/CMSIS/CM3/CoreSupport/core_cm3.h ****  * within development tools that are supporting such ARM based processors. 
  14:./lib/CMSIS/CM3/CoreSupport/core_cm3.h ****  *
  15:./lib/CMSIS/CM3/CoreSupport/core_cm3.h ****  * @par
  16:./lib/CMSIS/CM3/CoreSupport/core_cm3.h ****  * THIS SOFTWARE IS PROVIDED "AS IS".  NO WARRANTIES, WHETHER EXPRESS, IMPLIED
  17:./lib/CMSIS/CM3/CoreSupport/core_cm3.h ****  * OR STATUTORY, INCLUDING, BUT NOT LIMITED TO, IMPLIED WARRANTIES OF
  18:./lib/CMSIS/CM3/CoreSupport/core_cm3.h ****  * MERCHANTABILITY AND FITNESS FOR A PARTICULAR PURPOSE APPLY TO THIS SOFTWARE.
  19:./lib/CMSIS/CM3/CoreSupport/core_cm3.h ****  * ARM SHALL NOT, IN ANY CIRCUMSTANCES, BE LIABLE FOR SPECIAL, INCIDENTAL, OR
  20:./lib/CMSIS/CM3/CoreSupport/core_cm3.h ****  * CONSEQUENTIAL DAMAGES, FOR ANY REASON WHATSOEVER.
  21:./lib/CMSIS/CM3/CoreSupport/core_cm3.h ****  *
  22:./lib/CMSIS/CM3/CoreSupport/core_cm3.h ****  ******************************************************************************/
  23:./lib/CMSIS/CM3/CoreSupport/core_cm3.h **** 
  24:./lib/CMSIS/CM3/CoreSupport/core_cm3.h **** #ifndef __CM3_CORE_H__
  25:./lib/CMSIS/CM3/CoreSupport/core_cm3.h **** #define __CM3_CORE_H__
  26:./lib/CMSIS/CM3/CoreSupport/core_cm3.h **** 
  27:./lib/CMSIS/CM3/CoreSupport/core_cm3.h **** /** @addtogroup CMSIS_CM3_core_LintCinfiguration CMSIS CM3 Core Lint Configuration
  28:./lib/CMSIS/CM3/CoreSupport/core_cm3.h ****  *
  29:./lib/CMSIS/CM3/CoreSupport/core_cm3.h ****  * List of Lint messages which will be suppressed and not shown:
  30:./lib/CMSIS/CM3/CoreSupport/core_cm3.h ****  *   - Error 10: \n
  31:./lib/CMSIS/CM3/CoreSupport/core_cm3.h ****  *     register uint32_t __regBasePri         __asm("basepri"); \n
  32:./lib/CMSIS/CM3/CoreSupport/core_cm3.h ****  *     Error 10: Expecting ';'
  33:./lib/CMSIS/CM3/CoreSupport/core_cm3.h ****  * .
  34:./lib/CMSIS/CM3/CoreSupport/core_cm3.h ****  *   - Error 530: \n
  35:./lib/CMSIS/CM3/CoreSupport/core_cm3.h ****  *     return(__regBasePri); \n
  36:./lib/CMSIS/CM3/CoreSupport/core_cm3.h ****  *     Warning 530: Symbol '__regBasePri' (line 264) not initialized
  37:./lib/CMSIS/CM3/CoreSupport/core_cm3.h ****  * . 
  38:./lib/CMSIS/CM3/CoreSupport/core_cm3.h ****  *   - Error 550: \n
  39:./lib/CMSIS/CM3/CoreSupport/core_cm3.h ****  *     __regBasePri = (basePri & 0x1ff); \n
  40:./lib/CMSIS/CM3/CoreSupport/core_cm3.h ****  *     Warning 550: Symbol '__regBasePri' (line 271) not accessed
  41:./lib/CMSIS/CM3/CoreSupport/core_cm3.h ****  * .
  42:./lib/CMSIS/CM3/CoreSupport/core_cm3.h ****  *   - Error 754: \n
  43:./lib/CMSIS/CM3/CoreSupport/core_cm3.h ****  *     uint32_t RESERVED0[24]; \n
  44:./lib/CMSIS/CM3/CoreSupport/core_cm3.h ****  *     Info 754: local structure member '<some, not used in the HAL>' (line 109, file ./cm3_core.h)
  45:./lib/CMSIS/CM3/CoreSupport/core_cm3.h ****  * .
  46:./lib/CMSIS/CM3/CoreSupport/core_cm3.h ****  *   - Error 750: \n
  47:./lib/CMSIS/CM3/CoreSupport/core_cm3.h ****  *     #define __CM3_CORE_H__ \n
  48:./lib/CMSIS/CM3/CoreSupport/core_cm3.h ****  *     Info 750: local macro '__CM3_CORE_H__' (line 43, file./cm3_core.h) not referenced
  49:./lib/CMSIS/CM3/CoreSupport/core_cm3.h ****  * .
  50:./lib/CMSIS/CM3/CoreSupport/core_cm3.h ****  *   - Error 528: \n
  51:./lib/CMSIS/CM3/CoreSupport/core_cm3.h ****  *     static __INLINE void NVIC_DisableIRQ(uint32_t IRQn) \n
  52:./lib/CMSIS/CM3/CoreSupport/core_cm3.h ****  *     Warning 528: Symbol 'NVIC_DisableIRQ(unsigned int)' (line 419, file ./cm3_core.h) not refere
  53:./lib/CMSIS/CM3/CoreSupport/core_cm3.h ****  * .
  54:./lib/CMSIS/CM3/CoreSupport/core_cm3.h ****  *   - Error 751: \n
  55:./lib/CMSIS/CM3/CoreSupport/core_cm3.h ****  *     } InterruptType_Type; \n
  56:./lib/CMSIS/CM3/CoreSupport/core_cm3.h ****  *     Info 751: local typedef 'InterruptType_Type' (line 170, file ./cm3_core.h) not referenced
  57:./lib/CMSIS/CM3/CoreSupport/core_cm3.h ****  * .
  58:./lib/CMSIS/CM3/CoreSupport/core_cm3.h ****  * Note:  To re-enable a Message, insert a space before 'lint' *
  59:./lib/CMSIS/CM3/CoreSupport/core_cm3.h ****  *
  60:./lib/CMSIS/CM3/CoreSupport/core_cm3.h ****  */
  61:./lib/CMSIS/CM3/CoreSupport/core_cm3.h **** 
  62:./lib/CMSIS/CM3/CoreSupport/core_cm3.h **** /*lint -save */
  63:./lib/CMSIS/CM3/CoreSupport/core_cm3.h **** /*lint -e10  */
  64:./lib/CMSIS/CM3/CoreSupport/core_cm3.h **** /*lint -e530 */
  65:./lib/CMSIS/CM3/CoreSupport/core_cm3.h **** /*lint -e550 */
  66:./lib/CMSIS/CM3/CoreSupport/core_cm3.h **** /*lint -e754 */
  67:./lib/CMSIS/CM3/CoreSupport/core_cm3.h **** /*lint -e750 */
  68:./lib/CMSIS/CM3/CoreSupport/core_cm3.h **** /*lint -e528 */
  69:./lib/CMSIS/CM3/CoreSupport/core_cm3.h **** /*lint -e751 */
  70:./lib/CMSIS/CM3/CoreSupport/core_cm3.h **** 
  71:./lib/CMSIS/CM3/CoreSupport/core_cm3.h **** 
  72:./lib/CMSIS/CM3/CoreSupport/core_cm3.h **** /** @addtogroup CMSIS_CM3_core_definitions CM3 Core Definitions
  73:./lib/CMSIS/CM3/CoreSupport/core_cm3.h ****   This file defines all structures and symbols for CMSIS core:
  74:./lib/CMSIS/CM3/CoreSupport/core_cm3.h ****     - CMSIS version number
  75:./lib/CMSIS/CM3/CoreSupport/core_cm3.h ****     - Cortex-M core registers and bitfields
  76:./lib/CMSIS/CM3/CoreSupport/core_cm3.h ****     - Cortex-M core peripheral base address
  77:./lib/CMSIS/CM3/CoreSupport/core_cm3.h ****   @{
  78:./lib/CMSIS/CM3/CoreSupport/core_cm3.h ****  */
  79:./lib/CMSIS/CM3/CoreSupport/core_cm3.h **** 
  80:./lib/CMSIS/CM3/CoreSupport/core_cm3.h **** #ifdef __cplusplus
  81:./lib/CMSIS/CM3/CoreSupport/core_cm3.h ****  extern "C" {
  82:./lib/CMSIS/CM3/CoreSupport/core_cm3.h **** #endif 
  83:./lib/CMSIS/CM3/CoreSupport/core_cm3.h **** 
  84:./lib/CMSIS/CM3/CoreSupport/core_cm3.h **** #define __CM3_CMSIS_VERSION_MAIN  (0x01)                                                       /*!<
  85:./lib/CMSIS/CM3/CoreSupport/core_cm3.h **** #define __CM3_CMSIS_VERSION_SUB   (0x30)                                                       /*!<
  86:./lib/CMSIS/CM3/CoreSupport/core_cm3.h **** #define __CM3_CMSIS_VERSION       ((__CM3_CMSIS_VERSION_MAIN << 16) | __CM3_CMSIS_VERSION_SUB) /*!<
  87:./lib/CMSIS/CM3/CoreSupport/core_cm3.h **** 
  88:./lib/CMSIS/CM3/CoreSupport/core_cm3.h **** #define __CORTEX_M                (0x03)                                                       /*!<
  89:./lib/CMSIS/CM3/CoreSupport/core_cm3.h **** 
  90:./lib/CMSIS/CM3/CoreSupport/core_cm3.h **** #include <stdint.h>                           /* Include standard types */
  91:./lib/CMSIS/CM3/CoreSupport/core_cm3.h **** 
  92:./lib/CMSIS/CM3/CoreSupport/core_cm3.h **** #if defined (__ICCARM__)
  93:./lib/CMSIS/CM3/CoreSupport/core_cm3.h ****   #include <intrinsics.h>                     /* IAR Intrinsics   */
  94:./lib/CMSIS/CM3/CoreSupport/core_cm3.h **** #endif
  95:./lib/CMSIS/CM3/CoreSupport/core_cm3.h **** 
  96:./lib/CMSIS/CM3/CoreSupport/core_cm3.h **** 
  97:./lib/CMSIS/CM3/CoreSupport/core_cm3.h **** #ifndef __NVIC_PRIO_BITS
  98:./lib/CMSIS/CM3/CoreSupport/core_cm3.h ****   #define __NVIC_PRIO_BITS    4               /*!< standard definition for NVIC Priority Bits */
  99:./lib/CMSIS/CM3/CoreSupport/core_cm3.h **** #endif
 100:./lib/CMSIS/CM3/CoreSupport/core_cm3.h **** 
 101:./lib/CMSIS/CM3/CoreSupport/core_cm3.h **** 
 102:./lib/CMSIS/CM3/CoreSupport/core_cm3.h **** 
 103:./lib/CMSIS/CM3/CoreSupport/core_cm3.h **** 
 104:./lib/CMSIS/CM3/CoreSupport/core_cm3.h **** /**
 105:./lib/CMSIS/CM3/CoreSupport/core_cm3.h ****  * IO definitions
 106:./lib/CMSIS/CM3/CoreSupport/core_cm3.h ****  *
 107:./lib/CMSIS/CM3/CoreSupport/core_cm3.h ****  * define access restrictions to peripheral registers
 108:./lib/CMSIS/CM3/CoreSupport/core_cm3.h ****  */
 109:./lib/CMSIS/CM3/CoreSupport/core_cm3.h **** 
 110:./lib/CMSIS/CM3/CoreSupport/core_cm3.h **** #ifdef __cplusplus
 111:./lib/CMSIS/CM3/CoreSupport/core_cm3.h ****   #define     __I     volatile                /*!< defines 'read only' permissions      */
 112:./lib/CMSIS/CM3/CoreSupport/core_cm3.h **** #else
 113:./lib/CMSIS/CM3/CoreSupport/core_cm3.h ****   #define     __I     volatile const          /*!< defines 'read only' permissions      */
 114:./lib/CMSIS/CM3/CoreSupport/core_cm3.h **** #endif
 115:./lib/CMSIS/CM3/CoreSupport/core_cm3.h **** #define     __O     volatile                  /*!< defines 'write only' permissions     */
 116:./lib/CMSIS/CM3/CoreSupport/core_cm3.h **** #define     __IO    volatile                  /*!< defines 'read / write' permissions   */
 117:./lib/CMSIS/CM3/CoreSupport/core_cm3.h **** 
 118:./lib/CMSIS/CM3/CoreSupport/core_cm3.h **** 
 119:./lib/CMSIS/CM3/CoreSupport/core_cm3.h **** 
 120:./lib/CMSIS/CM3/CoreSupport/core_cm3.h **** /*******************************************************************************
 121:./lib/CMSIS/CM3/CoreSupport/core_cm3.h ****  *                 Register Abstraction
 122:./lib/CMSIS/CM3/CoreSupport/core_cm3.h ****  ******************************************************************************/
 123:./lib/CMSIS/CM3/CoreSupport/core_cm3.h **** /** @addtogroup CMSIS_CM3_core_register CMSIS CM3 Core Register
 124:./lib/CMSIS/CM3/CoreSupport/core_cm3.h ****  @{
 125:./lib/CMSIS/CM3/CoreSupport/core_cm3.h **** */
 126:./lib/CMSIS/CM3/CoreSupport/core_cm3.h **** 
 127:./lib/CMSIS/CM3/CoreSupport/core_cm3.h **** 
 128:./lib/CMSIS/CM3/CoreSupport/core_cm3.h **** /** @addtogroup CMSIS_CM3_NVIC CMSIS CM3 NVIC
 129:./lib/CMSIS/CM3/CoreSupport/core_cm3.h ****   memory mapped structure for Nested Vectored Interrupt Controller (NVIC)
 130:./lib/CMSIS/CM3/CoreSupport/core_cm3.h ****   @{
 131:./lib/CMSIS/CM3/CoreSupport/core_cm3.h ****  */
 132:./lib/CMSIS/CM3/CoreSupport/core_cm3.h **** typedef struct
 133:./lib/CMSIS/CM3/CoreSupport/core_cm3.h **** {
 134:./lib/CMSIS/CM3/CoreSupport/core_cm3.h ****   __IO uint32_t ISER[8];                      /*!< Offset: 0x000  Interrupt Set Enable Register    
 135:./lib/CMSIS/CM3/CoreSupport/core_cm3.h ****        uint32_t RESERVED0[24];                                   
 136:./lib/CMSIS/CM3/CoreSupport/core_cm3.h ****   __IO uint32_t ICER[8];                      /*!< Offset: 0x080  Interrupt Clear Enable Register  
 137:./lib/CMSIS/CM3/CoreSupport/core_cm3.h ****        uint32_t RSERVED1[24];                                    
 138:./lib/CMSIS/CM3/CoreSupport/core_cm3.h ****   __IO uint32_t ISPR[8];                      /*!< Offset: 0x100  Interrupt Set Pending Register   
 139:./lib/CMSIS/CM3/CoreSupport/core_cm3.h ****        uint32_t RESERVED2[24];                                   
 140:./lib/CMSIS/CM3/CoreSupport/core_cm3.h ****   __IO uint32_t ICPR[8];                      /*!< Offset: 0x180  Interrupt Clear Pending Register 
 141:./lib/CMSIS/CM3/CoreSupport/core_cm3.h ****        uint32_t RESERVED3[24];                                   
 142:./lib/CMSIS/CM3/CoreSupport/core_cm3.h ****   __IO uint32_t IABR[8];                      /*!< Offset: 0x200  Interrupt Active bit Register    
 143:./lib/CMSIS/CM3/CoreSupport/core_cm3.h ****        uint32_t RESERVED4[56];                                   
 144:./lib/CMSIS/CM3/CoreSupport/core_cm3.h ****   __IO uint8_t  IP[240];                      /*!< Offset: 0x300  Interrupt Priority Register (8Bit
 145:./lib/CMSIS/CM3/CoreSupport/core_cm3.h ****        uint32_t RESERVED5[644];                                  
 146:./lib/CMSIS/CM3/CoreSupport/core_cm3.h ****   __O  uint32_t STIR;                         /*!< Offset: 0xE00  Software Trigger Interrupt Regist
 147:./lib/CMSIS/CM3/CoreSupport/core_cm3.h **** }  NVIC_Type;                                               
 148:./lib/CMSIS/CM3/CoreSupport/core_cm3.h **** /*@}*/ /* end of group CMSIS_CM3_NVIC */
 149:./lib/CMSIS/CM3/CoreSupport/core_cm3.h **** 
 150:./lib/CMSIS/CM3/CoreSupport/core_cm3.h **** 
 151:./lib/CMSIS/CM3/CoreSupport/core_cm3.h **** /** @addtogroup CMSIS_CM3_SCB CMSIS CM3 SCB
 152:./lib/CMSIS/CM3/CoreSupport/core_cm3.h ****   memory mapped structure for System Control Block (SCB)
 153:./lib/CMSIS/CM3/CoreSupport/core_cm3.h ****   @{
 154:./lib/CMSIS/CM3/CoreSupport/core_cm3.h ****  */
 155:./lib/CMSIS/CM3/CoreSupport/core_cm3.h **** typedef struct
 156:./lib/CMSIS/CM3/CoreSupport/core_cm3.h **** {
 157:./lib/CMSIS/CM3/CoreSupport/core_cm3.h ****   __I  uint32_t CPUID;                        /*!< Offset: 0x00  CPU ID Base Register              
 158:./lib/CMSIS/CM3/CoreSupport/core_cm3.h ****   __IO uint32_t ICSR;                         /*!< Offset: 0x04  Interrupt Control State Register  
 159:./lib/CMSIS/CM3/CoreSupport/core_cm3.h ****   __IO uint32_t VTOR;                         /*!< Offset: 0x08  Vector Table Offset Register      
 160:./lib/CMSIS/CM3/CoreSupport/core_cm3.h ****   __IO uint32_t AIRCR;                        /*!< Offset: 0x0C  Application Interrupt / Reset Cont
 161:./lib/CMSIS/CM3/CoreSupport/core_cm3.h ****   __IO uint32_t SCR;                          /*!< Offset: 0x10  System Control Register           
 162:./lib/CMSIS/CM3/CoreSupport/core_cm3.h ****   __IO uint32_t CCR;                          /*!< Offset: 0x14  Configuration Control Register    
 163:./lib/CMSIS/CM3/CoreSupport/core_cm3.h ****   __IO uint8_t  SHP[12];                      /*!< Offset: 0x18  System Handlers Priority Registers
 164:./lib/CMSIS/CM3/CoreSupport/core_cm3.h ****   __IO uint32_t SHCSR;                        /*!< Offset: 0x24  System Handler Control and State R
 165:./lib/CMSIS/CM3/CoreSupport/core_cm3.h ****   __IO uint32_t CFSR;                         /*!< Offset: 0x28  Configurable Fault Status Register
 166:./lib/CMSIS/CM3/CoreSupport/core_cm3.h ****   __IO uint32_t HFSR;                         /*!< Offset: 0x2C  Hard Fault Status Register        
 167:./lib/CMSIS/CM3/CoreSupport/core_cm3.h ****   __IO uint32_t DFSR;                         /*!< Offset: 0x30  Debug Fault Status Register       
 168:./lib/CMSIS/CM3/CoreSupport/core_cm3.h ****   __IO uint32_t MMFAR;                        /*!< Offset: 0x34  Mem Manage Address Register       
 169:./lib/CMSIS/CM3/CoreSupport/core_cm3.h ****   __IO uint32_t BFAR;                         /*!< Offset: 0x38  Bus Fault Address Register        
 170:./lib/CMSIS/CM3/CoreSupport/core_cm3.h ****   __IO uint32_t AFSR;                         /*!< Offset: 0x3C  Auxiliary Fault Status Register   
 171:./lib/CMSIS/CM3/CoreSupport/core_cm3.h ****   __I  uint32_t PFR[2];                       /*!< Offset: 0x40  Processor Feature Register        
 172:./lib/CMSIS/CM3/CoreSupport/core_cm3.h ****   __I  uint32_t DFR;                          /*!< Offset: 0x48  Debug Feature Register            
 173:./lib/CMSIS/CM3/CoreSupport/core_cm3.h ****   __I  uint32_t ADR;                          /*!< Offset: 0x4C  Auxiliary Feature Register        
 174:./lib/CMSIS/CM3/CoreSupport/core_cm3.h ****   __I  uint32_t MMFR[4];                      /*!< Offset: 0x50  Memory Model Feature Register     
 175:./lib/CMSIS/CM3/CoreSupport/core_cm3.h ****   __I  uint32_t ISAR[5];                      /*!< Offset: 0x60  ISA Feature Register              
 176:./lib/CMSIS/CM3/CoreSupport/core_cm3.h **** } SCB_Type;                                                
 177:./lib/CMSIS/CM3/CoreSupport/core_cm3.h **** 
 178:./lib/CMSIS/CM3/CoreSupport/core_cm3.h **** /* SCB CPUID Register Definitions */
 179:./lib/CMSIS/CM3/CoreSupport/core_cm3.h **** #define SCB_CPUID_IMPLEMENTER_Pos          24                                             /*!< SCB 
 180:./lib/CMSIS/CM3/CoreSupport/core_cm3.h **** #define SCB_CPUID_IMPLEMENTER_Msk          (0xFFul << SCB_CPUID_IMPLEMENTER_Pos)          /*!< SCB 
 181:./lib/CMSIS/CM3/CoreSupport/core_cm3.h **** 
 182:./lib/CMSIS/CM3/CoreSupport/core_cm3.h **** #define SCB_CPUID_VARIANT_Pos              20                                             /*!< SCB 
 183:./lib/CMSIS/CM3/CoreSupport/core_cm3.h **** #define SCB_CPUID_VARIANT_Msk              (0xFul << SCB_CPUID_VARIANT_Pos)               /*!< SCB 
 184:./lib/CMSIS/CM3/CoreSupport/core_cm3.h **** 
 185:./lib/CMSIS/CM3/CoreSupport/core_cm3.h **** #define SCB_CPUID_PARTNO_Pos                4                                             /*!< SCB 
 186:./lib/CMSIS/CM3/CoreSupport/core_cm3.h **** #define SCB_CPUID_PARTNO_Msk               (0xFFFul << SCB_CPUID_PARTNO_Pos)              /*!< SCB 
 187:./lib/CMSIS/CM3/CoreSupport/core_cm3.h **** 
 188:./lib/CMSIS/CM3/CoreSupport/core_cm3.h **** #define SCB_CPUID_REVISION_Pos              0                                             /*!< SCB 
 189:./lib/CMSIS/CM3/CoreSupport/core_cm3.h **** #define SCB_CPUID_REVISION_Msk             (0xFul << SCB_CPUID_REVISION_Pos)              /*!< SCB 
 190:./lib/CMSIS/CM3/CoreSupport/core_cm3.h **** 
 191:./lib/CMSIS/CM3/CoreSupport/core_cm3.h **** /* SCB Interrupt Control State Register Definitions */
 192:./lib/CMSIS/CM3/CoreSupport/core_cm3.h **** #define SCB_ICSR_NMIPENDSET_Pos            31                                             /*!< SCB 
 193:./lib/CMSIS/CM3/CoreSupport/core_cm3.h **** #define SCB_ICSR_NMIPENDSET_Msk            (1ul << SCB_ICSR_NMIPENDSET_Pos)               /*!< SCB 
 194:./lib/CMSIS/CM3/CoreSupport/core_cm3.h **** 
 195:./lib/CMSIS/CM3/CoreSupport/core_cm3.h **** #define SCB_ICSR_PENDSVSET_Pos             28                                             /*!< SCB 
 196:./lib/CMSIS/CM3/CoreSupport/core_cm3.h **** #define SCB_ICSR_PENDSVSET_Msk             (1ul << SCB_ICSR_PENDSVSET_Pos)                /*!< SCB 
 197:./lib/CMSIS/CM3/CoreSupport/core_cm3.h **** 
 198:./lib/CMSIS/CM3/CoreSupport/core_cm3.h **** #define SCB_ICSR_PENDSVCLR_Pos             27                                             /*!< SCB 
 199:./lib/CMSIS/CM3/CoreSupport/core_cm3.h **** #define SCB_ICSR_PENDSVCLR_Msk             (1ul << SCB_ICSR_PENDSVCLR_Pos)                /*!< SCB 
 200:./lib/CMSIS/CM3/CoreSupport/core_cm3.h **** 
 201:./lib/CMSIS/CM3/CoreSupport/core_cm3.h **** #define SCB_ICSR_PENDSTSET_Pos             26                                             /*!< SCB 
 202:./lib/CMSIS/CM3/CoreSupport/core_cm3.h **** #define SCB_ICSR_PENDSTSET_Msk             (1ul << SCB_ICSR_PENDSTSET_Pos)                /*!< SCB 
 203:./lib/CMSIS/CM3/CoreSupport/core_cm3.h **** 
 204:./lib/CMSIS/CM3/CoreSupport/core_cm3.h **** #define SCB_ICSR_PENDSTCLR_Pos             25                                             /*!< SCB 
 205:./lib/CMSIS/CM3/CoreSupport/core_cm3.h **** #define SCB_ICSR_PENDSTCLR_Msk             (1ul << SCB_ICSR_PENDSTCLR_Pos)                /*!< SCB 
 206:./lib/CMSIS/CM3/CoreSupport/core_cm3.h **** 
 207:./lib/CMSIS/CM3/CoreSupport/core_cm3.h **** #define SCB_ICSR_ISRPREEMPT_Pos            23                                             /*!< SCB 
 208:./lib/CMSIS/CM3/CoreSupport/core_cm3.h **** #define SCB_ICSR_ISRPREEMPT_Msk            (1ul << SCB_ICSR_ISRPREEMPT_Pos)               /*!< SCB 
 209:./lib/CMSIS/CM3/CoreSupport/core_cm3.h **** 
 210:./lib/CMSIS/CM3/CoreSupport/core_cm3.h **** #define SCB_ICSR_ISRPENDING_Pos            22                                             /*!< SCB 
 211:./lib/CMSIS/CM3/CoreSupport/core_cm3.h **** #define SCB_ICSR_ISRPENDING_Msk            (1ul << SCB_ICSR_ISRPENDING_Pos)               /*!< SCB 
 212:./lib/CMSIS/CM3/CoreSupport/core_cm3.h **** 
 213:./lib/CMSIS/CM3/CoreSupport/core_cm3.h **** #define SCB_ICSR_VECTPENDING_Pos           12                                             /*!< SCB 
 214:./lib/CMSIS/CM3/CoreSupport/core_cm3.h **** #define SCB_ICSR_VECTPENDING_Msk           (0x1FFul << SCB_ICSR_VECTPENDING_Pos)          /*!< SCB 
 215:./lib/CMSIS/CM3/CoreSupport/core_cm3.h **** 
 216:./lib/CMSIS/CM3/CoreSupport/core_cm3.h **** #define SCB_ICSR_RETTOBASE_Pos             11                                             /*!< SCB 
 217:./lib/CMSIS/CM3/CoreSupport/core_cm3.h **** #define SCB_ICSR_RETTOBASE_Msk             (1ul << SCB_ICSR_RETTOBASE_Pos)                /*!< SCB 
 218:./lib/CMSIS/CM3/CoreSupport/core_cm3.h **** 
 219:./lib/CMSIS/CM3/CoreSupport/core_cm3.h **** #define SCB_ICSR_VECTACTIVE_Pos             0                                             /*!< SCB 
 220:./lib/CMSIS/CM3/CoreSupport/core_cm3.h **** #define SCB_ICSR_VECTACTIVE_Msk            (0x1FFul << SCB_ICSR_VECTACTIVE_Pos)           /*!< SCB 
 221:./lib/CMSIS/CM3/CoreSupport/core_cm3.h **** 
 222:./lib/CMSIS/CM3/CoreSupport/core_cm3.h **** /* SCB Interrupt Control State Register Definitions */
 223:./lib/CMSIS/CM3/CoreSupport/core_cm3.h **** #define SCB_VTOR_TBLBASE_Pos               29                                             /*!< SCB 
 224:./lib/CMSIS/CM3/CoreSupport/core_cm3.h **** #define SCB_VTOR_TBLBASE_Msk               (0x1FFul << SCB_VTOR_TBLBASE_Pos)              /*!< SCB 
 225:./lib/CMSIS/CM3/CoreSupport/core_cm3.h **** 
 226:./lib/CMSIS/CM3/CoreSupport/core_cm3.h **** #define SCB_VTOR_TBLOFF_Pos                 7                                             /*!< SCB 
 227:./lib/CMSIS/CM3/CoreSupport/core_cm3.h **** #define SCB_VTOR_TBLOFF_Msk                (0x3FFFFFul << SCB_VTOR_TBLOFF_Pos)            /*!< SCB 
 228:./lib/CMSIS/CM3/CoreSupport/core_cm3.h **** 
 229:./lib/CMSIS/CM3/CoreSupport/core_cm3.h **** /* SCB Application Interrupt and Reset Control Register Definitions */
 230:./lib/CMSIS/CM3/CoreSupport/core_cm3.h **** #define SCB_AIRCR_VECTKEY_Pos              16                                             /*!< SCB 
 231:./lib/CMSIS/CM3/CoreSupport/core_cm3.h **** #define SCB_AIRCR_VECTKEY_Msk              (0xFFFFul << SCB_AIRCR_VECTKEY_Pos)            /*!< SCB 
 232:./lib/CMSIS/CM3/CoreSupport/core_cm3.h **** 
