   1              		.syntax unified
   2              		.cpu cortex-m3
   3              		.fpu softvfp
   4              		.eabi_attribute 20, 1
   5              		.eabi_attribute 21, 1
   6              		.eabi_attribute 23, 3
   7              		.eabi_attribute 24, 1
   8              		.eabi_attribute 25, 1
   9              		.eabi_attribute 26, 1
  10              		.eabi_attribute 30, 4
  11              		.eabi_attribute 34, 1
  12              		.eabi_attribute 18, 4
  13              		.thumb
  14              		.syntax unified
  15              		.file	"servo.cpp"
  16              		.text
  17              	.Ltext0:
  18              		.cfi_sections	.debug_frame
  19              		.section	.text._ZN5servo9motorTypeEv,"axG",%progbits,_ZN5servo9motorTypeEv,comdat
  20              		.align	1
  21              		.weak	_ZN5servo9motorTypeEv
  22              		.thumb
  23              		.thumb_func
  25              	_ZN5servo9motorTypeEv:
  26              		.fnstart
  27              	.LFB1021:
  28              		.file 1 "./inc/servo.h"
   1:./inc/servo.h **** 
   2:./inc/servo.h **** #ifndef _servo_H
   3:./inc/servo.h **** #define	_servo_H
   4:./inc/servo.h **** 
   5:./inc/servo.h **** #include <stm32f10x.h>
   6:./inc/servo.h **** #include "motor.h"
   7:./inc/servo.h **** 
   8:./inc/servo.h **** class servo : public motor
   9:./inc/servo.h **** {
  10:./inc/servo.h **** public:
  11:./inc/servo.h ****     servo(motorSettings *settings);
  12:./inc/servo.h ****     ~servo();
  13:./inc/servo.h **** 
  14:./inc/servo.h ****     virtual void setReference(float setPoint);
  15:./inc/servo.h ****     virtual float getReference();
  16:./inc/servo.h ****     virtual const char* motorName();
  17:./inc/servo.h ****     virtual std::tuple<float, float, int, int> update(float dt, bool connected);
  18:./inc/servo.h **** 
  19:./inc/servo.h ****     virtual int motorType() { return MOTOR_TYPE_SERVO; }
  29              		.loc 1 19 0
  30              		.cfi_startproc
  31              		@ args = 0, pretend = 0, frame = 0
  32              		@ frame_needed = 0, uses_anonymous_args = 0
  33              		@ link register save eliminated.
  34              	.LVL0:
  35              		.loc 1 19 0
  36 0000 0120     		movs	r0, #1
  37              	.LVL1:
  38 0002 7047     		bx	lr
  39              		.cfi_endproc
  40              	.LFE1021:
  41              		.cantunwind
  42              		.fnend
  44              		.global	__aeabi_f2iz
  45              		.text
  46              		.align	1
  47              		.global	_ZN5servo12setReferenceEf
  48              		.thumb
  49              		.thumb_func
  51              	_ZN5servo12setReferenceEf:
  52              		.fnstart
  53              	.LFB1030:
  54              		.file 2 "src/servo.cpp"
   1:src/servo.cpp **** 
   2:src/servo.cpp **** #include "servo.h"
   3:src/servo.cpp **** #include "motorSettings.h"
   4:src/servo.cpp **** 
   5:src/servo.cpp **** 
   6:src/servo.cpp **** servo::servo(motorSettings *settings) : motor(settings)
   7:src/servo.cpp **** {
   8:src/servo.cpp **** 
   9:src/servo.cpp **** }
  10:src/servo.cpp **** 
  11:src/servo.cpp **** servo::~servo()
  12:src/servo.cpp **** {
  13:src/servo.cpp **** }
  14:src/servo.cpp **** 
  15:src/servo.cpp **** bool servo::motorInit()
  16:src/servo.cpp **** {
  17:src/servo.cpp **** 
  18:src/servo.cpp **** 	GPIO_InitTypeDef GPIO_InitStructure;
  19:src/servo.cpp **** 
  20:src/servo.cpp **** 	GPIO_InitStructure.GPIO_Pin = m_settings->m_ServoPin;
  21:src/servo.cpp **** 	GPIO_InitStructure.GPIO_Mode = GPIO_Mode_AF_PP;
  22:src/servo.cpp **** 	GPIO_InitStructure.GPIO_Speed = GPIO_Speed_50MHz;
  23:src/servo.cpp **** 	GPIO_Init(m_settings->m_ServoPort, &GPIO_InitStructure);
  24:src/servo.cpp **** 
  25:src/servo.cpp **** 
  26:src/servo.cpp **** 
  27:src/servo.cpp **** 
  28:src/servo.cpp **** 	TIM_TimeBaseInitTypeDef TIM_TimeBaseStructure;
  29:src/servo.cpp **** 	TIM_TimeBaseStructure.TIM_Period = 59999; // ie 0..29999
  30:src/servo.cpp **** 	TIM_TimeBaseStructure.TIM_Prescaler = 23;
  31:src/servo.cpp **** 	TIM_TimeBaseStructure.TIM_ClockDivision = 0;
  32:src/servo.cpp **** 	TIM_TimeBaseStructure.TIM_CounterMode = TIM_CounterMode_Up;
  33:src/servo.cpp **** 
  34:src/servo.cpp **** 	TIM_TimeBaseInit(m_settings->m_Timer, &TIM_TimeBaseStructure);
  35:src/servo.cpp **** 
  36:src/servo.cpp **** 
  37:src/servo.cpp **** 	TIM_OCInitTypeDef TIM_OCInitStructure;
  38:src/servo.cpp **** 	TIM_OCStructInit(&TIM_OCInitStructure); // clears the other 4 fields not used here
  39:src/servo.cpp **** 
  40:src/servo.cpp **** 	/* PWM1 Mode configuration: Channel1 */
  41:src/servo.cpp **** 	TIM_OCInitStructure.TIM_OCMode = TIM_OCMode_PWM1;
  42:src/servo.cpp **** 	TIM_OCInitStructure.TIM_OutputState = TIM_OutputState_Enable;
  43:src/servo.cpp **** 	TIM_OCInitStructure.TIM_Pulse = 0x0000;
  44:src/servo.cpp **** 	TIM_OCInitStructure.TIM_OCPolarity = TIM_OCPolarity_High;
  45:src/servo.cpp **** 
  46:src/servo.cpp **** 	switch(m_settings->m_TimerChannel){
  47:src/servo.cpp **** 		case 1:
  48:src/servo.cpp **** 			TIM_OC1Init(m_settings->m_Timer, &TIM_OCInitStructure);
  49:src/servo.cpp **** 			TIM_OC1PreloadConfig(m_settings->m_Timer, TIM_OCPreload_Enable);
  50:src/servo.cpp **** 			break;
  51:src/servo.cpp **** 		case 2:
  52:src/servo.cpp **** 			TIM_OC2Init(m_settings->m_Timer, &TIM_OCInitStructure);
  53:src/servo.cpp **** 			TIM_OC2PreloadConfig(m_settings->m_Timer, TIM_OCPreload_Enable);
  54:src/servo.cpp **** 			break;
  55:src/servo.cpp **** 		case 3:
  56:src/servo.cpp **** 			TIM_OC3Init(m_settings->m_Timer, &TIM_OCInitStructure);
  57:src/servo.cpp **** 			TIM_OC3PreloadConfig(m_settings->m_Timer, TIM_OCPreload_Enable);
  58:src/servo.cpp **** 			break;
  59:src/servo.cpp **** 		case 4:
  60:src/servo.cpp **** 			TIM_OC4Init(m_settings->m_Timer, &TIM_OCInitStructure);
  61:src/servo.cpp **** 			TIM_OC4PreloadConfig(m_settings->m_Timer, TIM_OCPreload_Enable);
  62:src/servo.cpp **** 			break;
  63:src/servo.cpp **** 		default:
  64:src/servo.cpp **** 			return false;
  65:src/servo.cpp **** 	}
  66:src/servo.cpp **** 
  67:src/servo.cpp **** 
  68:src/servo.cpp **** 	TIM_ARRPreloadConfig(m_settings->m_Timer, ENABLE);
  69:src/servo.cpp **** 
  70:src/servo.cpp **** 	/* TIM Main Output Enable */
  71:src/servo.cpp **** 	TIM_CtrlPWMOutputs(m_settings->m_Timer, ENABLE);
  72:src/servo.cpp **** 
  73:src/servo.cpp **** 	/* TIM enable counter */
  74:src/servo.cpp **** 	TIM_Cmd(m_settings->m_Timer, ENABLE);
  75:src/servo.cpp **** 
  76:src/servo.cpp **** 	// Setup Controller
  77:src/servo.cpp **** 	float b_[] = {0.0029,    0.0087,    0.0087,    0.0029};
  78:src/servo.cpp **** 	float a_[] = {1.0000,   -2.3741,    1.9294,   -0.5321};
  79:src/servo.cpp **** 	std::copy(b_, b_ + 5, b);
  80:src/servo.cpp **** 	std::copy(a_, a_ + 5, a);
  81:src/servo.cpp **** 
  82:src/servo.cpp **** 	return true;
  83:src/servo.cpp **** }
  84:src/servo.cpp **** 
  85:src/servo.cpp **** void servo::setReference(float setPoint){
  55              		.loc 2 85 0
  56              		.cfi_startproc
  57              		@ args = 0, pretend = 0, frame = 0
  58              		@ frame_needed = 0, uses_anonymous_args = 0
  59              	.LVL2:
  60 0000 10B5     		push	{r4, lr}
  61              	.LCFI0:
  62              		.cfi_def_cfa_offset 8
  63              		.cfi_offset 4, -8
  64              		.cfi_offset 14, -4
  65              		.loc 2 85 0
  66 0002 0446     		mov	r4, r0
  86:src/servo.cpp **** 	pos = (int) setPoint;
  67              		.loc 2 86 0
  68 0004 0846     		mov	r0, r1
  69              	.LVL3:
  70 0006 FFF7FEFF 		bl	__aeabi_f2iz
  71              	.LVL4:
  72 000a A060     		str	r0, [r4, #8]
  73 000c 10BD     		pop	{r4, pc}
  74              		.cfi_endproc
  75              	.LFE1030:
  76              		.cantunwind
  77              		.fnend
  79              		.global	__aeabi_i2f
  80              		.align	1
  81              		.global	_ZN5servo12getReferenceEv
  82              		.thumb
  83              		.thumb_func
  85              	_ZN5servo12getReferenceEv:
  86              		.fnstart
  87              	.LFB1031:
  87:src/servo.cpp **** 	//pos = (int)setPoint > 90? 90 : ( (int)setPoint < -MAX_ANGLE_PIVOT? -MAX_ANGLE_PIVOT : (int)setPo
  88:src/servo.cpp **** }
  89:src/servo.cpp **** 
  90:src/servo.cpp **** float servo::getReference(){
  88              		.loc 2 90 0
  89              		.cfi_startproc
  90              		@ args = 0, pretend = 0, frame = 0
  91              		@ frame_needed = 0, uses_anonymous_args = 0
  92              	.LVL5:
  93 000e 08B5     		push	{r3, lr}
  94              	.LCFI1:
  95              		.cfi_def_cfa_offset 8
  96              		.cfi_offset 3, -8
  97              		.cfi_offset 14, -4
  91:src/servo.cpp **** 	return (float)pos;
  98              		.loc 2 91 0
  99 0010 8068     		ldr	r0, [r0, #8]
 100              	.LVL6:
 101 0012 FFF7FEFF 		bl	__aeabi_i2f
 102              	.LVL7:
  92:src/servo.cpp **** }
 103              		.loc 2 92 0
 104 0016 08BD     		pop	{r3, pc}
 105              		.cfi_endproc
 106              	.LFE1031:
 107              		.cantunwind
 108              		.fnend
 110              		.align	1
 111              		.global	_ZN5servo9motorNameEv
 112              		.thumb
 113              		.thumb_func
 115              	_ZN5servo9motorNameEv:
 116              		.fnstart
 117              	.LFB1032:
  93:src/servo.cpp **** const char* servo::motorName(){
 118              		.loc 2 93 0
 119              		.cfi_startproc
 120              		@ args = 0, pretend = 0, frame = 0
 121              		@ frame_needed = 0, uses_anonymous_args = 0
 122              		@ link register save eliminated.
 123              	.LVL8:
  94:src/servo.cpp **** 	return m_settings->m_motorName;
 124              		.loc 2 94 0
 125 0018 4368     		ldr	r3, [r0, #4]
  95:src/servo.cpp **** }
 126              		.loc 2 95 0
 127 001a 5868     		ldr	r0, [r3, #4]
 128              	.LVL9:
 129 001c 7047     		bx	lr
 130              		.cfi_endproc
 131              	.LFE1032:
 132              		.cantunwind
 133              		.fnend
 135              		.align	1
 136              		.global	_ZN5servoD2Ev
 137              		.thumb
 138              		.thumb_func
 140              	_ZN5servoD2Ev:
 141              		.fnstart
 142              	.LFB1026:
  11:src/servo.cpp **** {
 143              		.loc 2 11 0
 144              		.cfi_startproc
 145              		@ args = 0, pretend = 0, frame = 0
 146              		@ frame_needed = 0, uses_anonymous_args = 0
 147              	.LVL10:
 148 001e 10B5     		push	{r4, lr}
 149              	.LCFI2:
 150              		.cfi_def_cfa_offset 8
 151              		.cfi_offset 4, -8
 152              		.cfi_offset 14, -4
  11:src/servo.cpp **** {
 153              		.loc 2 11 0
 154 0020 0446     		mov	r4, r0
 155              	.LBB503:
 156 0022 034B     		ldr	r3, .L6
 157 0024 0360     		str	r3, [r0]
 158 0026 FFF7FEFF 		bl	_ZN5motorD2Ev
 159              	.LVL11:
 160              	.LBE503:
  13:src/servo.cpp **** 
 161              		.loc 2 13 0
 162 002a 2046     		mov	r0, r4
 163 002c 10BD     		pop	{r4, pc}
 164              	.LVL12:
 165              	.L7:
 166 002e 00BF     		.align	2
 167              	.L6:
 168 0030 08000000 		.word	.LANCHOR0+8
 169              		.cfi_endproc
 170              	.LFE1026:
 171              		.cantunwind
 172              		.fnend
 174              		.global	_ZN5servoD1Ev
 175              		.thumb_set _ZN5servoD1Ev,_ZN5servoD2Ev
 176              		.align	1
 177              		.global	_ZN5servoD0Ev
 178              		.thumb
 179              		.thumb_func
 181              	_ZN5servoD0Ev:
 182              		.fnstart
 183              	.LFB1028:
  11:src/servo.cpp **** {
 184              		.loc 2 11 0
 185              		.cfi_startproc
 186              		@ args = 0, pretend = 0, frame = 0
 187              		@ frame_needed = 0, uses_anonymous_args = 0
 188              	.LVL13:
 189 0034 10B5     		push	{r4, lr}
 190              	.LCFI3:
 191              		.cfi_def_cfa_offset 8
 192              		.cfi_offset 4, -8
 193              		.cfi_offset 14, -4
  11:src/servo.cpp **** {
 194              		.loc 2 11 0
 195 0036 0446     		mov	r4, r0
  13:src/servo.cpp **** 
 196              		.loc 2 13 0
 197 0038 FFF7FEFF 		bl	_ZN5servoD1Ev
 198              	.LVL14:
 199 003c 2046     		mov	r0, r4
 200 003e FFF7FEFF 		bl	_ZdlPv
 201              	.LVL15:
 202 0042 2046     		mov	r0, r4
 203 0044 10BD     		pop	{r4, pc}
 204              		.cfi_endproc
 205              	.LFE1028:
 206              		.cantunwind
 207              		.fnend
 209              		.align	1
 210              		.global	_ZN5servo9motorInitEv
 211              		.thumb
 212              		.thumb_func
 214              	_ZN5servo9motorInitEv:
 215              		.fnstart
 216              	.LFB1029:
  16:src/servo.cpp **** 
 217              		.loc 2 16 0
 218              		.cfi_startproc
 219              		@ args = 0, pretend = 0, frame = 64
 220              		@ frame_needed = 0, uses_anonymous_args = 0
 221              	.LVL16:
 222 0046 F0B5     		push	{r4, r5, r6, r7, lr}
 223              		.save {r4, r5, r6, r7, lr}
 224              	.LCFI4:
 225              		.cfi_def_cfa_offset 20
 226              		.cfi_offset 4, -20
 227              		.cfi_offset 5, -16
 228              		.cfi_offset 6, -12
 229              		.cfi_offset 7, -8
 230              		.cfi_offset 14, -4
  20:src/servo.cpp **** 	GPIO_InitStructure.GPIO_Mode = GPIO_Mode_AF_PP;
 231              		.loc 2 20 0
 232 0048 4368     		ldr	r3, [r0, #4]
  16:src/servo.cpp **** 
 233              		.loc 2 16 0
 234              		.pad #68
 235 004a 91B0     		sub	sp, sp, #68
 236              	.LCFI5:
 237              		.cfi_def_cfa_offset 88
  20:src/servo.cpp **** 	GPIO_InitStructure.GPIO_Mode = GPIO_Mode_AF_PP;
 238              		.loc 2 20 0
 239 004c 9A69     		ldr	r2, [r3, #24]
  16:src/servo.cpp **** 
 240              		.loc 2 16 0
 241 004e 0446     		mov	r4, r0
  20:src/servo.cpp **** 	GPIO_InitStructure.GPIO_Mode = GPIO_Mode_AF_PP;
 242              		.loc 2 20 0
 243 0050 ADF80020 		strh	r2, [sp]	@ movhi
  21:src/servo.cpp **** 	GPIO_InitStructure.GPIO_Speed = GPIO_Speed_50MHz;
 244              		.loc 2 21 0
 245 0054 1822     		movs	r2, #24
  23:src/servo.cpp **** 
 246              		.loc 2 23 0
 247 0056 D869     		ldr	r0, [r3, #28]
 248              	.LVL17:
  21:src/servo.cpp **** 	GPIO_InitStructure.GPIO_Speed = GPIO_Speed_50MHz;
 249              		.loc 2 21 0
 250 0058 8DF80320 		strb	r2, [sp, #3]
  23:src/servo.cpp **** 
 251              		.loc 2 23 0
 252 005c 6946     		mov	r1, sp
  22:src/servo.cpp **** 	GPIO_Init(m_settings->m_ServoPort, &GPIO_InitStructure);
 253              		.loc 2 22 0
 254 005e 0322     		movs	r2, #3
 255 0060 8DF80220 		strb	r2, [sp, #2]
  23:src/servo.cpp **** 
 256              		.loc 2 23 0
 257 0064 FFF7FEFF 		bl	GPIO_Init
 258              	.LVL18:
  29:src/servo.cpp **** 	TIM_TimeBaseStructure.TIM_Prescaler = 23;
 259              		.loc 2 29 0
 260 0068 4EF65F23 		movw	r3, #59999
 261 006c ADF80830 		strh	r3, [sp, #8]	@ movhi
  30:src/servo.cpp **** 	TIM_TimeBaseStructure.TIM_ClockDivision = 0;
 262              		.loc 2 30 0
 263 0070 1723     		movs	r3, #23
 264 0072 ADF80430 		strh	r3, [sp, #4]	@ movhi
  34:src/servo.cpp **** 
 265              		.loc 2 34 0
 266 0076 6368     		ldr	r3, [r4, #4]
  31:src/servo.cpp **** 	TIM_TimeBaseStructure.TIM_CounterMode = TIM_CounterMode_Up;
 267              		.loc 2 31 0
 268 0078 0025     		movs	r5, #0
  34:src/servo.cpp **** 
 269              		.loc 2 34 0
 270 007a 9868     		ldr	r0, [r3, #8]
 271 007c 01A9     		add	r1, sp, #4
  31:src/servo.cpp **** 	TIM_TimeBaseStructure.TIM_CounterMode = TIM_CounterMode_Up;
 272              		.loc 2 31 0
 273 007e ADF80A50 		strh	r5, [sp, #10]	@ movhi
  32:src/servo.cpp **** 
 274              		.loc 2 32 0
 275 0082 ADF80650 		strh	r5, [sp, #6]	@ movhi
  34:src/servo.cpp **** 
 276              		.loc 2 34 0
 277 0086 FFF7FEFF 		bl	TIM_TimeBaseInit
 278              	.LVL19:
  38:src/servo.cpp **** 
 279              		.loc 2 38 0
 280 008a 04A8     		add	r0, sp, #16
 281 008c FFF7FEFF 		bl	TIM_OCStructInit
 282              	.LVL20:
  41:src/servo.cpp **** 	TIM_OCInitStructure.TIM_OutputState = TIM_OutputState_Enable;
 283              		.loc 2 41 0
 284 0090 6023     		movs	r3, #96
 285 0092 ADF81030 		strh	r3, [sp, #16]	@ movhi
  42:src/servo.cpp **** 	TIM_OCInitStructure.TIM_Pulse = 0x0000;
 286              		.loc 2 42 0
 287 0096 0123     		movs	r3, #1
 288 0098 ADF81230 		strh	r3, [sp, #18]	@ movhi
  46:src/servo.cpp **** 		case 1:
 289              		.loc 2 46 0
 290 009c 6368     		ldr	r3, [r4, #4]
  43:src/servo.cpp **** 	TIM_OCInitStructure.TIM_OCPolarity = TIM_OCPolarity_High;
 291              		.loc 2 43 0
 292 009e ADF81650 		strh	r5, [sp, #22]	@ movhi
  46:src/servo.cpp **** 		case 1:
 293              		.loc 2 46 0
 294 00a2 DA68     		ldr	r2, [r3, #12]
  44:src/servo.cpp **** 
 295              		.loc 2 44 0
 296 00a4 ADF81850 		strh	r5, [sp, #24]	@ movhi
  46:src/servo.cpp **** 		case 1:
 297              		.loc 2 46 0
 298 00a8 013A     		subs	r2, r2, #1
 299 00aa 032A     		cmp	r2, #3
 300 00ac 61D8     		bhi	.L19
 301 00ae DFE802F0 		tbb	[pc, r2]
 302              	.L12:
 303 00b2 02       		.byte	(.L11-.L12)/2
 304 00b3 0C       		.byte	(.L13-.L12)/2
 305 00b4 16       		.byte	(.L14-.L12)/2
 306 00b5 20       		.byte	(.L15-.L12)/2
 307              		.p2align 1
 308              	.L11:
  48:src/servo.cpp **** 			TIM_OC1PreloadConfig(m_settings->m_Timer, TIM_OCPreload_Enable);
 309              		.loc 2 48 0
 310 00b6 04A9     		add	r1, sp, #16
 311 00b8 9868     		ldr	r0, [r3, #8]
 312 00ba FFF7FEFF 		bl	TIM_OC1Init
 313              	.LVL21:
  49:src/servo.cpp **** 			break;
 314              		.loc 2 49 0
 315 00be 6368     		ldr	r3, [r4, #4]
 316 00c0 0821     		movs	r1, #8
 317 00c2 9868     		ldr	r0, [r3, #8]
 318 00c4 FFF7FEFF 		bl	TIM_OC1PreloadConfig
 319              	.LVL22:
 320 00c8 1CE0     		b	.L16
 321              	.L13:
  52:src/servo.cpp **** 			TIM_OC2PreloadConfig(m_settings->m_Timer, TIM_OCPreload_Enable);
 322              		.loc 2 52 0
 323 00ca 04A9     		add	r1, sp, #16
 324 00cc 9868     		ldr	r0, [r3, #8]
 325 00ce FFF7FEFF 		bl	TIM_OC2Init
 326              	.LVL23:
  53:src/servo.cpp **** 			break;
 327              		.loc 2 53 0
 328 00d2 6368     		ldr	r3, [r4, #4]
 329 00d4 0821     		movs	r1, #8
 330 00d6 9868     		ldr	r0, [r3, #8]
 331 00d8 FFF7FEFF 		bl	TIM_OC2PreloadConfig
 332              	.LVL24:
 333 00dc 12E0     		b	.L16
 334              	.L14:
  56:src/servo.cpp **** 			TIM_OC3PreloadConfig(m_settings->m_Timer, TIM_OCPreload_Enable);
 335              		.loc 2 56 0
 336 00de 04A9     		add	r1, sp, #16
 337 00e0 9868     		ldr	r0, [r3, #8]
 338 00e2 FFF7FEFF 		bl	TIM_OC3Init
 339              	.LVL25:
  57:src/servo.cpp **** 			break;
 340              		.loc 2 57 0
 341 00e6 6368     		ldr	r3, [r4, #4]
 342 00e8 0821     		movs	r1, #8
 343 00ea 9868     		ldr	r0, [r3, #8]
 344 00ec FFF7FEFF 		bl	TIM_OC3PreloadConfig
 345              	.LVL26:
 346 00f0 08E0     		b	.L16
 347              	.L15:
  60:src/servo.cpp **** 			TIM_OC4PreloadConfig(m_settings->m_Timer, TIM_OCPreload_Enable);
 348              		.loc 2 60 0
 349 00f2 9868     		ldr	r0, [r3, #8]
 350 00f4 04A9     		add	r1, sp, #16
 351 00f6 FFF7FEFF 		bl	TIM_OC4Init
 352              	.LVL27:
  61:src/servo.cpp **** 			break;
 353              		.loc 2 61 0
 354 00fa 6368     		ldr	r3, [r4, #4]
 355 00fc 0821     		movs	r1, #8
 356 00fe 9868     		ldr	r0, [r3, #8]
 357 0100 FFF7FEFF 		bl	TIM_OC4PreloadConfig
 358              	.LVL28:
 359              	.L16:
  68:src/servo.cpp **** 
 360              		.loc 2 68 0
 361 0104 6368     		ldr	r3, [r4, #4]
 362 0106 0121     		movs	r1, #1
 363 0108 9868     		ldr	r0, [r3, #8]
 364 010a FFF7FEFF 		bl	TIM_ARRPreloadConfig
 365              	.LVL29:
  71:src/servo.cpp **** 
 366              		.loc 2 71 0
 367 010e 6368     		ldr	r3, [r4, #4]
 368 0110 0121     		movs	r1, #1
 369 0112 9868     		ldr	r0, [r3, #8]
 370 0114 FFF7FEFF 		bl	TIM_CtrlPWMOutputs
 371              	.LVL30:
  74:src/servo.cpp **** 
 372              		.loc 2 74 0
 373 0118 6368     		ldr	r3, [r4, #4]
  77:src/servo.cpp **** 	float a_[] = {1.0000,   -2.3741,    1.9294,   -0.5321};
 374              		.loc 2 77 0
 375 011a 174F     		ldr	r7, .L23
  74:src/servo.cpp **** 
 376              		.loc 2 74 0
 377 011c 0121     		movs	r1, #1
 378 011e 9868     		ldr	r0, [r3, #8]
 379 0120 FFF7FEFF 		bl	TIM_Cmd
 380              	.LVL31:
  77:src/servo.cpp **** 	float a_[] = {1.0000,   -2.3741,    1.9294,   -0.5321};
 381              		.loc 2 77 0
 382 0124 97E80F00 		ldmia	r7, {r0, r1, r2, r3}
 383 0128 08AE     		add	r6, sp, #32
  78:src/servo.cpp **** 	std::copy(b_, b_ + 5, b);
 384              		.loc 2 78 0
 385 012a 0CAD     		add	r5, sp, #48
 386 012c 1037     		adds	r7, r7, #16
  77:src/servo.cpp **** 	float a_[] = {1.0000,   -2.3741,    1.9294,   -0.5321};
 387              		.loc 2 77 0
 388 012e 86E80F00 		stmia	r6, {r0, r1, r2, r3}
  78:src/servo.cpp **** 	std::copy(b_, b_ + 5, b);
 389              		.loc 2 78 0
 390 0132 97E80F00 		ldmia	r7, {r0, r1, r2, r3}
 391 0136 85E80F00 		stmia	r5, {r0, r1, r2, r3}
 392              	.LVL32:
 393              	.LBB518:
 394              	.LBB519:
 395              	.LBB520:
 396              	.LBB521:
 397              	.LBB522:
 398              	.LBB523:
 399              		.file 3 "/opt/gcc-arm-none-eabi-5_2-2015q4/arm-none-eabi/include/c++/5.2.1/bits/stl_algobase.h"
   1:/opt/gcc-arm-none-eabi-5_2-2015q4/arm-none-eabi/include/c++/5.2.1/bits/stl_algobase.h **** // Core algorithmic facilities -*- C++ -*-
   2:/opt/gcc-arm-none-eabi-5_2-2015q4/arm-none-eabi/include/c++/5.2.1/bits/stl_algobase.h **** 
   3:/opt/gcc-arm-none-eabi-5_2-2015q4/arm-none-eabi/include/c++/5.2.1/bits/stl_algobase.h **** // Copyright (C) 2001-2015 Free Software Foundation, Inc.
   4:/opt/gcc-arm-none-eabi-5_2-2015q4/arm-none-eabi/include/c++/5.2.1/bits/stl_algobase.h **** //
   5:/opt/gcc-arm-none-eabi-5_2-2015q4/arm-none-eabi/include/c++/5.2.1/bits/stl_algobase.h **** // This file is part of the GNU ISO C++ Library.  This library is free
   6:/opt/gcc-arm-none-eabi-5_2-2015q4/arm-none-eabi/include/c++/5.2.1/bits/stl_algobase.h **** // software; you can redistribute it and/or modify it under the
   7:/opt/gcc-arm-none-eabi-5_2-2015q4/arm-none-eabi/include/c++/5.2.1/bits/stl_algobase.h **** // terms of the GNU General Public License as published by the
   8:/opt/gcc-arm-none-eabi-5_2-2015q4/arm-none-eabi/include/c++/5.2.1/bits/stl_algobase.h **** // Free Software Foundation; either version 3, or (at your option)
   9:/opt/gcc-arm-none-eabi-5_2-2015q4/arm-none-eabi/include/c++/5.2.1/bits/stl_algobase.h **** // any later version.
  10:/opt/gcc-arm-none-eabi-5_2-2015q4/arm-none-eabi/include/c++/5.2.1/bits/stl_algobase.h **** 
  11:/opt/gcc-arm-none-eabi-5_2-2015q4/arm-none-eabi/include/c++/5.2.1/bits/stl_algobase.h **** // This library is distributed in the hope that it will be useful,
  12:/opt/gcc-arm-none-eabi-5_2-2015q4/arm-none-eabi/include/c++/5.2.1/bits/stl_algobase.h **** // but WITHOUT ANY WARRANTY; without even the implied warranty of
  13:/opt/gcc-arm-none-eabi-5_2-2015q4/arm-none-eabi/include/c++/5.2.1/bits/stl_algobase.h **** // MERCHANTABILITY or FITNESS FOR A PARTICULAR PURPOSE.  See the
  14:/opt/gcc-arm-none-eabi-5_2-2015q4/arm-none-eabi/include/c++/5.2.1/bits/stl_algobase.h **** // GNU General Public License for more details.
  15:/opt/gcc-arm-none-eabi-5_2-2015q4/arm-none-eabi/include/c++/5.2.1/bits/stl_algobase.h **** 
  16:/opt/gcc-arm-none-eabi-5_2-2015q4/arm-none-eabi/include/c++/5.2.1/bits/stl_algobase.h **** // Under Section 7 of GPL version 3, you are granted additional
  17:/opt/gcc-arm-none-eabi-5_2-2015q4/arm-none-eabi/include/c++/5.2.1/bits/stl_algobase.h **** // permissions described in the GCC Runtime Library Exception, version
  18:/opt/gcc-arm-none-eabi-5_2-2015q4/arm-none-eabi/include/c++/5.2.1/bits/stl_algobase.h **** // 3.1, as published by the Free Software Foundation.
  19:/opt/gcc-arm-none-eabi-5_2-2015q4/arm-none-eabi/include/c++/5.2.1/bits/stl_algobase.h **** 
  20:/opt/gcc-arm-none-eabi-5_2-2015q4/arm-none-eabi/include/c++/5.2.1/bits/stl_algobase.h **** // You should have received a copy of the GNU General Public License and
  21:/opt/gcc-arm-none-eabi-5_2-2015q4/arm-none-eabi/include/c++/5.2.1/bits/stl_algobase.h **** // a copy of the GCC Runtime Library Exception along with this program;
  22:/opt/gcc-arm-none-eabi-5_2-2015q4/arm-none-eabi/include/c++/5.2.1/bits/stl_algobase.h **** // see the files COPYING3 and COPYING.RUNTIME respectively.  If not, see
  23:/opt/gcc-arm-none-eabi-5_2-2015q4/arm-none-eabi/include/c++/5.2.1/bits/stl_algobase.h **** // <http://www.gnu.org/licenses/>.
  24:/opt/gcc-arm-none-eabi-5_2-2015q4/arm-none-eabi/include/c++/5.2.1/bits/stl_algobase.h **** 
  25:/opt/gcc-arm-none-eabi-5_2-2015q4/arm-none-eabi/include/c++/5.2.1/bits/stl_algobase.h **** /*
  26:/opt/gcc-arm-none-eabi-5_2-2015q4/arm-none-eabi/include/c++/5.2.1/bits/stl_algobase.h ****  *
  27:/opt/gcc-arm-none-eabi-5_2-2015q4/arm-none-eabi/include/c++/5.2.1/bits/stl_algobase.h ****  * Copyright (c) 1994
  28:/opt/gcc-arm-none-eabi-5_2-2015q4/arm-none-eabi/include/c++/5.2.1/bits/stl_algobase.h ****  * Hewlett-Packard Company
  29:/opt/gcc-arm-none-eabi-5_2-2015q4/arm-none-eabi/include/c++/5.2.1/bits/stl_algobase.h ****  *
  30:/opt/gcc-arm-none-eabi-5_2-2015q4/arm-none-eabi/include/c++/5.2.1/bits/stl_algobase.h ****  * Permission to use, copy, modify, distribute and sell this software
  31:/opt/gcc-arm-none-eabi-5_2-2015q4/arm-none-eabi/include/c++/5.2.1/bits/stl_algobase.h ****  * and its documentation for any purpose is hereby granted without fee,
  32:/opt/gcc-arm-none-eabi-5_2-2015q4/arm-none-eabi/include/c++/5.2.1/bits/stl_algobase.h ****  * provided that the above copyright notice appear in all copies and
  33:/opt/gcc-arm-none-eabi-5_2-2015q4/arm-none-eabi/include/c++/5.2.1/bits/stl_algobase.h ****  * that both that copyright notice and this permission notice appear
  34:/opt/gcc-arm-none-eabi-5_2-2015q4/arm-none-eabi/include/c++/5.2.1/bits/stl_algobase.h ****  * in supporting documentation.  Hewlett-Packard Company makes no
  35:/opt/gcc-arm-none-eabi-5_2-2015q4/arm-none-eabi/include/c++/5.2.1/bits/stl_algobase.h ****  * representations about the suitability of this software for any
  36:/opt/gcc-arm-none-eabi-5_2-2015q4/arm-none-eabi/include/c++/5.2.1/bits/stl_algobase.h ****  * purpose.  It is provided "as is" without express or implied warranty.
  37:/opt/gcc-arm-none-eabi-5_2-2015q4/arm-none-eabi/include/c++/5.2.1/bits/stl_algobase.h ****  *
  38:/opt/gcc-arm-none-eabi-5_2-2015q4/arm-none-eabi/include/c++/5.2.1/bits/stl_algobase.h ****  *
  39:/opt/gcc-arm-none-eabi-5_2-2015q4/arm-none-eabi/include/c++/5.2.1/bits/stl_algobase.h ****  * Copyright (c) 1996-1998
  40:/opt/gcc-arm-none-eabi-5_2-2015q4/arm-none-eabi/include/c++/5.2.1/bits/stl_algobase.h ****  * Silicon Graphics Computer Systems, Inc.
  41:/opt/gcc-arm-none-eabi-5_2-2015q4/arm-none-eabi/include/c++/5.2.1/bits/stl_algobase.h ****  *
  42:/opt/gcc-arm-none-eabi-5_2-2015q4/arm-none-eabi/include/c++/5.2.1/bits/stl_algobase.h ****  * Permission to use, copy, modify, distribute and sell this software
  43:/opt/gcc-arm-none-eabi-5_2-2015q4/arm-none-eabi/include/c++/5.2.1/bits/stl_algobase.h ****  * and its documentation for any purpose is hereby granted without fee,
  44:/opt/gcc-arm-none-eabi-5_2-2015q4/arm-none-eabi/include/c++/5.2.1/bits/stl_algobase.h ****  * provided that the above copyright notice appear in all copies and
  45:/opt/gcc-arm-none-eabi-5_2-2015q4/arm-none-eabi/include/c++/5.2.1/bits/stl_algobase.h ****  * that both that copyright notice and this permission notice appear
  46:/opt/gcc-arm-none-eabi-5_2-2015q4/arm-none-eabi/include/c++/5.2.1/bits/stl_algobase.h ****  * in supporting documentation.  Silicon Graphics makes no
  47:/opt/gcc-arm-none-eabi-5_2-2015q4/arm-none-eabi/include/c++/5.2.1/bits/stl_algobase.h ****  * representations about the suitability of this software for any
  48:/opt/gcc-arm-none-eabi-5_2-2015q4/arm-none-eabi/include/c++/5.2.1/bits/stl_algobase.h ****  * purpose.  It is provided "as is" without express or implied warranty.
  49:/opt/gcc-arm-none-eabi-5_2-2015q4/arm-none-eabi/include/c++/5.2.1/bits/stl_algobase.h ****  */
  50:/opt/gcc-arm-none-eabi-5_2-2015q4/arm-none-eabi/include/c++/5.2.1/bits/stl_algobase.h **** 
  51:/opt/gcc-arm-none-eabi-5_2-2015q4/arm-none-eabi/include/c++/5.2.1/bits/stl_algobase.h **** /** @file bits/stl_algobase.h
  52:/opt/gcc-arm-none-eabi-5_2-2015q4/arm-none-eabi/include/c++/5.2.1/bits/stl_algobase.h ****  *  This is an internal header file, included by other library headers.
  53:/opt/gcc-arm-none-eabi-5_2-2015q4/arm-none-eabi/include/c++/5.2.1/bits/stl_algobase.h ****  *  Do not attempt to use it directly. @headername{algorithm}
  54:/opt/gcc-arm-none-eabi-5_2-2015q4/arm-none-eabi/include/c++/5.2.1/bits/stl_algobase.h ****  */
  55:/opt/gcc-arm-none-eabi-5_2-2015q4/arm-none-eabi/include/c++/5.2.1/bits/stl_algobase.h **** 
  56:/opt/gcc-arm-none-eabi-5_2-2015q4/arm-none-eabi/include/c++/5.2.1/bits/stl_algobase.h **** #ifndef _STL_ALGOBASE_H
  57:/opt/gcc-arm-none-eabi-5_2-2015q4/arm-none-eabi/include/c++/5.2.1/bits/stl_algobase.h **** #define _STL_ALGOBASE_H 1
  58:/opt/gcc-arm-none-eabi-5_2-2015q4/arm-none-eabi/include/c++/5.2.1/bits/stl_algobase.h **** 
  59:/opt/gcc-arm-none-eabi-5_2-2015q4/arm-none-eabi/include/c++/5.2.1/bits/stl_algobase.h **** #include <bits/c++config.h>
  60:/opt/gcc-arm-none-eabi-5_2-2015q4/arm-none-eabi/include/c++/5.2.1/bits/stl_algobase.h **** #include <bits/functexcept.h>
  61:/opt/gcc-arm-none-eabi-5_2-2015q4/arm-none-eabi/include/c++/5.2.1/bits/stl_algobase.h **** #include <bits/cpp_type_traits.h>
  62:/opt/gcc-arm-none-eabi-5_2-2015q4/arm-none-eabi/include/c++/5.2.1/bits/stl_algobase.h **** #include <ext/type_traits.h>
  63:/opt/gcc-arm-none-eabi-5_2-2015q4/arm-none-eabi/include/c++/5.2.1/bits/stl_algobase.h **** #include <ext/numeric_traits.h>
  64:/opt/gcc-arm-none-eabi-5_2-2015q4/arm-none-eabi/include/c++/5.2.1/bits/stl_algobase.h **** #include <bits/stl_pair.h>
  65:/opt/gcc-arm-none-eabi-5_2-2015q4/arm-none-eabi/include/c++/5.2.1/bits/stl_algobase.h **** #include <bits/stl_iterator_base_types.h>
  66:/opt/gcc-arm-none-eabi-5_2-2015q4/arm-none-eabi/include/c++/5.2.1/bits/stl_algobase.h **** #include <bits/stl_iterator_base_funcs.h>
  67:/opt/gcc-arm-none-eabi-5_2-2015q4/arm-none-eabi/include/c++/5.2.1/bits/stl_algobase.h **** #include <bits/stl_iterator.h>
  68:/opt/gcc-arm-none-eabi-5_2-2015q4/arm-none-eabi/include/c++/5.2.1/bits/stl_algobase.h **** #include <bits/concept_check.h>
  69:/opt/gcc-arm-none-eabi-5_2-2015q4/arm-none-eabi/include/c++/5.2.1/bits/stl_algobase.h **** #include <debug/debug.h>
  70:/opt/gcc-arm-none-eabi-5_2-2015q4/arm-none-eabi/include/c++/5.2.1/bits/stl_algobase.h **** #include <bits/move.h> // For std::swap and _GLIBCXX_MOVE
  71:/opt/gcc-arm-none-eabi-5_2-2015q4/arm-none-eabi/include/c++/5.2.1/bits/stl_algobase.h **** #include <bits/predefined_ops.h>
  72:/opt/gcc-arm-none-eabi-5_2-2015q4/arm-none-eabi/include/c++/5.2.1/bits/stl_algobase.h **** 
  73:/opt/gcc-arm-none-eabi-5_2-2015q4/arm-none-eabi/include/c++/5.2.1/bits/stl_algobase.h **** namespace std _GLIBCXX_VISIBILITY(default)
  74:/opt/gcc-arm-none-eabi-5_2-2015q4/arm-none-eabi/include/c++/5.2.1/bits/stl_algobase.h **** {
  75:/opt/gcc-arm-none-eabi-5_2-2015q4/arm-none-eabi/include/c++/5.2.1/bits/stl_algobase.h **** _GLIBCXX_BEGIN_NAMESPACE_VERSION
  76:/opt/gcc-arm-none-eabi-5_2-2015q4/arm-none-eabi/include/c++/5.2.1/bits/stl_algobase.h **** 
  77:/opt/gcc-arm-none-eabi-5_2-2015q4/arm-none-eabi/include/c++/5.2.1/bits/stl_algobase.h **** #if __cplusplus < 201103L
  78:/opt/gcc-arm-none-eabi-5_2-2015q4/arm-none-eabi/include/c++/5.2.1/bits/stl_algobase.h ****   // See http://gcc.gnu.org/ml/libstdc++/2004-08/msg00167.html: in a
  79:/opt/gcc-arm-none-eabi-5_2-2015q4/arm-none-eabi/include/c++/5.2.1/bits/stl_algobase.h ****   // nutshell, we are partially implementing the resolution of DR 187,
  80:/opt/gcc-arm-none-eabi-5_2-2015q4/arm-none-eabi/include/c++/5.2.1/bits/stl_algobase.h ****   // when it's safe, i.e., the value_types are equal.
  81:/opt/gcc-arm-none-eabi-5_2-2015q4/arm-none-eabi/include/c++/5.2.1/bits/stl_algobase.h ****   template<bool _BoolType>
  82:/opt/gcc-arm-none-eabi-5_2-2015q4/arm-none-eabi/include/c++/5.2.1/bits/stl_algobase.h ****     struct __iter_swap
  83:/opt/gcc-arm-none-eabi-5_2-2015q4/arm-none-eabi/include/c++/5.2.1/bits/stl_algobase.h ****     {
  84:/opt/gcc-arm-none-eabi-5_2-2015q4/arm-none-eabi/include/c++/5.2.1/bits/stl_algobase.h ****       template<typename _ForwardIterator1, typename _ForwardIterator2>
  85:/opt/gcc-arm-none-eabi-5_2-2015q4/arm-none-eabi/include/c++/5.2.1/bits/stl_algobase.h ****         static void
  86:/opt/gcc-arm-none-eabi-5_2-2015q4/arm-none-eabi/include/c++/5.2.1/bits/stl_algobase.h ****         iter_swap(_ForwardIterator1 __a, _ForwardIterator2 __b)
  87:/opt/gcc-arm-none-eabi-5_2-2015q4/arm-none-eabi/include/c++/5.2.1/bits/stl_algobase.h ****         {
  88:/opt/gcc-arm-none-eabi-5_2-2015q4/arm-none-eabi/include/c++/5.2.1/bits/stl_algobase.h ****           typedef typename iterator_traits<_ForwardIterator1>::value_type
  89:/opt/gcc-arm-none-eabi-5_2-2015q4/arm-none-eabi/include/c++/5.2.1/bits/stl_algobase.h ****             _ValueType1;
  90:/opt/gcc-arm-none-eabi-5_2-2015q4/arm-none-eabi/include/c++/5.2.1/bits/stl_algobase.h ****           _ValueType1 __tmp = _GLIBCXX_MOVE(*__a);
  91:/opt/gcc-arm-none-eabi-5_2-2015q4/arm-none-eabi/include/c++/5.2.1/bits/stl_algobase.h ****           *__a = _GLIBCXX_MOVE(*__b);
  92:/opt/gcc-arm-none-eabi-5_2-2015q4/arm-none-eabi/include/c++/5.2.1/bits/stl_algobase.h ****           *__b = _GLIBCXX_MOVE(__tmp);
  93:/opt/gcc-arm-none-eabi-5_2-2015q4/arm-none-eabi/include/c++/5.2.1/bits/stl_algobase.h **** 	}
  94:/opt/gcc-arm-none-eabi-5_2-2015q4/arm-none-eabi/include/c++/5.2.1/bits/stl_algobase.h ****     };
  95:/opt/gcc-arm-none-eabi-5_2-2015q4/arm-none-eabi/include/c++/5.2.1/bits/stl_algobase.h **** 
  96:/opt/gcc-arm-none-eabi-5_2-2015q4/arm-none-eabi/include/c++/5.2.1/bits/stl_algobase.h ****   template<>
  97:/opt/gcc-arm-none-eabi-5_2-2015q4/arm-none-eabi/include/c++/5.2.1/bits/stl_algobase.h ****     struct __iter_swap<true>
  98:/opt/gcc-arm-none-eabi-5_2-2015q4/arm-none-eabi/include/c++/5.2.1/bits/stl_algobase.h ****     {
  99:/opt/gcc-arm-none-eabi-5_2-2015q4/arm-none-eabi/include/c++/5.2.1/bits/stl_algobase.h ****       template<typename _ForwardIterator1, typename _ForwardIterator2>
 100:/opt/gcc-arm-none-eabi-5_2-2015q4/arm-none-eabi/include/c++/5.2.1/bits/stl_algobase.h ****         static void 
 101:/opt/gcc-arm-none-eabi-5_2-2015q4/arm-none-eabi/include/c++/5.2.1/bits/stl_algobase.h ****         iter_swap(_ForwardIterator1 __a, _ForwardIterator2 __b)
 102:/opt/gcc-arm-none-eabi-5_2-2015q4/arm-none-eabi/include/c++/5.2.1/bits/stl_algobase.h ****         {
 103:/opt/gcc-arm-none-eabi-5_2-2015q4/arm-none-eabi/include/c++/5.2.1/bits/stl_algobase.h ****           swap(*__a, *__b);
 104:/opt/gcc-arm-none-eabi-5_2-2015q4/arm-none-eabi/include/c++/5.2.1/bits/stl_algobase.h ****         }
 105:/opt/gcc-arm-none-eabi-5_2-2015q4/arm-none-eabi/include/c++/5.2.1/bits/stl_algobase.h ****     };
 106:/opt/gcc-arm-none-eabi-5_2-2015q4/arm-none-eabi/include/c++/5.2.1/bits/stl_algobase.h **** #endif
 107:/opt/gcc-arm-none-eabi-5_2-2015q4/arm-none-eabi/include/c++/5.2.1/bits/stl_algobase.h **** 
 108:/opt/gcc-arm-none-eabi-5_2-2015q4/arm-none-eabi/include/c++/5.2.1/bits/stl_algobase.h ****   /**
 109:/opt/gcc-arm-none-eabi-5_2-2015q4/arm-none-eabi/include/c++/5.2.1/bits/stl_algobase.h ****    *  @brief Swaps the contents of two iterators.
 110:/opt/gcc-arm-none-eabi-5_2-2015q4/arm-none-eabi/include/c++/5.2.1/bits/stl_algobase.h ****    *  @ingroup mutating_algorithms
 111:/opt/gcc-arm-none-eabi-5_2-2015q4/arm-none-eabi/include/c++/5.2.1/bits/stl_algobase.h ****    *  @param  __a  An iterator.
 112:/opt/gcc-arm-none-eabi-5_2-2015q4/arm-none-eabi/include/c++/5.2.1/bits/stl_algobase.h ****    *  @param  __b  Another iterator.
 113:/opt/gcc-arm-none-eabi-5_2-2015q4/arm-none-eabi/include/c++/5.2.1/bits/stl_algobase.h ****    *  @return   Nothing.
 114:/opt/gcc-arm-none-eabi-5_2-2015q4/arm-none-eabi/include/c++/5.2.1/bits/stl_algobase.h ****    *
 115:/opt/gcc-arm-none-eabi-5_2-2015q4/arm-none-eabi/include/c++/5.2.1/bits/stl_algobase.h ****    *  This function swaps the values pointed to by two iterators, not the
 116:/opt/gcc-arm-none-eabi-5_2-2015q4/arm-none-eabi/include/c++/5.2.1/bits/stl_algobase.h ****    *  iterators themselves.
 117:/opt/gcc-arm-none-eabi-5_2-2015q4/arm-none-eabi/include/c++/5.2.1/bits/stl_algobase.h ****   */
 118:/opt/gcc-arm-none-eabi-5_2-2015q4/arm-none-eabi/include/c++/5.2.1/bits/stl_algobase.h ****   template<typename _ForwardIterator1, typename _ForwardIterator2>
 119:/opt/gcc-arm-none-eabi-5_2-2015q4/arm-none-eabi/include/c++/5.2.1/bits/stl_algobase.h ****     inline void
 120:/opt/gcc-arm-none-eabi-5_2-2015q4/arm-none-eabi/include/c++/5.2.1/bits/stl_algobase.h ****     iter_swap(_ForwardIterator1 __a, _ForwardIterator2 __b)
 121:/opt/gcc-arm-none-eabi-5_2-2015q4/arm-none-eabi/include/c++/5.2.1/bits/stl_algobase.h ****     {
 122:/opt/gcc-arm-none-eabi-5_2-2015q4/arm-none-eabi/include/c++/5.2.1/bits/stl_algobase.h ****       // concept requirements
 123:/opt/gcc-arm-none-eabi-5_2-2015q4/arm-none-eabi/include/c++/5.2.1/bits/stl_algobase.h ****       __glibcxx_function_requires(_Mutable_ForwardIteratorConcept<
 124:/opt/gcc-arm-none-eabi-5_2-2015q4/arm-none-eabi/include/c++/5.2.1/bits/stl_algobase.h **** 				  _ForwardIterator1>)
 125:/opt/gcc-arm-none-eabi-5_2-2015q4/arm-none-eabi/include/c++/5.2.1/bits/stl_algobase.h ****       __glibcxx_function_requires(_Mutable_ForwardIteratorConcept<
 126:/opt/gcc-arm-none-eabi-5_2-2015q4/arm-none-eabi/include/c++/5.2.1/bits/stl_algobase.h **** 				  _ForwardIterator2>)
 127:/opt/gcc-arm-none-eabi-5_2-2015q4/arm-none-eabi/include/c++/5.2.1/bits/stl_algobase.h **** 
 128:/opt/gcc-arm-none-eabi-5_2-2015q4/arm-none-eabi/include/c++/5.2.1/bits/stl_algobase.h **** #if __cplusplus < 201103L
 129:/opt/gcc-arm-none-eabi-5_2-2015q4/arm-none-eabi/include/c++/5.2.1/bits/stl_algobase.h ****       typedef typename iterator_traits<_ForwardIterator1>::value_type
 130:/opt/gcc-arm-none-eabi-5_2-2015q4/arm-none-eabi/include/c++/5.2.1/bits/stl_algobase.h **** 	_ValueType1;
 131:/opt/gcc-arm-none-eabi-5_2-2015q4/arm-none-eabi/include/c++/5.2.1/bits/stl_algobase.h ****       typedef typename iterator_traits<_ForwardIterator2>::value_type
 132:/opt/gcc-arm-none-eabi-5_2-2015q4/arm-none-eabi/include/c++/5.2.1/bits/stl_algobase.h **** 	_ValueType2;
 133:/opt/gcc-arm-none-eabi-5_2-2015q4/arm-none-eabi/include/c++/5.2.1/bits/stl_algobase.h **** 
 134:/opt/gcc-arm-none-eabi-5_2-2015q4/arm-none-eabi/include/c++/5.2.1/bits/stl_algobase.h ****       __glibcxx_function_requires(_ConvertibleConcept<_ValueType1,
 135:/opt/gcc-arm-none-eabi-5_2-2015q4/arm-none-eabi/include/c++/5.2.1/bits/stl_algobase.h **** 				  _ValueType2>)
 136:/opt/gcc-arm-none-eabi-5_2-2015q4/arm-none-eabi/include/c++/5.2.1/bits/stl_algobase.h ****       __glibcxx_function_requires(_ConvertibleConcept<_ValueType2,
 137:/opt/gcc-arm-none-eabi-5_2-2015q4/arm-none-eabi/include/c++/5.2.1/bits/stl_algobase.h **** 				  _ValueType1>)
 138:/opt/gcc-arm-none-eabi-5_2-2015q4/arm-none-eabi/include/c++/5.2.1/bits/stl_algobase.h **** 
 139:/opt/gcc-arm-none-eabi-5_2-2015q4/arm-none-eabi/include/c++/5.2.1/bits/stl_algobase.h ****       typedef typename iterator_traits<_ForwardIterator1>::reference
 140:/opt/gcc-arm-none-eabi-5_2-2015q4/arm-none-eabi/include/c++/5.2.1/bits/stl_algobase.h **** 	_ReferenceType1;
 141:/opt/gcc-arm-none-eabi-5_2-2015q4/arm-none-eabi/include/c++/5.2.1/bits/stl_algobase.h ****       typedef typename iterator_traits<_ForwardIterator2>::reference
 142:/opt/gcc-arm-none-eabi-5_2-2015q4/arm-none-eabi/include/c++/5.2.1/bits/stl_algobase.h **** 	_ReferenceType2;
 143:/opt/gcc-arm-none-eabi-5_2-2015q4/arm-none-eabi/include/c++/5.2.1/bits/stl_algobase.h ****       std::__iter_swap<__are_same<_ValueType1, _ValueType2>::__value
 144:/opt/gcc-arm-none-eabi-5_2-2015q4/arm-none-eabi/include/c++/5.2.1/bits/stl_algobase.h **** 	&& __are_same<_ValueType1&, _ReferenceType1>::__value
 145:/opt/gcc-arm-none-eabi-5_2-2015q4/arm-none-eabi/include/c++/5.2.1/bits/stl_algobase.h **** 	&& __are_same<_ValueType2&, _ReferenceType2>::__value>::
 146:/opt/gcc-arm-none-eabi-5_2-2015q4/arm-none-eabi/include/c++/5.2.1/bits/stl_algobase.h **** 	iter_swap(__a, __b);
 147:/opt/gcc-arm-none-eabi-5_2-2015q4/arm-none-eabi/include/c++/5.2.1/bits/stl_algobase.h **** #else
 148:/opt/gcc-arm-none-eabi-5_2-2015q4/arm-none-eabi/include/c++/5.2.1/bits/stl_algobase.h ****       swap(*__a, *__b);
 149:/opt/gcc-arm-none-eabi-5_2-2015q4/arm-none-eabi/include/c++/5.2.1/bits/stl_algobase.h **** #endif
 150:/opt/gcc-arm-none-eabi-5_2-2015q4/arm-none-eabi/include/c++/5.2.1/bits/stl_algobase.h ****     }
 151:/opt/gcc-arm-none-eabi-5_2-2015q4/arm-none-eabi/include/c++/5.2.1/bits/stl_algobase.h **** 
 152:/opt/gcc-arm-none-eabi-5_2-2015q4/arm-none-eabi/include/c++/5.2.1/bits/stl_algobase.h ****   /**
 153:/opt/gcc-arm-none-eabi-5_2-2015q4/arm-none-eabi/include/c++/5.2.1/bits/stl_algobase.h ****    *  @brief Swap the elements of two sequences.
 154:/opt/gcc-arm-none-eabi-5_2-2015q4/arm-none-eabi/include/c++/5.2.1/bits/stl_algobase.h ****    *  @ingroup mutating_algorithms
 155:/opt/gcc-arm-none-eabi-5_2-2015q4/arm-none-eabi/include/c++/5.2.1/bits/stl_algobase.h ****    *  @param  __first1  A forward iterator.
 156:/opt/gcc-arm-none-eabi-5_2-2015q4/arm-none-eabi/include/c++/5.2.1/bits/stl_algobase.h ****    *  @param  __last1   A forward iterator.
 157:/opt/gcc-arm-none-eabi-5_2-2015q4/arm-none-eabi/include/c++/5.2.1/bits/stl_algobase.h ****    *  @param  __first2  A forward iterator.
 158:/opt/gcc-arm-none-eabi-5_2-2015q4/arm-none-eabi/include/c++/5.2.1/bits/stl_algobase.h ****    *  @return   An iterator equal to @p first2+(last1-first1).
 159:/opt/gcc-arm-none-eabi-5_2-2015q4/arm-none-eabi/include/c++/5.2.1/bits/stl_algobase.h ****    *
 160:/opt/gcc-arm-none-eabi-5_2-2015q4/arm-none-eabi/include/c++/5.2.1/bits/stl_algobase.h ****    *  Swaps each element in the range @p [first1,last1) with the
 161:/opt/gcc-arm-none-eabi-5_2-2015q4/arm-none-eabi/include/c++/5.2.1/bits/stl_algobase.h ****    *  corresponding element in the range @p [first2,(last1-first1)).
 162:/opt/gcc-arm-none-eabi-5_2-2015q4/arm-none-eabi/include/c++/5.2.1/bits/stl_algobase.h ****    *  The ranges must not overlap.
 163:/opt/gcc-arm-none-eabi-5_2-2015q4/arm-none-eabi/include/c++/5.2.1/bits/stl_algobase.h ****   */
 164:/opt/gcc-arm-none-eabi-5_2-2015q4/arm-none-eabi/include/c++/5.2.1/bits/stl_algobase.h ****   template<typename _ForwardIterator1, typename _ForwardIterator2>
 165:/opt/gcc-arm-none-eabi-5_2-2015q4/arm-none-eabi/include/c++/5.2.1/bits/stl_algobase.h ****     _ForwardIterator2
 166:/opt/gcc-arm-none-eabi-5_2-2015q4/arm-none-eabi/include/c++/5.2.1/bits/stl_algobase.h ****     swap_ranges(_ForwardIterator1 __first1, _ForwardIterator1 __last1,
 167:/opt/gcc-arm-none-eabi-5_2-2015q4/arm-none-eabi/include/c++/5.2.1/bits/stl_algobase.h **** 		_ForwardIterator2 __first2)
 168:/opt/gcc-arm-none-eabi-5_2-2015q4/arm-none-eabi/include/c++/5.2.1/bits/stl_algobase.h ****     {
 169:/opt/gcc-arm-none-eabi-5_2-2015q4/arm-none-eabi/include/c++/5.2.1/bits/stl_algobase.h ****       // concept requirements
 170:/opt/gcc-arm-none-eabi-5_2-2015q4/arm-none-eabi/include/c++/5.2.1/bits/stl_algobase.h ****       __glibcxx_function_requires(_Mutable_ForwardIteratorConcept<
 171:/opt/gcc-arm-none-eabi-5_2-2015q4/arm-none-eabi/include/c++/5.2.1/bits/stl_algobase.h **** 				  _ForwardIterator1>)
 172:/opt/gcc-arm-none-eabi-5_2-2015q4/arm-none-eabi/include/c++/5.2.1/bits/stl_algobase.h ****       __glibcxx_function_requires(_Mutable_ForwardIteratorConcept<
 173:/opt/gcc-arm-none-eabi-5_2-2015q4/arm-none-eabi/include/c++/5.2.1/bits/stl_algobase.h **** 				  _ForwardIterator2>)
 174:/opt/gcc-arm-none-eabi-5_2-2015q4/arm-none-eabi/include/c++/5.2.1/bits/stl_algobase.h ****       __glibcxx_requires_valid_range(__first1, __last1);
 175:/opt/gcc-arm-none-eabi-5_2-2015q4/arm-none-eabi/include/c++/5.2.1/bits/stl_algobase.h **** 
 176:/opt/gcc-arm-none-eabi-5_2-2015q4/arm-none-eabi/include/c++/5.2.1/bits/stl_algobase.h ****       for (; __first1 != __last1; ++__first1, ++__first2)
 177:/opt/gcc-arm-none-eabi-5_2-2015q4/arm-none-eabi/include/c++/5.2.1/bits/stl_algobase.h **** 	std::iter_swap(__first1, __first2);
 178:/opt/gcc-arm-none-eabi-5_2-2015q4/arm-none-eabi/include/c++/5.2.1/bits/stl_algobase.h ****       return __first2;
 179:/opt/gcc-arm-none-eabi-5_2-2015q4/arm-none-eabi/include/c++/5.2.1/bits/stl_algobase.h ****     }
 180:/opt/gcc-arm-none-eabi-5_2-2015q4/arm-none-eabi/include/c++/5.2.1/bits/stl_algobase.h **** 
 181:/opt/gcc-arm-none-eabi-5_2-2015q4/arm-none-eabi/include/c++/5.2.1/bits/stl_algobase.h ****   /**
 182:/opt/gcc-arm-none-eabi-5_2-2015q4/arm-none-eabi/include/c++/5.2.1/bits/stl_algobase.h ****    *  @brief This does what you think it does.
 183:/opt/gcc-arm-none-eabi-5_2-2015q4/arm-none-eabi/include/c++/5.2.1/bits/stl_algobase.h ****    *  @ingroup sorting_algorithms
 184:/opt/gcc-arm-none-eabi-5_2-2015q4/arm-none-eabi/include/c++/5.2.1/bits/stl_algobase.h ****    *  @param  __a  A thing of arbitrary type.
 185:/opt/gcc-arm-none-eabi-5_2-2015q4/arm-none-eabi/include/c++/5.2.1/bits/stl_algobase.h ****    *  @param  __b  Another thing of arbitrary type.
 186:/opt/gcc-arm-none-eabi-5_2-2015q4/arm-none-eabi/include/c++/5.2.1/bits/stl_algobase.h ****    *  @return   The lesser of the parameters.
 187:/opt/gcc-arm-none-eabi-5_2-2015q4/arm-none-eabi/include/c++/5.2.1/bits/stl_algobase.h ****    *
 188:/opt/gcc-arm-none-eabi-5_2-2015q4/arm-none-eabi/include/c++/5.2.1/bits/stl_algobase.h ****    *  This is the simple classic generic implementation.  It will work on
 189:/opt/gcc-arm-none-eabi-5_2-2015q4/arm-none-eabi/include/c++/5.2.1/bits/stl_algobase.h ****    *  temporary expressions, since they are only evaluated once, unlike a
 190:/opt/gcc-arm-none-eabi-5_2-2015q4/arm-none-eabi/include/c++/5.2.1/bits/stl_algobase.h ****    *  preprocessor macro.
 191:/opt/gcc-arm-none-eabi-5_2-2015q4/arm-none-eabi/include/c++/5.2.1/bits/stl_algobase.h ****   */
 192:/opt/gcc-arm-none-eabi-5_2-2015q4/arm-none-eabi/include/c++/5.2.1/bits/stl_algobase.h ****   template<typename _Tp>
 193:/opt/gcc-arm-none-eabi-5_2-2015q4/arm-none-eabi/include/c++/5.2.1/bits/stl_algobase.h ****     _GLIBCXX14_CONSTEXPR
 194:/opt/gcc-arm-none-eabi-5_2-2015q4/arm-none-eabi/include/c++/5.2.1/bits/stl_algobase.h ****     inline const _Tp&
 195:/opt/gcc-arm-none-eabi-5_2-2015q4/arm-none-eabi/include/c++/5.2.1/bits/stl_algobase.h ****     min(const _Tp& __a, const _Tp& __b)
 196:/opt/gcc-arm-none-eabi-5_2-2015q4/arm-none-eabi/include/c++/5.2.1/bits/stl_algobase.h ****     {
 197:/opt/gcc-arm-none-eabi-5_2-2015q4/arm-none-eabi/include/c++/5.2.1/bits/stl_algobase.h ****       // concept requirements
 198:/opt/gcc-arm-none-eabi-5_2-2015q4/arm-none-eabi/include/c++/5.2.1/bits/stl_algobase.h ****       __glibcxx_function_requires(_LessThanComparableConcept<_Tp>)
 199:/opt/gcc-arm-none-eabi-5_2-2015q4/arm-none-eabi/include/c++/5.2.1/bits/stl_algobase.h ****       //return __b < __a ? __b : __a;
 200:/opt/gcc-arm-none-eabi-5_2-2015q4/arm-none-eabi/include/c++/5.2.1/bits/stl_algobase.h ****       if (__b < __a)
 201:/opt/gcc-arm-none-eabi-5_2-2015q4/arm-none-eabi/include/c++/5.2.1/bits/stl_algobase.h **** 	return __b;
 202:/opt/gcc-arm-none-eabi-5_2-2015q4/arm-none-eabi/include/c++/5.2.1/bits/stl_algobase.h ****       return __a;
 203:/opt/gcc-arm-none-eabi-5_2-2015q4/arm-none-eabi/include/c++/5.2.1/bits/stl_algobase.h ****     }
 204:/opt/gcc-arm-none-eabi-5_2-2015q4/arm-none-eabi/include/c++/5.2.1/bits/stl_algobase.h **** 
 205:/opt/gcc-arm-none-eabi-5_2-2015q4/arm-none-eabi/include/c++/5.2.1/bits/stl_algobase.h ****   /**
 206:/opt/gcc-arm-none-eabi-5_2-2015q4/arm-none-eabi/include/c++/5.2.1/bits/stl_algobase.h ****    *  @brief This does what you think it does.
 207:/opt/gcc-arm-none-eabi-5_2-2015q4/arm-none-eabi/include/c++/5.2.1/bits/stl_algobase.h ****    *  @ingroup sorting_algorithms
 208:/opt/gcc-arm-none-eabi-5_2-2015q4/arm-none-eabi/include/c++/5.2.1/bits/stl_algobase.h ****    *  @param  __a  A thing of arbitrary type.
 209:/opt/gcc-arm-none-eabi-5_2-2015q4/arm-none-eabi/include/c++/5.2.1/bits/stl_algobase.h ****    *  @param  __b  Another thing of arbitrary type.
 210:/opt/gcc-arm-none-eabi-5_2-2015q4/arm-none-eabi/include/c++/5.2.1/bits/stl_algobase.h ****    *  @return   The greater of the parameters.
 211:/opt/gcc-arm-none-eabi-5_2-2015q4/arm-none-eabi/include/c++/5.2.1/bits/stl_algobase.h ****    *
 212:/opt/gcc-arm-none-eabi-5_2-2015q4/arm-none-eabi/include/c++/5.2.1/bits/stl_algobase.h ****    *  This is the simple classic generic implementation.  It will work on
 213:/opt/gcc-arm-none-eabi-5_2-2015q4/arm-none-eabi/include/c++/5.2.1/bits/stl_algobase.h ****    *  temporary expressions, since they are only evaluated once, unlike a
 214:/opt/gcc-arm-none-eabi-5_2-2015q4/arm-none-eabi/include/c++/5.2.1/bits/stl_algobase.h ****    *  preprocessor macro.
 215:/opt/gcc-arm-none-eabi-5_2-2015q4/arm-none-eabi/include/c++/5.2.1/bits/stl_algobase.h ****   */
 216:/opt/gcc-arm-none-eabi-5_2-2015q4/arm-none-eabi/include/c++/5.2.1/bits/stl_algobase.h ****   template<typename _Tp>
 217:/opt/gcc-arm-none-eabi-5_2-2015q4/arm-none-eabi/include/c++/5.2.1/bits/stl_algobase.h ****     _GLIBCXX14_CONSTEXPR
 218:/opt/gcc-arm-none-eabi-5_2-2015q4/arm-none-eabi/include/c++/5.2.1/bits/stl_algobase.h ****     inline const _Tp&
 219:/opt/gcc-arm-none-eabi-5_2-2015q4/arm-none-eabi/include/c++/5.2.1/bits/stl_algobase.h ****     max(const _Tp& __a, const _Tp& __b)
 220:/opt/gcc-arm-none-eabi-5_2-2015q4/arm-none-eabi/include/c++/5.2.1/bits/stl_algobase.h ****     {
 221:/opt/gcc-arm-none-eabi-5_2-2015q4/arm-none-eabi/include/c++/5.2.1/bits/stl_algobase.h ****       // concept requirements
 222:/opt/gcc-arm-none-eabi-5_2-2015q4/arm-none-eabi/include/c++/5.2.1/bits/stl_algobase.h ****       __glibcxx_function_requires(_LessThanComparableConcept<_Tp>)
 223:/opt/gcc-arm-none-eabi-5_2-2015q4/arm-none-eabi/include/c++/5.2.1/bits/stl_algobase.h ****       //return  __a < __b ? __b : __a;
 224:/opt/gcc-arm-none-eabi-5_2-2015q4/arm-none-eabi/include/c++/5.2.1/bits/stl_algobase.h ****       if (__a < __b)
 225:/opt/gcc-arm-none-eabi-5_2-2015q4/arm-none-eabi/include/c++/5.2.1/bits/stl_algobase.h **** 	return __b;
 226:/opt/gcc-arm-none-eabi-5_2-2015q4/arm-none-eabi/include/c++/5.2.1/bits/stl_algobase.h ****       return __a;
 227:/opt/gcc-arm-none-eabi-5_2-2015q4/arm-none-eabi/include/c++/5.2.1/bits/stl_algobase.h ****     }
 228:/opt/gcc-arm-none-eabi-5_2-2015q4/arm-none-eabi/include/c++/5.2.1/bits/stl_algobase.h **** 
 229:/opt/gcc-arm-none-eabi-5_2-2015q4/arm-none-eabi/include/c++/5.2.1/bits/stl_algobase.h ****   /**
 230:/opt/gcc-arm-none-eabi-5_2-2015q4/arm-none-eabi/include/c++/5.2.1/bits/stl_algobase.h ****    *  @brief This does what you think it does.
 231:/opt/gcc-arm-none-eabi-5_2-2015q4/arm-none-eabi/include/c++/5.2.1/bits/stl_algobase.h ****    *  @ingroup sorting_algorithms
 232:/opt/gcc-arm-none-eabi-5_2-2015q4/arm-none-eabi/include/c++/5.2.1/bits/stl_algobase.h ****    *  @param  __a  A thing of arbitrary type.
 233:/opt/gcc-arm-none-eabi-5_2-2015q4/arm-none-eabi/include/c++/5.2.1/bits/stl_algobase.h ****    *  @param  __b  Another thing of arbitrary type.
 234:/opt/gcc-arm-none-eabi-5_2-2015q4/arm-none-eabi/include/c++/5.2.1/bits/stl_algobase.h ****    *  @param  __comp  A @link comparison_functors comparison functor@endlink.
 235:/opt/gcc-arm-none-eabi-5_2-2015q4/arm-none-eabi/include/c++/5.2.1/bits/stl_algobase.h ****    *  @return   The lesser of the parameters.
 236:/opt/gcc-arm-none-eabi-5_2-2015q4/arm-none-eabi/include/c++/5.2.1/bits/stl_algobase.h ****    *
 237:/opt/gcc-arm-none-eabi-5_2-2015q4/arm-none-eabi/include/c++/5.2.1/bits/stl_algobase.h ****    *  This will work on temporary expressions, since they are only evaluated
 238:/opt/gcc-arm-none-eabi-5_2-2015q4/arm-none-eabi/include/c++/5.2.1/bits/stl_algobase.h ****    *  once, unlike a preprocessor macro.
 239:/opt/gcc-arm-none-eabi-5_2-2015q4/arm-none-eabi/include/c++/5.2.1/bits/stl_algobase.h ****   */
 240:/opt/gcc-arm-none-eabi-5_2-2015q4/arm-none-eabi/include/c++/5.2.1/bits/stl_algobase.h ****   template<typename _Tp, typename _Compare>
 241:/opt/gcc-arm-none-eabi-5_2-2015q4/arm-none-eabi/include/c++/5.2.1/bits/stl_algobase.h ****     _GLIBCXX14_CONSTEXPR
 242:/opt/gcc-arm-none-eabi-5_2-2015q4/arm-none-eabi/include/c++/5.2.1/bits/stl_algobase.h ****     inline const _Tp&
 243:/opt/gcc-arm-none-eabi-5_2-2015q4/arm-none-eabi/include/c++/5.2.1/bits/stl_algobase.h ****     min(const _Tp& __a, const _Tp& __b, _Compare __comp)
 244:/opt/gcc-arm-none-eabi-5_2-2015q4/arm-none-eabi/include/c++/5.2.1/bits/stl_algobase.h ****     {
 245:/opt/gcc-arm-none-eabi-5_2-2015q4/arm-none-eabi/include/c++/5.2.1/bits/stl_algobase.h ****       //return __comp(__b, __a) ? __b : __a;
 246:/opt/gcc-arm-none-eabi-5_2-2015q4/arm-none-eabi/include/c++/5.2.1/bits/stl_algobase.h ****       if (__comp(__b, __a))
 247:/opt/gcc-arm-none-eabi-5_2-2015q4/arm-none-eabi/include/c++/5.2.1/bits/stl_algobase.h **** 	return __b;
 248:/opt/gcc-arm-none-eabi-5_2-2015q4/arm-none-eabi/include/c++/5.2.1/bits/stl_algobase.h ****       return __a;
 249:/opt/gcc-arm-none-eabi-5_2-2015q4/arm-none-eabi/include/c++/5.2.1/bits/stl_algobase.h ****     }
 250:/opt/gcc-arm-none-eabi-5_2-2015q4/arm-none-eabi/include/c++/5.2.1/bits/stl_algobase.h **** 
 251:/opt/gcc-arm-none-eabi-5_2-2015q4/arm-none-eabi/include/c++/5.2.1/bits/stl_algobase.h ****   /**
 252:/opt/gcc-arm-none-eabi-5_2-2015q4/arm-none-eabi/include/c++/5.2.1/bits/stl_algobase.h ****    *  @brief This does what you think it does.
 253:/opt/gcc-arm-none-eabi-5_2-2015q4/arm-none-eabi/include/c++/5.2.1/bits/stl_algobase.h ****    *  @ingroup sorting_algorithms
 254:/opt/gcc-arm-none-eabi-5_2-2015q4/arm-none-eabi/include/c++/5.2.1/bits/stl_algobase.h ****    *  @param  __a  A thing of arbitrary type.
 255:/opt/gcc-arm-none-eabi-5_2-2015q4/arm-none-eabi/include/c++/5.2.1/bits/stl_algobase.h ****    *  @param  __b  Another thing of arbitrary type.
 256:/opt/gcc-arm-none-eabi-5_2-2015q4/arm-none-eabi/include/c++/5.2.1/bits/stl_algobase.h ****    *  @param  __comp  A @link comparison_functors comparison functor@endlink.
 257:/opt/gcc-arm-none-eabi-5_2-2015q4/arm-none-eabi/include/c++/5.2.1/bits/stl_algobase.h ****    *  @return   The greater of the parameters.
 258:/opt/gcc-arm-none-eabi-5_2-2015q4/arm-none-eabi/include/c++/5.2.1/bits/stl_algobase.h ****    *
 259:/opt/gcc-arm-none-eabi-5_2-2015q4/arm-none-eabi/include/c++/5.2.1/bits/stl_algobase.h ****    *  This will work on temporary expressions, since they are only evaluated
 260:/opt/gcc-arm-none-eabi-5_2-2015q4/arm-none-eabi/include/c++/5.2.1/bits/stl_algobase.h ****    *  once, unlike a preprocessor macro.
 261:/opt/gcc-arm-none-eabi-5_2-2015q4/arm-none-eabi/include/c++/5.2.1/bits/stl_algobase.h ****   */
 262:/opt/gcc-arm-none-eabi-5_2-2015q4/arm-none-eabi/include/c++/5.2.1/bits/stl_algobase.h ****   template<typename _Tp, typename _Compare>
 263:/opt/gcc-arm-none-eabi-5_2-2015q4/arm-none-eabi/include/c++/5.2.1/bits/stl_algobase.h ****     _GLIBCXX14_CONSTEXPR
 264:/opt/gcc-arm-none-eabi-5_2-2015q4/arm-none-eabi/include/c++/5.2.1/bits/stl_algobase.h ****     inline const _Tp&
 265:/opt/gcc-arm-none-eabi-5_2-2015q4/arm-none-eabi/include/c++/5.2.1/bits/stl_algobase.h ****     max(const _Tp& __a, const _Tp& __b, _Compare __comp)
 266:/opt/gcc-arm-none-eabi-5_2-2015q4/arm-none-eabi/include/c++/5.2.1/bits/stl_algobase.h ****     {
 267:/opt/gcc-arm-none-eabi-5_2-2015q4/arm-none-eabi/include/c++/5.2.1/bits/stl_algobase.h ****       //return __comp(__a, __b) ? __b : __a;
 268:/opt/gcc-arm-none-eabi-5_2-2015q4/arm-none-eabi/include/c++/5.2.1/bits/stl_algobase.h ****       if (__comp(__a, __b))
 269:/opt/gcc-arm-none-eabi-5_2-2015q4/arm-none-eabi/include/c++/5.2.1/bits/stl_algobase.h **** 	return __b;
 270:/opt/gcc-arm-none-eabi-5_2-2015q4/arm-none-eabi/include/c++/5.2.1/bits/stl_algobase.h ****       return __a;
 271:/opt/gcc-arm-none-eabi-5_2-2015q4/arm-none-eabi/include/c++/5.2.1/bits/stl_algobase.h ****     }
 272:/opt/gcc-arm-none-eabi-5_2-2015q4/arm-none-eabi/include/c++/5.2.1/bits/stl_algobase.h **** 
 273:/opt/gcc-arm-none-eabi-5_2-2015q4/arm-none-eabi/include/c++/5.2.1/bits/stl_algobase.h ****   // If _Iterator is a __normal_iterator return its base (a plain pointer,
 274:/opt/gcc-arm-none-eabi-5_2-2015q4/arm-none-eabi/include/c++/5.2.1/bits/stl_algobase.h ****   // normally) otherwise return it untouched.  See copy, fill, ... 
 275:/opt/gcc-arm-none-eabi-5_2-2015q4/arm-none-eabi/include/c++/5.2.1/bits/stl_algobase.h ****   template<typename _Iterator>
 276:/opt/gcc-arm-none-eabi-5_2-2015q4/arm-none-eabi/include/c++/5.2.1/bits/stl_algobase.h ****     struct _Niter_base
 277:/opt/gcc-arm-none-eabi-5_2-2015q4/arm-none-eabi/include/c++/5.2.1/bits/stl_algobase.h ****     : _Iter_base<_Iterator, __is_normal_iterator<_Iterator>::__value>
 278:/opt/gcc-arm-none-eabi-5_2-2015q4/arm-none-eabi/include/c++/5.2.1/bits/stl_algobase.h ****     { };
 279:/opt/gcc-arm-none-eabi-5_2-2015q4/arm-none-eabi/include/c++/5.2.1/bits/stl_algobase.h **** 
 280:/opt/gcc-arm-none-eabi-5_2-2015q4/arm-none-eabi/include/c++/5.2.1/bits/stl_algobase.h ****   template<typename _Iterator>
 281:/opt/gcc-arm-none-eabi-5_2-2015q4/arm-none-eabi/include/c++/5.2.1/bits/stl_algobase.h ****     inline typename _Niter_base<_Iterator>::iterator_type
 282:/opt/gcc-arm-none-eabi-5_2-2015q4/arm-none-eabi/include/c++/5.2.1/bits/stl_algobase.h ****     __niter_base(_Iterator __it)
 283:/opt/gcc-arm-none-eabi-5_2-2015q4/arm-none-eabi/include/c++/5.2.1/bits/stl_algobase.h ****     { return std::_Niter_base<_Iterator>::_S_base(__it); }
 284:/opt/gcc-arm-none-eabi-5_2-2015q4/arm-none-eabi/include/c++/5.2.1/bits/stl_algobase.h **** 
 285:/opt/gcc-arm-none-eabi-5_2-2015q4/arm-none-eabi/include/c++/5.2.1/bits/stl_algobase.h ****   // Likewise, for move_iterator.
 286:/opt/gcc-arm-none-eabi-5_2-2015q4/arm-none-eabi/include/c++/5.2.1/bits/stl_algobase.h ****   template<typename _Iterator>
 287:/opt/gcc-arm-none-eabi-5_2-2015q4/arm-none-eabi/include/c++/5.2.1/bits/stl_algobase.h ****     struct _Miter_base
 288:/opt/gcc-arm-none-eabi-5_2-2015q4/arm-none-eabi/include/c++/5.2.1/bits/stl_algobase.h ****     : _Iter_base<_Iterator, __is_move_iterator<_Iterator>::__value>
 289:/opt/gcc-arm-none-eabi-5_2-2015q4/arm-none-eabi/include/c++/5.2.1/bits/stl_algobase.h ****     { };
 290:/opt/gcc-arm-none-eabi-5_2-2015q4/arm-none-eabi/include/c++/5.2.1/bits/stl_algobase.h **** 
 291:/opt/gcc-arm-none-eabi-5_2-2015q4/arm-none-eabi/include/c++/5.2.1/bits/stl_algobase.h ****   template<typename _Iterator>
 292:/opt/gcc-arm-none-eabi-5_2-2015q4/arm-none-eabi/include/c++/5.2.1/bits/stl_algobase.h ****     inline typename _Miter_base<_Iterator>::iterator_type
 293:/opt/gcc-arm-none-eabi-5_2-2015q4/arm-none-eabi/include/c++/5.2.1/bits/stl_algobase.h ****     __miter_base(_Iterator __it)
 294:/opt/gcc-arm-none-eabi-5_2-2015q4/arm-none-eabi/include/c++/5.2.1/bits/stl_algobase.h ****     { return std::_Miter_base<_Iterator>::_S_base(__it); }
 295:/opt/gcc-arm-none-eabi-5_2-2015q4/arm-none-eabi/include/c++/5.2.1/bits/stl_algobase.h **** 
 296:/opt/gcc-arm-none-eabi-5_2-2015q4/arm-none-eabi/include/c++/5.2.1/bits/stl_algobase.h ****   // All of these auxiliary structs serve two purposes.  (1) Replace
 297:/opt/gcc-arm-none-eabi-5_2-2015q4/arm-none-eabi/include/c++/5.2.1/bits/stl_algobase.h ****   // calls to copy with memmove whenever possible.  (Memmove, not memcpy,
 298:/opt/gcc-arm-none-eabi-5_2-2015q4/arm-none-eabi/include/c++/5.2.1/bits/stl_algobase.h ****   // because the input and output ranges are permitted to overlap.)
 299:/opt/gcc-arm-none-eabi-5_2-2015q4/arm-none-eabi/include/c++/5.2.1/bits/stl_algobase.h ****   // (2) If we're using random access iterators, then write the loop as
 300:/opt/gcc-arm-none-eabi-5_2-2015q4/arm-none-eabi/include/c++/5.2.1/bits/stl_algobase.h ****   // a for loop with an explicit count.
 301:/opt/gcc-arm-none-eabi-5_2-2015q4/arm-none-eabi/include/c++/5.2.1/bits/stl_algobase.h **** 
 302:/opt/gcc-arm-none-eabi-5_2-2015q4/arm-none-eabi/include/c++/5.2.1/bits/stl_algobase.h ****   template<bool, bool, typename>
 303:/opt/gcc-arm-none-eabi-5_2-2015q4/arm-none-eabi/include/c++/5.2.1/bits/stl_algobase.h ****     struct __copy_move
 304:/opt/gcc-arm-none-eabi-5_2-2015q4/arm-none-eabi/include/c++/5.2.1/bits/stl_algobase.h ****     {
 305:/opt/gcc-arm-none-eabi-5_2-2015q4/arm-none-eabi/include/c++/5.2.1/bits/stl_algobase.h ****       template<typename _II, typename _OI>
 306:/opt/gcc-arm-none-eabi-5_2-2015q4/arm-none-eabi/include/c++/5.2.1/bits/stl_algobase.h ****         static _OI
 307:/opt/gcc-arm-none-eabi-5_2-2015q4/arm-none-eabi/include/c++/5.2.1/bits/stl_algobase.h ****         __copy_m(_II __first, _II __last, _OI __result)
 308:/opt/gcc-arm-none-eabi-5_2-2015q4/arm-none-eabi/include/c++/5.2.1/bits/stl_algobase.h ****         {
 309:/opt/gcc-arm-none-eabi-5_2-2015q4/arm-none-eabi/include/c++/5.2.1/bits/stl_algobase.h **** 	  for (; __first != __last; ++__result, ++__first)
 310:/opt/gcc-arm-none-eabi-5_2-2015q4/arm-none-eabi/include/c++/5.2.1/bits/stl_algobase.h **** 	    *__result = *__first;
 311:/opt/gcc-arm-none-eabi-5_2-2015q4/arm-none-eabi/include/c++/5.2.1/bits/stl_algobase.h **** 	  return __result;
 312:/opt/gcc-arm-none-eabi-5_2-2015q4/arm-none-eabi/include/c++/5.2.1/bits/stl_algobase.h **** 	}
 313:/opt/gcc-arm-none-eabi-5_2-2015q4/arm-none-eabi/include/c++/5.2.1/bits/stl_algobase.h ****     };
 314:/opt/gcc-arm-none-eabi-5_2-2015q4/arm-none-eabi/include/c++/5.2.1/bits/stl_algobase.h **** 
 315:/opt/gcc-arm-none-eabi-5_2-2015q4/arm-none-eabi/include/c++/5.2.1/bits/stl_algobase.h **** #if __cplusplus >= 201103L
 316:/opt/gcc-arm-none-eabi-5_2-2015q4/arm-none-eabi/include/c++/5.2.1/bits/stl_algobase.h ****   template<typename _Category>
 317:/opt/gcc-arm-none-eabi-5_2-2015q4/arm-none-eabi/include/c++/5.2.1/bits/stl_algobase.h ****     struct __copy_move<true, false, _Category>
 318:/opt/gcc-arm-none-eabi-5_2-2015q4/arm-none-eabi/include/c++/5.2.1/bits/stl_algobase.h ****     {
 319:/opt/gcc-arm-none-eabi-5_2-2015q4/arm-none-eabi/include/c++/5.2.1/bits/stl_algobase.h ****       template<typename _II, typename _OI>
 320:/opt/gcc-arm-none-eabi-5_2-2015q4/arm-none-eabi/include/c++/5.2.1/bits/stl_algobase.h ****         static _OI
 321:/opt/gcc-arm-none-eabi-5_2-2015q4/arm-none-eabi/include/c++/5.2.1/bits/stl_algobase.h ****         __copy_m(_II __first, _II __last, _OI __result)
 322:/opt/gcc-arm-none-eabi-5_2-2015q4/arm-none-eabi/include/c++/5.2.1/bits/stl_algobase.h ****         {
 323:/opt/gcc-arm-none-eabi-5_2-2015q4/arm-none-eabi/include/c++/5.2.1/bits/stl_algobase.h **** 	  for (; __first != __last; ++__result, ++__first)
 324:/opt/gcc-arm-none-eabi-5_2-2015q4/arm-none-eabi/include/c++/5.2.1/bits/stl_algobase.h **** 	    *__result = std::move(*__first);
 325:/opt/gcc-arm-none-eabi-5_2-2015q4/arm-none-eabi/include/c++/5.2.1/bits/stl_algobase.h **** 	  return __result;
 326:/opt/gcc-arm-none-eabi-5_2-2015q4/arm-none-eabi/include/c++/5.2.1/bits/stl_algobase.h **** 	}
 327:/opt/gcc-arm-none-eabi-5_2-2015q4/arm-none-eabi/include/c++/5.2.1/bits/stl_algobase.h ****     };
 328:/opt/gcc-arm-none-eabi-5_2-2015q4/arm-none-eabi/include/c++/5.2.1/bits/stl_algobase.h **** #endif
 329:/opt/gcc-arm-none-eabi-5_2-2015q4/arm-none-eabi/include/c++/5.2.1/bits/stl_algobase.h **** 
 330:/opt/gcc-arm-none-eabi-5_2-2015q4/arm-none-eabi/include/c++/5.2.1/bits/stl_algobase.h ****   template<>
 331:/opt/gcc-arm-none-eabi-5_2-2015q4/arm-none-eabi/include/c++/5.2.1/bits/stl_algobase.h ****     struct __copy_move<false, false, random_access_iterator_tag>
 332:/opt/gcc-arm-none-eabi-5_2-2015q4/arm-none-eabi/include/c++/5.2.1/bits/stl_algobase.h ****     {
 333:/opt/gcc-arm-none-eabi-5_2-2015q4/arm-none-eabi/include/c++/5.2.1/bits/stl_algobase.h ****       template<typename _II, typename _OI>
 334:/opt/gcc-arm-none-eabi-5_2-2015q4/arm-none-eabi/include/c++/5.2.1/bits/stl_algobase.h ****         static _OI
 335:/opt/gcc-arm-none-eabi-5_2-2015q4/arm-none-eabi/include/c++/5.2.1/bits/stl_algobase.h ****         __copy_m(_II __first, _II __last, _OI __result)
 336:/opt/gcc-arm-none-eabi-5_2-2015q4/arm-none-eabi/include/c++/5.2.1/bits/stl_algobase.h ****         { 
 337:/opt/gcc-arm-none-eabi-5_2-2015q4/arm-none-eabi/include/c++/5.2.1/bits/stl_algobase.h **** 	  typedef typename iterator_traits<_II>::difference_type _Distance;
 338:/opt/gcc-arm-none-eabi-5_2-2015q4/arm-none-eabi/include/c++/5.2.1/bits/stl_algobase.h **** 	  for(_Distance __n = __last - __first; __n > 0; --__n)
 339:/opt/gcc-arm-none-eabi-5_2-2015q4/arm-none-eabi/include/c++/5.2.1/bits/stl_algobase.h **** 	    {
 340:/opt/gcc-arm-none-eabi-5_2-2015q4/arm-none-eabi/include/c++/5.2.1/bits/stl_algobase.h **** 	      *__result = *__first;
 341:/opt/gcc-arm-none-eabi-5_2-2015q4/arm-none-eabi/include/c++/5.2.1/bits/stl_algobase.h **** 	      ++__first;
 342:/opt/gcc-arm-none-eabi-5_2-2015q4/arm-none-eabi/include/c++/5.2.1/bits/stl_algobase.h **** 	      ++__result;
 343:/opt/gcc-arm-none-eabi-5_2-2015q4/arm-none-eabi/include/c++/5.2.1/bits/stl_algobase.h **** 	    }
 344:/opt/gcc-arm-none-eabi-5_2-2015q4/arm-none-eabi/include/c++/5.2.1/bits/stl_algobase.h **** 	  return __result;
 345:/opt/gcc-arm-none-eabi-5_2-2015q4/arm-none-eabi/include/c++/5.2.1/bits/stl_algobase.h **** 	}
 346:/opt/gcc-arm-none-eabi-5_2-2015q4/arm-none-eabi/include/c++/5.2.1/bits/stl_algobase.h ****     };
 347:/opt/gcc-arm-none-eabi-5_2-2015q4/arm-none-eabi/include/c++/5.2.1/bits/stl_algobase.h **** 
 348:/opt/gcc-arm-none-eabi-5_2-2015q4/arm-none-eabi/include/c++/5.2.1/bits/stl_algobase.h **** #if __cplusplus >= 201103L
 349:/opt/gcc-arm-none-eabi-5_2-2015q4/arm-none-eabi/include/c++/5.2.1/bits/stl_algobase.h ****   template<>
 350:/opt/gcc-arm-none-eabi-5_2-2015q4/arm-none-eabi/include/c++/5.2.1/bits/stl_algobase.h ****     struct __copy_move<true, false, random_access_iterator_tag>
 351:/opt/gcc-arm-none-eabi-5_2-2015q4/arm-none-eabi/include/c++/5.2.1/bits/stl_algobase.h ****     {
 352:/opt/gcc-arm-none-eabi-5_2-2015q4/arm-none-eabi/include/c++/5.2.1/bits/stl_algobase.h ****       template<typename _II, typename _OI>
 353:/opt/gcc-arm-none-eabi-5_2-2015q4/arm-none-eabi/include/c++/5.2.1/bits/stl_algobase.h ****         static _OI
 354:/opt/gcc-arm-none-eabi-5_2-2015q4/arm-none-eabi/include/c++/5.2.1/bits/stl_algobase.h ****         __copy_m(_II __first, _II __last, _OI __result)
 355:/opt/gcc-arm-none-eabi-5_2-2015q4/arm-none-eabi/include/c++/5.2.1/bits/stl_algobase.h ****         { 
 356:/opt/gcc-arm-none-eabi-5_2-2015q4/arm-none-eabi/include/c++/5.2.1/bits/stl_algobase.h **** 	  typedef typename iterator_traits<_II>::difference_type _Distance;
 357:/opt/gcc-arm-none-eabi-5_2-2015q4/arm-none-eabi/include/c++/5.2.1/bits/stl_algobase.h **** 	  for(_Distance __n = __last - __first; __n > 0; --__n)
 358:/opt/gcc-arm-none-eabi-5_2-2015q4/arm-none-eabi/include/c++/5.2.1/bits/stl_algobase.h **** 	    {
 359:/opt/gcc-arm-none-eabi-5_2-2015q4/arm-none-eabi/include/c++/5.2.1/bits/stl_algobase.h **** 	      *__result = std::move(*__first);
 360:/opt/gcc-arm-none-eabi-5_2-2015q4/arm-none-eabi/include/c++/5.2.1/bits/stl_algobase.h **** 	      ++__first;
 361:/opt/gcc-arm-none-eabi-5_2-2015q4/arm-none-eabi/include/c++/5.2.1/bits/stl_algobase.h **** 	      ++__result;
 362:/opt/gcc-arm-none-eabi-5_2-2015q4/arm-none-eabi/include/c++/5.2.1/bits/stl_algobase.h **** 	    }
 363:/opt/gcc-arm-none-eabi-5_2-2015q4/arm-none-eabi/include/c++/5.2.1/bits/stl_algobase.h **** 	  return __result;
 364:/opt/gcc-arm-none-eabi-5_2-2015q4/arm-none-eabi/include/c++/5.2.1/bits/stl_algobase.h **** 	}
 365:/opt/gcc-arm-none-eabi-5_2-2015q4/arm-none-eabi/include/c++/5.2.1/bits/stl_algobase.h ****     };
 366:/opt/gcc-arm-none-eabi-5_2-2015q4/arm-none-eabi/include/c++/5.2.1/bits/stl_algobase.h **** #endif
 367:/opt/gcc-arm-none-eabi-5_2-2015q4/arm-none-eabi/include/c++/5.2.1/bits/stl_algobase.h **** 
 368:/opt/gcc-arm-none-eabi-5_2-2015q4/arm-none-eabi/include/c++/5.2.1/bits/stl_algobase.h ****   template<bool _IsMove>
 369:/opt/gcc-arm-none-eabi-5_2-2015q4/arm-none-eabi/include/c++/5.2.1/bits/stl_algobase.h ****     struct __copy_move<_IsMove, true, random_access_iterator_tag>
 370:/opt/gcc-arm-none-eabi-5_2-2015q4/arm-none-eabi/include/c++/5.2.1/bits/stl_algobase.h ****     {
 371:/opt/gcc-arm-none-eabi-5_2-2015q4/arm-none-eabi/include/c++/5.2.1/bits/stl_algobase.h ****       template<typename _Tp>
 372:/opt/gcc-arm-none-eabi-5_2-2015q4/arm-none-eabi/include/c++/5.2.1/bits/stl_algobase.h ****         static _Tp*
 373:/opt/gcc-arm-none-eabi-5_2-2015q4/arm-none-eabi/include/c++/5.2.1/bits/stl_algobase.h ****         __copy_m(const _Tp* __first, const _Tp* __last, _Tp* __result)
 374:/opt/gcc-arm-none-eabi-5_2-2015q4/arm-none-eabi/include/c++/5.2.1/bits/stl_algobase.h ****         {
 375:/opt/gcc-arm-none-eabi-5_2-2015q4/arm-none-eabi/include/c++/5.2.1/bits/stl_algobase.h **** #if __cplusplus >= 201103L
 376:/opt/gcc-arm-none-eabi-5_2-2015q4/arm-none-eabi/include/c++/5.2.1/bits/stl_algobase.h **** 	  // trivial types can have deleted assignment
 377:/opt/gcc-arm-none-eabi-5_2-2015q4/arm-none-eabi/include/c++/5.2.1/bits/stl_algobase.h **** 	  static_assert( is_copy_assignable<_Tp>::value,
 378:/opt/gcc-arm-none-eabi-5_2-2015q4/arm-none-eabi/include/c++/5.2.1/bits/stl_algobase.h **** 	                 "type is not assignable" );
 379:/opt/gcc-arm-none-eabi-5_2-2015q4/arm-none-eabi/include/c++/5.2.1/bits/stl_algobase.h **** #endif
 380:/opt/gcc-arm-none-eabi-5_2-2015q4/arm-none-eabi/include/c++/5.2.1/bits/stl_algobase.h **** 	  const ptrdiff_t _Num = __last - __first;
 381:/opt/gcc-arm-none-eabi-5_2-2015q4/arm-none-eabi/include/c++/5.2.1/bits/stl_algobase.h **** 	  if (_Num)
 382:/opt/gcc-arm-none-eabi-5_2-2015q4/arm-none-eabi/include/c++/5.2.1/bits/stl_algobase.h **** 	    __builtin_memmove(__result, __first, sizeof(_Tp) * _Num);
 400              		.loc 3 382 0
 401 013a 04F12C03 		add	r3, r4, #44
 402              	.LVL33:
 403              	.L17:
 404 013e 3246     		mov	r2, r6
 405 0140 03CA     		ldmia	r2!, {r0, r1}
 406 0142 AA42     		cmp	r2, r5
 407 0144 1860     		str	r0, [r3]	@ unaligned
 408 0146 5960     		str	r1, [r3, #4]	@ unaligned
 409 0148 1646     		mov	r6, r2
 410 014a 03F10803 		add	r3, r3, #8
 411 014e F6D1     		bne	.L17
 412 0150 1068     		ldr	r0, [r2]	@ unaligned
 413              	.LBE523:
 414              	.LBE522:
 415              	.LBE521:
 416              	.LBE520:
 417              	.LBE519:
 418              	.LBE518:
 419              	.LBB529:
 420              	.LBB530:
 421              	.LBB531:
 422              	.LBB532:
 423              	.LBB533:
 424              	.LBB534:
 425 0152 3C34     		adds	r4, r4, #60
 426              	.LVL34:
 427              	.LBE534:
 428              	.LBE533:
 429              	.LBE532:
 430              	.LBE531:
 431              	.LBE530:
 432              	.LBE529:
 433              	.LBB540:
 434              	.LBB528:
 435              	.LBB527:
 436              	.LBB526:
 437              	.LBB525:
 438              	.LBB524:
 439 0154 1860     		str	r0, [r3]	@ unaligned
 440              	.LVL35:
 441              	.LBE524:
 442              	.LBE525:
 443              	.LBE526:
 444              	.LBE527:
 445              	.LBE528:
 446              	.LBE540:
 447              	.LBB541:
 448              	.LBB539:
 449              	.LBB538:
 450              	.LBB537:
 451              	.LBB536:
 452              	.LBB535:
 453 0156 10AA     		add	r2, sp, #64
 454              	.LVL36:
 455              	.L18:
 456 0158 2B46     		mov	r3, r5
 457 015a 03CB     		ldmia	r3!, {r0, r1}
 458 015c 9342     		cmp	r3, r2
 459 015e 2060     		str	r0, [r4]	@ unaligned
 460 0160 6160     		str	r1, [r4, #4]	@ unaligned
 461 0162 1D46     		mov	r5, r3
 462 0164 04F10804 		add	r4, r4, #8
 463 0168 F6D1     		bne	.L18
 464 016a 1868     		ldr	r0, [r3]	@ unaligned
 465 016c 2060     		str	r0, [r4]	@ unaligned
 466              	.LVL37:
 467              	.LBE535:
 468              	.LBE536:
 469              	.LBE537:
 470              	.LBE538:
 471              	.LBE539:
 472              	.LBE541:
  82:src/servo.cpp **** }
 473              		.loc 2 82 0
 474 016e 0120     		movs	r0, #1
 475 0170 00E0     		b	.L10
 476              	.LVL38:
 477              	.L19:
  64:src/servo.cpp **** 	}
 478              		.loc 2 64 0
 479 0172 0020     		movs	r0, #0
 480              	.LVL39:
 481              	.L10:
  83:src/servo.cpp **** 
 482              		.loc 2 83 0
 483 0174 11B0     		add	sp, sp, #68
 484              	.LCFI6:
 485              		.cfi_def_cfa_offset 20
 486              		@ sp needed
 487 0176 F0BD     		pop	{r4, r5, r6, r7, pc}
 488              	.L24:
 489              		.align	2
 490              	.L23:
 491 0178 28000000 		.word	.LANCHOR0+40
 492              		.cfi_endproc
 493              	.LFE1029:
 494              		.fnend
 496              		.align	1
 497              		.global	_ZN5servoC2EP13motorSettings
 498              		.thumb
 499              		.thumb_func
 501              	_ZN5servoC2EP13motorSettings:
 502              		.fnstart
 503              	.LFB1023:
   6:src/servo.cpp **** {
 504              		.loc 2 6 0
 505              		.cfi_startproc
 506              		@ args = 0, pretend = 0, frame = 0
 507              		@ frame_needed = 0, uses_anonymous_args = 0
 508              	.LVL40:
 509 017c 10B5     		push	{r4, lr}
 510              		.save {r4, lr}
 511              	.LCFI7:
 512              		.cfi_def_cfa_offset 8
 513              		.cfi_offset 4, -8
 514              		.cfi_offset 14, -4
   6:src/servo.cpp **** {
 515              		.loc 2 6 0
 516 017e 0446     		mov	r4, r0
 517              	.LBB542:
 518 0180 FFF7FEFF 		bl	_ZN5motorC2EP13motorSettings
 519              	.LVL41:
 520 0184 014B     		ldr	r3, .L26
 521              	.LBE542:
   9:src/servo.cpp **** 
 522              		.loc 2 9 0
 523 0186 2046     		mov	r0, r4
 524              	.LBB543:
   6:src/servo.cpp **** {
 525              		.loc 2 6 0
 526 0188 2360     		str	r3, [r4]
 527              	.LBE543:
   9:src/servo.cpp **** 
 528              		.loc 2 9 0
 529 018a 10BD     		pop	{r4, pc}
 530              	.LVL42:
 531              	.L27:
 532              		.align	2
 533              	.L26:
 534 018c 08000000 		.word	.LANCHOR0+8
 535              		.cfi_endproc
 536              	.LFE1023:
 537              		.fnend
 539              		.global	_ZN5servoC1EP13motorSettings
 540              		.thumb_set _ZN5servoC1EP13motorSettings,_ZN5servoC2EP13motorSettings
 541              		.align	1
 542              		.global	_ZN5servo12filterUpdateEf
 543              		.thumb
 544              		.thumb_func
 546              	_ZN5servo12filterUpdateEf:
 547              		.fnstart
 548              	.LFB1135:
  96:src/servo.cpp **** 
  97:src/servo.cpp **** std::tuple<float, float, int, int> servo::update(float dt, bool connected){
  98:src/servo.cpp **** 	int sp = pos * (m_settings->m_ServoLimitMax - m_settings->m_ServoLimitMin) / 180 + m_settings->m_S
  99:src/servo.cpp **** 	sp = (int) filterUpdate(sp);
 100:src/servo.cpp **** 
 101:src/servo.cpp **** 	switch(m_settings->m_TimerChannel){
 102:src/servo.cpp **** 		case 1:
 103:src/servo.cpp **** 			(m_settings->m_Timer)->CCR1 = sp;
 104:src/servo.cpp **** 			break;
 105:src/servo.cpp **** 		case 2:
 106:src/servo.cpp **** 			(m_settings->m_Timer)->CCR2 = sp;
 107:src/servo.cpp **** 			break;
 108:src/servo.cpp **** 		case 3:
 109:src/servo.cpp **** 			(m_settings->m_Timer)->CCR3 = sp;
 110:src/servo.cpp **** 			break;
 111:src/servo.cpp **** 		case 4:
 112:src/servo.cpp **** 			(m_settings->m_Timer)->CCR4 = sp;
 113:src/servo.cpp **** 			break;
 114:src/servo.cpp **** 	}
 115:src/servo.cpp **** 	return std::make_tuple(0, 0.0, sp, 0);
 116:src/servo.cpp **** }
 117:src/servo.cpp **** 
 118:src/servo.cpp **** float servo::filterUpdate(float sp){
 549              		.loc 2 118 0
 550              		.cfi_startproc
 551              		@ args = 0, pretend = 0, frame = 0
 552              		@ frame_needed = 0, uses_anonymous_args = 0
 553              		@ link register save eliminated.
 554              	.LVL43:
 119:src/servo.cpp **** 	int i;
 120:src/servo.cpp **** 	for(i = 3; i>0; i++){
 121:src/servo.cpp **** 		u[i-1] = u[i]; 
 555              		.loc 2 121 0
 556 0190 8369     		ldr	r3, [r0, #24]	@ float
 122:src/servo.cpp **** 	}
 123:src/servo.cpp **** 	u[0] = sp; 
 557              		.loc 2 123 0
 558 0192 C160     		str	r1, [r0, #12]	@ float
 121:src/servo.cpp **** 	}
 559              		.loc 2 121 0
 560 0194 4361     		str	r3, [r0, #20]	@ float
 561              	.LVL44:
 562              	.L29:
 563 0196 FEE7     		b	.L29
 564              		.cfi_endproc
 565              	.LFE1135:
 566              		.cantunwind
 567              		.fnend
 569              		.align	1
 570              		.global	_ZN5servo6updateEfb
 571              		.thumb
 572              		.thumb_func
 574              	_ZN5servo6updateEfb:
 575              		.fnstart
 576              	.LFB1033:
  97:src/servo.cpp **** 	int sp = pos * (m_settings->m_ServoLimitMax - m_settings->m_ServoLimitMin) / 180 + m_settings->m_S
 577              		.loc 2 97 0
 578              		.cfi_startproc
 579              		@ args = 0, pretend = 0, frame = 0
 580              		@ frame_needed = 0, uses_anonymous_args = 0
 581              	.LVL45:
  98:src/servo.cpp **** 	sp = (int) filterUpdate(sp);
 582              		.loc 2 98 0
 583 0198 4B68     		ldr	r3, [r1, #4]
 584              	.LVL46:
  97:src/servo.cpp **** 	int sp = pos * (m_settings->m_ServoLimitMax - m_settings->m_ServoLimitMin) / 180 + m_settings->m_S
 585              		.loc 2 97 0
 586 019a 10B5     		push	{r4, lr}
 587              	.LCFI8:
 588              		.cfi_def_cfa_offset 8
 589              		.cfi_offset 4, -8
 590              		.cfi_offset 14, -4
  98:src/servo.cpp **** 	sp = (int) filterUpdate(sp);
 591              		.loc 2 98 0
 592 019c 5869     		ldr	r0, [r3, #20]
 593              	.LVL47:
  99:src/servo.cpp **** 
 594              		.loc 2 99 0
 595 019e 1B69     		ldr	r3, [r3, #16]
 596              	.LVL48:
  97:src/servo.cpp **** 	int sp = pos * (m_settings->m_ServoLimitMax - m_settings->m_ServoLimitMin) / 180 + m_settings->m_S
 597              		.loc 2 97 0
 598 01a0 0C46     		mov	r4, r1
  99:src/servo.cpp **** 
 599              		.loc 2 99 0
 600 01a2 1A1A     		subs	r2, r3, r0
 601              	.LVL49:
 602 01a4 8B68     		ldr	r3, [r1, #8]
 603              	.LVL50:
 604 01a6 5343     		muls	r3, r2, r3
 605 01a8 B422     		movs	r2, #180
 606 01aa 93FBF2F3 		sdiv	r3, r3, r2
 607 01ae 1844     		add	r0, r0, r3
 608              	.LVL51:
 609 01b0 FFF7FEFF 		bl	__aeabi_i2f
 610              	.LVL52:
 611 01b4 0146     		mov	r1, r0
 612 01b6 2046     		mov	r0, r4
 613 01b8 FFF7FEFF 		bl	_ZN5servo12filterUpdateEf
 614              	.LVL53:
 615              		.cfi_endproc
 616              	.LFE1033:
 617              		.cantunwind
 618              		.fnend
 620              		.global	_ZTS5servo
 621              		.global	_ZTI5servo
 622              		.global	_ZTV5servo
 623              		.section	.rodata
 624              		.align	2
 625              		.set	.LANCHOR0,. + 0
 628              	_ZTV5servo:
 629 0000 00000000 		.word	0
 630 0004 00000000 		.word	_ZTI5servo
 631 0008 00000000 		.word	_ZN5servoD1Ev
 632 000c 00000000 		.word	_ZN5servoD0Ev
 633 0010 00000000 		.word	_ZN5servo9motorTypeEv
 634 0014 00000000 		.word	_ZN5servo9motorInitEv
 635 0018 00000000 		.word	_ZN5servo9motorNameEv
 636 001c 00000000 		.word	_ZN5servo12setReferenceEf
 637 0020 00000000 		.word	_ZN5servo12getReferenceEv
 638 0024 00000000 		.word	_ZN5servo6updateEfb
 639              	.LC0:
 640 0028 ED0D3E3B 		.word	993922541
 641 002c 728A0E3C 		.word	1007585906
 642 0030 728A0E3C 		.word	1007585906
 643 0034 ED0D3E3B 		.word	993922541
 644              	.LC1:
 645 0038 0000803F 		.word	1065353216
 646 003c 41F117C0 		.word	-1072172735
 647 0040 94F6F63F 		.word	1073149588
 648 0044 B53708BF 		.word	-1089980491
 651              	_ZTS5servo:
 652 0048 35736572 		.ascii	"5servo\000"
 652      766F00
 653 004f 00       		.space	1
 656              	_ZTI5servo:
 657 0050 08000000 		.word	_ZTVN10__cxxabiv120__si_class_type_infoE+8
 658 0054 00000000 		.word	_ZTS5servo
 659 0058 00000000 		.word	_ZTI5motor
 660              		.text
 661              	.Letext0:
 662              		.file 4 "/opt/gcc-arm-none-eabi-5_2-2015q4/arm-none-eabi/include/machine/_default_types.h"
 663              		.file 5 "/opt/gcc-arm-none-eabi-5_2-2015q4/arm-none-eabi/include/sys/_stdint.h"
 664              		.file 6 "/opt/gcc-arm-none-eabi-5_2-2015q4/arm-none-eabi/include/stdint.h"
 665              		.file 7 "./lib/CMSIS/CM3/DeviceSupport/ST/STM32F10x/stm32f10x.h"
 666              		.file 8 "./lib/STM32F10x_StdPeriph_Driver/inc/stm32f10x_gpio.h"
 667              		.file 9 "./lib/STM32F10x_StdPeriph_Driver/inc/stm32f10x_tim.h"
 668              		.file 10 "/opt/gcc-arm-none-eabi-5_2-2015q4/lib/gcc/arm-none-eabi/5.2.1/include/stddef.h"
 669              		.file 11 "/opt/gcc-arm-none-eabi-5_2-2015q4/lib/gcc/arm-none-eabi/5.2.1/include/stdarg.h"
 670              		.file 12 "/opt/gcc-arm-none-eabi-5_2-2015q4/arm-none-eabi/include/sys/lock.h"
 671              		.file 13 "/opt/gcc-arm-none-eabi-5_2-2015q4/arm-none-eabi/include/sys/_types.h"
 672              		.file 14 "/opt/gcc-arm-none-eabi-5_2-2015q4/arm-none-eabi/include/sys/reent.h"
 673              		.file 15 "<built-in>"
 674              		.file 16 "/opt/gcc-arm-none-eabi-5_2-2015q4/arm-none-eabi/include/c++/5.2.1/type_traits"
 675              		.file 17 "/opt/gcc-arm-none-eabi-5_2-2015q4/arm-none-eabi/include/c++/5.2.1/bits/exception_ptr.h"
 676              		.file 18 "/opt/gcc-arm-none-eabi-5_2-2015q4/arm-none-eabi/include/c++/5.2.1/arm-none-eabi/armv7-m/
 677              		.file 19 "/opt/gcc-arm-none-eabi-5_2-2015q4/arm-none-eabi/include/c++/5.2.1/debug/debug.h"
 678              		.file 20 "/opt/gcc-arm-none-eabi-5_2-2015q4/arm-none-eabi/include/c++/5.2.1/cwchar"
 679              		.file 21 "/opt/gcc-arm-none-eabi-5_2-2015q4/arm-none-eabi/include/c++/5.2.1/cstdint"
 680              		.file 22 "/opt/gcc-arm-none-eabi-5_2-2015q4/arm-none-eabi/include/c++/5.2.1/clocale"
 681              		.file 23 "/opt/gcc-arm-none-eabi-5_2-2015q4/arm-none-eabi/include/c++/5.2.1/bits/stl_pair.h"
 682              		.file 24 "/opt/gcc-arm-none-eabi-5_2-2015q4/arm-none-eabi/include/c++/5.2.1/bits/uses_allocator.h"
 683              		.file 25 "/opt/gcc-arm-none-eabi-5_2-2015q4/arm-none-eabi/include/c++/5.2.1/tuple"
 684              		.file 26 "/opt/gcc-arm-none-eabi-5_2-2015q4/arm-none-eabi/include/c++/5.2.1/bits/cpp_type_traits.h
 685              		.file 27 "/opt/gcc-arm-none-eabi-5_2-2015q4/arm-none-eabi/include/c++/5.2.1/bits/stl_iterator_base
 686              		.file 28 "/opt/gcc-arm-none-eabi-5_2-2015q4/arm-none-eabi/include/c++/5.2.1/bits/move.h"
 687              		.file 29 "/opt/gcc-arm-none-eabi-5_2-2015q4/arm-none-eabi/include/c++/5.2.1/bits/predefined_ops.h"
 688              		.file 30 "/opt/gcc-arm-none-eabi-5_2-2015q4/arm-none-eabi/include/c++/5.2.1/ext/new_allocator.h"
 689              		.file 31 "/opt/gcc-arm-none-eabi-5_2-2015q4/arm-none-eabi/include/c++/5.2.1/ext/numeric_traits.h"
 690              		.file 32 "/opt/gcc-arm-none-eabi-5_2-2015q4/arm-none-eabi/include/wchar.h"
 691              		.file 33 "/opt/gcc-arm-none-eabi-5_2-2015q4/arm-none-eabi/include/locale.h"
 692              		.file 34 "./inc/motorSettings.h"
 693              		.file 35 "./lib/CMSIS/CM3/CoreSupport/core_cm3.h"
 694              		.file 36 "/opt/gcc-arm-none-eabi-5_2-2015q4/arm-none-eabi/include/c++/5.2.1/new"